
init_B:     file format elf32-sparc


Disassembly of section .init:

000100d4 <_init>:
   100d4:	9d e3 bf 98 	save  %sp, -104, %sp
   100d8:	40 00 00 a7 	call  10374 <frame_dummy>
   100dc:	01 00 00 00 	nop 
   100e0:	40 00 3c f7 	call  1f4bc <__do_global_ctors_aux>
   100e4:	01 00 00 00 	nop 
   100e8:	81 c7 e0 08 	ret 
   100ec:	81 e8 00 00 	restore 

Disassembly of section .text:

000100f0 <main>:
   100f0:	9d e3 bf a0 	save  %sp, -96, %sp
   100f4:	40 00 01 91 	call  10738 <_Z12attach_to_fdv>
   100f8:	01 00 00 00 	nop 
   100fc:	80 a6 20 01 	cmp  %i0, 1
   10100:	04 80 00 33 	ble  101cc <main+0xdc>
   10104:	ba 10 00 08 	mov  %o0, %i5
   10108:	40 00 16 0b 	call  15934 <__GI_atoi>
   1010c:	d0 06 60 04 	ld  [ %i1 + 4 ], %o0
   10110:	b8 92 20 00 	orcc  %o0, 0, %i4
   10114:	04 80 00 2e 	ble  101cc <main+0xdc>
   10118:	01 00 00 00 	nop 
   1011c:	40 00 18 57 	call  16278 <__GI_getpid>
   10120:	35 00 00 7d 	sethi  %hi(0x1f400), %i2
   10124:	40 00 14 ab 	call  153d0 <srand>
   10128:	01 00 00 00 	nop 
   1012c:	90 10 00 1d 	mov  %i5, %o0
   10130:	13 00 00 7d 	sethi  %hi(0x1f400), %o1
   10134:	40 00 02 a7 	call  10bd0 <dprintf>
   10138:	92 12 61 78 	or  %o1, 0x178, %o1	! 1f578 <_fini+0x74>
   1013c:	40 00 01 a9 	call  107e0 <close>
   10140:	90 10 00 1d 	mov  %i5, %o0
   10144:	9a 10 20 00 	clr  %o5
   10148:	98 10 3f ff 	mov  -1, %o4
   1014c:	96 10 20 21 	mov  0x21, %o3
   10150:	94 10 20 03 	mov  3, %o2
   10154:	92 10 20 08 	mov  8, %o1
   10158:	40 00 01 ca 	call  10880 <__GI_mmap>
   1015c:	90 10 20 00 	clr  %o0
   10160:	d4 1a 00 00 	ldd  [ %o0 ], %o2
   10164:	b6 10 00 08 	mov  %o0, %i3
   10168:	92 16 a1 a0 	or  %i2, 0x1a0, %o1
   1016c:	40 00 02 99 	call  10bd0 <dprintf>
   10170:	90 10 00 1d 	mov  %i5, %o0
   10174:	94 10 00 1b 	mov  %i3, %o2
   10178:	92 16 a1 a0 	or  %i2, 0x1a0, %o1
   1017c:	40 00 02 95 	call  10bd0 <dprintf>
   10180:	90 10 00 1d 	mov  %i5, %o0
   10184:	92 10 00 1c 	mov  %i4, %o1
   10188:	11 00 00 7d 	sethi  %hi(0x1f400), %o0
   1018c:	40 00 00 d4 	call  104dc <_Z19setup_shared_matrixPKci>
   10190:	90 12 21 b8 	or  %o0, 0x1b8, %o0	! 1f5b8 <_fini+0xb4>
   10194:	ba 92 20 00 	orcc  %o0, 0, %i5
   10198:	02 80 00 0d 	be  101cc <main+0xdc>
   1019c:	94 10 00 1c 	mov  %i4, %o2
   101a0:	40 00 00 95 	call  103f4 <_Z17initialize_matrixPdii>
   101a4:	92 10 00 1c 	mov  %i4, %o1
   101a8:	96 10 00 1c 	mov  %i4, %o3
   101ac:	94 10 00 1c 	mov  %i4, %o2
   101b0:	92 10 00 1d 	mov  %i5, %o1
   101b4:	11 00 00 7d 	sethi  %hi(0x1f400), %o0
   101b8:	b0 10 20 00 	clr  %i0
   101bc:	40 00 01 24 	call  1064c <_Z20write_matrix_to_filePKcPdii>
   101c0:	90 12 21 c8 	or  %o0, 0x1c8, %o0
   101c4:	81 c7 e0 08 	ret 
   101c8:	81 e8 00 00 	restore 
   101cc:	81 c7 e0 08 	ret 
   101d0:	91 e8 20 01 	restore  %g0, 1, %o0
   101d4:	81 c3 e0 08 	retl 
   101d8:	ae 03 c0 17 	add  %o7, %l7, %l7

000101dc <_start>:
   101dc:	2f 00 00 bf 	sethi  %hi(0x2fc00), %l7
   101e0:	7f ff ff fd 	call  101d4 <main+0xe4>
   101e4:	ae 05 e0 ec 	add  %l7, 0xec, %l7	! 2fcec <__FRAME_END__+0x75f4>
   101e8:	bc 10 00 00 	mov  %g0, %fp
   101ec:	9c 23 a0 18 	sub  %sp, 0x18, %sp
   101f0:	d2 03 a0 58 	ld  [ %sp + 0x58 ], %o1
   101f4:	94 03 a0 5c 	add  %sp, 0x5c, %o2
   101f8:	11 00 00 00 	sethi  %hi(0), %o0
   101fc:	17 00 00 00 	sethi  %hi(0), %o3
   10200:	19 00 00 00 	sethi  %hi(0), %o4
   10204:	90 12 20 b4 	or  %o0, 0xb4, %o0
   10208:	96 12 e0 48 	or  %o3, 0x48, %o3
   1020c:	98 13 20 d0 	or  %o4, 0xd0, %o4
   10210:	d0 05 c0 08 	ld  [ %l7 + %o0 ], %o0
   10214:	d6 05 c0 0b 	ld  [ %l7 + %o3 ], %o3
   10218:	d8 05 c0 0c 	ld  [ %l7 + %o4 ], %o4
   1021c:	9a 10 00 01 	mov  %g1, %o5
   10220:	40 00 16 ba 	call  15d08 <__uClibc_main>
   10224:	01 00 00 00 	nop 
   10228:	00 00 00 00 	unimp  0

0001022c <deregister_tm_clones>:
   1022c:	9d e3 bf a0 	save  %sp, -96, %sp
   10230:	11 00 01 00 	sethi  %hi(0x40000), %o0
   10234:	03 00 01 00 	sethi  %hi(0x40000), %g1
   10238:	90 12 22 58 	or  %o0, 0x258, %o0
   1023c:	82 10 62 58 	or  %g1, 0x258, %g1
   10240:	80 a0 40 08 	cmp  %g1, %o0
   10244:	02 80 00 08 	be  10264 <deregister_tm_clones+0x38>
   10248:	03 00 00 00 	sethi  %hi(0), %g1
   1024c:	82 10 60 00 	mov  %g1, %g1	! 0 <errno>
   10250:	80 a0 60 00 	cmp  %g1, 0
   10254:	02 80 00 04 	be  10264 <deregister_tm_clones+0x38>
   10258:	01 00 00 00 	nop 
   1025c:	9f c0 40 00 	call  %g1
   10260:	01 00 00 00 	nop 
   10264:	81 c7 e0 08 	ret 
   10268:	81 e8 00 00 	restore 

0001026c <register_tm_clones>:
   1026c:	9d e3 bf a0 	save  %sp, -96, %sp
   10270:	03 00 01 00 	sethi  %hi(0x40000), %g1
   10274:	11 00 01 00 	sethi  %hi(0x40000), %o0
   10278:	92 10 62 58 	or  %g1, 0x258, %o1
   1027c:	90 12 22 58 	or  %o0, 0x258, %o0
   10280:	92 22 40 08 	sub  %o1, %o0, %o1
   10284:	83 3a 60 02 	sra  %o1, 2, %g1
   10288:	93 32 60 1f 	srl  %o1, 0x1f, %o1
   1028c:	92 02 40 01 	add  %o1, %g1, %o1
   10290:	93 3a 60 01 	sra  %o1, 1, %o1
   10294:	80 a2 60 00 	cmp  %o1, 0
   10298:	02 80 00 08 	be  102b8 <register_tm_clones+0x4c>
   1029c:	03 00 00 00 	sethi  %hi(0), %g1
   102a0:	82 10 60 00 	mov  %g1, %g1	! 0 <errno>
   102a4:	80 a0 60 00 	cmp  %g1, 0
   102a8:	02 80 00 04 	be  102b8 <register_tm_clones+0x4c>
   102ac:	01 00 00 00 	nop 
   102b0:	9f c0 40 00 	call  %g1
   102b4:	01 00 00 00 	nop 
   102b8:	81 c7 e0 08 	ret 
   102bc:	81 e8 00 00 	restore 

000102c0 <__do_global_dtors_aux>:
   102c0:	9d e3 bf a0 	save  %sp, -96, %sp
   102c4:	35 00 01 00 	sethi  %hi(0x40000), %i2
   102c8:	c2 0e a2 58 	ldub  [ %i2 + 0x258 ], %g1	! 40258 <__TMC_END__>
   102cc:	80 a0 60 00 	cmp  %g1, 0
   102d0:	12 80 00 24 	bne  10360 <__do_global_dtors_aux+0xa0>
   102d4:	05 00 00 ff 	sethi  %hi(0x3fc00), %g2
   102d8:	3b 00 01 00 	sethi  %hi(0x40000), %i5
   102dc:	b6 10 a2 84 	or  %g2, 0x284, %i3
   102e0:	c2 07 62 5c 	ld  [ %i5 + 0x25c ], %g1
   102e4:	39 00 00 ff 	sethi  %hi(0x3fc00), %i4
   102e8:	84 10 a2 84 	or  %g2, 0x284, %g2
   102ec:	b8 17 22 88 	or  %i4, 0x288, %i4
   102f0:	b8 27 00 02 	sub  %i4, %g2, %i4
   102f4:	b9 3f 20 02 	sra  %i4, 2, %i4
   102f8:	b8 07 3f ff 	add  %i4, -1, %i4
   102fc:	80 a0 40 1c 	cmp  %g1, %i4
   10300:	1a 80 00 0c 	bcc  10330 <__do_global_dtors_aux+0x70>
   10304:	82 00 60 01 	inc  %g1
   10308:	ba 17 62 5c 	or  %i5, 0x25c, %i5
   1030c:	85 28 60 02 	sll  %g1, 2, %g2
   10310:	c2 27 40 00 	st  %g1, [ %i5 ]
   10314:	c2 06 c0 02 	ld  [ %i3 + %g2 ], %g1
   10318:	9f c0 40 00 	call  %g1
   1031c:	01 00 00 00 	nop 
   10320:	c2 07 40 00 	ld  [ %i5 ], %g1
   10324:	80 a0 40 1c 	cmp  %g1, %i4
   10328:	0a bf ff f9 	bcs  1030c <__do_global_dtors_aux+0x4c>
   1032c:	82 00 60 01 	inc  %g1
   10330:	7f ff ff bf 	call  1022c <deregister_tm_clones>
   10334:	01 00 00 00 	nop 
   10338:	03 00 00 00 	sethi  %hi(0), %g1
   1033c:	82 10 60 00 	mov  %g1, %g1	! 0 <errno>
   10340:	80 a0 60 00 	cmp  %g1, 0
   10344:	02 80 00 06 	be  1035c <__do_global_dtors_aux+0x9c>
   10348:	82 10 20 01 	mov  1, %g1
   1034c:	11 00 00 a1 	sethi  %hi(0x28400), %o0
   10350:	7f ff bf 2c 	call  0 <errno>
   10354:	90 12 20 f0 	or  %o0, 0xf0, %o0	! 284f0 <__EH_FRAME_BEGIN__>
   10358:	82 10 20 01 	mov  1, %g1
   1035c:	c2 2e a2 58 	stb  %g1, [ %i2 + 0x258 ]
   10360:	81 c7 e0 08 	ret 
   10364:	81 e8 00 00 	restore 

00010368 <call___do_global_dtors_aux>:
   10368:	9d e3 bf a0 	save  %sp, -96, %sp
   1036c:	81 c7 e0 08 	ret 
   10370:	81 e8 00 00 	restore 

00010374 <frame_dummy>:
   10374:	9d e3 bf a0 	save  %sp, -96, %sp
   10378:	03 00 00 00 	sethi  %hi(0), %g1
   1037c:	82 10 60 00 	mov  %g1, %g1	! 0 <errno>
   10380:	80 a0 60 00 	cmp  %g1, 0
   10384:	02 80 00 06 	be  1039c <frame_dummy+0x28>
   10388:	13 00 01 00 	sethi  %hi(0x40000), %o1
   1038c:	11 00 00 a1 	sethi  %hi(0x28400), %o0
   10390:	92 12 62 60 	or  %o1, 0x260, %o1
   10394:	7f ff bf 1b 	call  0 <errno>
   10398:	90 12 20 f0 	or  %o0, 0xf0, %o0
   1039c:	10 bf ff b4 	b  1026c <register_tm_clones>
   103a0:	81 e8 00 00 	restore 

000103a4 <call_frame_dummy>:
   103a4:	9d e3 bf a0 	save  %sp, -96, %sp
   103a8:	81 c7 e0 08 	ret 
   103ac:	81 e8 00 00 	restore 

000103b0 <_Z5fRanddd>:
   103b0:	9d e3 bf 90 	save  %sp, -112, %sp
   103b4:	40 00 14 04 	call  153c4 <rand>
   103b8:	f0 3f bf f8 	std  %i0, [ %fp + -8 ]
   103bc:	d0 27 bf f0 	st  %o0, [ %fp + -16 ]
   103c0:	d1 07 bf f0 	ld  [ %fp + -16 ], %f8
   103c4:	d9 1f bf f8 	ldd  [ %fp + -8 ], %f12
   103c8:	81 a0 19 08 	fitod  %f8, %f0
   103cc:	f4 3f bf f0 	std  %i2, [ %fp + -16 ]
   103d0:	03 00 00 7d 	sethi  %hi(0x1f400), %g1
   103d4:	d1 1f bf f0 	ldd  [ %fp + -16 ], %f8
   103d8:	d5 18 61 18 	ldd  [ %g1 + 0x118 ], %f10
   103dc:	91 a2 08 cc 	fsubd  %f8, %f12, %f8
   103e0:	81 a0 09 ca 	fdivd  %f0, %f10, %f0
   103e4:	81 a0 09 48 	fmuld  %f0, %f8, %f0
   103e8:	81 a0 08 4c 	faddd  %f0, %f12, %f0
   103ec:	81 c7 e0 08 	ret 
   103f0:	81 e8 00 00 	restore 

000103f4 <_Z17initialize_matrixPdii>:
   103f4:	9d e3 bf 98 	save  %sp, -104, %sp
   103f8:	80 a6 60 00 	cmp  %i1, 0
   103fc:	04 80 00 21 	ble  10480 <_Z17initialize_matrixPdii+0x8c>
   10400:	a7 2e a0 03 	sll  %i2, 3, %l3
   10404:	a4 10 20 00 	clr  %l2
   10408:	2d 00 00 7d 	sethi  %hi(0x1f400), %l6
   1040c:	2b 00 00 7d 	sethi  %hi(0x1f400), %l5
   10410:	29 00 00 7d 	sethi  %hi(0x1f400), %l4
   10414:	80 a6 a0 00 	cmp  %i2, 0
   10418:	24 80 00 17 	ble,a   10474 <_Z17initialize_matrixPdii+0x80>
   1041c:	a4 04 a0 01 	inc  %l2
   10420:	b8 10 00 18 	mov  %i0, %i4
   10424:	ba 10 20 00 	clr  %i5
   10428:	a2 15 a1 18 	or  %l6, 0x118, %l1
   1042c:	a0 15 61 20 	or  %l5, 0x120, %l0
   10430:	b6 15 21 28 	or  %l4, 0x128, %i3
   10434:	40 00 13 e4 	call  153c4 <rand>
   10438:	ba 07 60 01 	inc  %i5
   1043c:	d5 1c 40 00 	ldd  [ %l1 ], %f10
   10440:	d0 27 bf fc 	st  %o0, [ %fp + -4 ]
   10444:	d9 1c 00 00 	ldd  [ %l0 ], %f12
   10448:	d1 07 bf fc 	ld  [ %fp + -4 ], %f8
   1044c:	91 a0 19 08 	fitod  %f8, %f8
   10450:	91 a2 09 ca 	fdivd  %f8, %f10, %f8
   10454:	d5 1e c0 00 	ldd  [ %i3 ], %f10
   10458:	91 a2 09 4c 	fmuld  %f8, %f12, %f8
   1045c:	91 a2 08 4a 	faddd  %f8, %f10, %f8
   10460:	d1 3f 00 00 	std  %f8, [ %i4 ]
   10464:	80 a6 80 1d 	cmp  %i2, %i5
   10468:	12 bf ff f3 	bne  10434 <_Z17initialize_matrixPdii+0x40>
   1046c:	b8 07 20 08 	add  %i4, 8, %i4
   10470:	a4 04 a0 01 	inc  %l2
   10474:	80 a6 40 12 	cmp  %i1, %l2
   10478:	12 bf ff e7 	bne  10414 <_Z17initialize_matrixPdii+0x20>
   1047c:	b0 06 00 13 	add  %i0, %l3, %i0
   10480:	81 c7 e0 08 	ret 
   10484:	81 e8 00 00 	restore 

00010488 <_Z20get_address_from_keyPKc>:
   10488:	9d e3 bf a0 	save  %sp, -96, %sp
   1048c:	37 00 01 00 	sethi  %hi(0x40000), %i3
   10490:	ba 10 20 00 	clr  %i5
   10494:	b6 16 e0 08 	or  %i3, 8, %i3
   10498:	b8 10 00 1b 	mov  %i3, %i4
   1049c:	92 10 00 18 	mov  %i0, %o1
   104a0:	40 00 0e 9c 	call  13f10 <__GI_strcmp>
   104a4:	d0 07 00 00 	ld  [ %i4 ], %o0
   104a8:	80 a2 20 00 	cmp  %o0, 0
   104ac:	22 80 00 08 	be,a   104cc <_Z20get_address_from_keyPKc+0x44>
   104b0:	bb 2f 60 03 	sll  %i5, 3, %i5
   104b4:	ba 07 60 01 	inc  %i5
   104b8:	80 a7 60 03 	cmp  %i5, 3
   104bc:	12 bf ff f8 	bne  1049c <_Z20get_address_from_keyPKc+0x14>
   104c0:	b8 07 20 08 	add  %i4, 8, %i4
   104c4:	81 c7 e0 08 	ret 
   104c8:	91 e8 20 00 	restore  %g0, 0, %o0
   104cc:	b6 06 c0 1d 	add  %i3, %i5, %i3
   104d0:	f0 06 e0 04 	ld  [ %i3 + 4 ], %i0
   104d4:	81 c7 e0 08 	ret 
   104d8:	81 e8 00 00 	restore 

000104dc <_Z19setup_shared_matrixPKci>:
   104dc:	9d e3 bf a0 	save  %sp, -96, %sp
   104e0:	37 00 01 00 	sethi  %hi(0x40000), %i3
   104e4:	b2 5e 40 19 	smul  %i1, %i1, %i1
   104e8:	b6 16 e0 08 	or  %i3, 8, %i3
   104ec:	b3 2e 60 03 	sll  %i1, 3, %i1
   104f0:	b8 10 00 1b 	mov  %i3, %i4
   104f4:	ba 10 20 00 	clr  %i5
   104f8:	92 10 00 18 	mov  %i0, %o1
   104fc:	40 00 0e 85 	call  13f10 <__GI_strcmp>
   10500:	d0 07 00 00 	ld  [ %i4 ], %o0
   10504:	80 a2 20 00 	cmp  %o0, 0
   10508:	22 80 00 08 	be,a   10528 <_Z19setup_shared_matrixPKci+0x4c>
   1050c:	bb 2f 60 03 	sll  %i5, 3, %i5
   10510:	ba 07 60 01 	inc  %i5
   10514:	80 a7 60 03 	cmp  %i5, 3
   10518:	12 bf ff f8 	bne  104f8 <_Z19setup_shared_matrixPKci+0x1c>
   1051c:	b8 07 20 08 	add  %i4, 8, %i4
   10520:	81 c7 e0 08 	ret 
   10524:	91 e8 20 00 	restore  %g0, 0, %o0
   10528:	b6 06 c0 1d 	add  %i3, %i5, %i3
   1052c:	f8 06 e0 04 	ld  [ %i3 + 4 ], %i4
   10530:	80 a7 20 00 	cmp  %i4, 0
   10534:	02 bf ff fb 	be  10520 <_Z19setup_shared_matrixPKci+0x44>
   10538:	94 10 21 b6 	mov  0x1b6, %o2
   1053c:	92 10 20 02 	mov  2, %o1
   10540:	40 00 25 76 	call  19b18 <shm_open>
   10544:	90 10 00 18 	mov  %i0, %o0
   10548:	80 a2 3f ff 	cmp  %o0, -1
   1054c:	12 80 00 13 	bne  10598 <_Z19setup_shared_matrixPKci+0xbc>
   10550:	ba 10 00 08 	mov  %o0, %i5
   10554:	40 00 01 8a 	call  10b7c <__errno_location>
   10558:	01 00 00 00 	nop 
   1055c:	c2 02 00 00 	ld  [ %o0 ], %g1
   10560:	80 a0 60 02 	cmp  %g1, 2
   10564:	12 bf ff ef 	bne  10520 <_Z19setup_shared_matrixPKci+0x44>
   10568:	94 10 21 b6 	mov  0x1b6, %o2
   1056c:	92 10 22 02 	mov  0x202, %o1
   10570:	40 00 25 6a 	call  19b18 <shm_open>
   10574:	90 10 00 18 	mov  %i0, %o0
   10578:	80 a2 3f ff 	cmp  %o0, -1
   1057c:	02 bf ff e9 	be  10520 <_Z19setup_shared_matrixPKci+0x44>
   10580:	ba 10 00 08 	mov  %o0, %i5
   10584:	40 00 00 aa 	call  1082c <__GI_ftruncate>
   10588:	92 10 00 19 	mov  %i1, %o1
   1058c:	80 a2 3f ff 	cmp  %o0, -1
   10590:	02 bf ff e4 	be  10520 <_Z19setup_shared_matrixPKci+0x44>
   10594:	01 00 00 00 	nop 
   10598:	9a 10 20 00 	clr  %o5	! 0 <errno>
   1059c:	98 10 00 1d 	mov  %i5, %o4
   105a0:	96 10 20 11 	mov  0x11, %o3
   105a4:	94 10 20 03 	mov  3, %o2
   105a8:	92 10 00 19 	mov  %i1, %o1
   105ac:	40 00 00 b5 	call  10880 <__GI_mmap>
   105b0:	90 10 00 1c 	mov  %i4, %o0
   105b4:	b0 10 00 08 	mov  %o0, %i0
   105b8:	40 00 00 8a 	call  107e0 <close>
   105bc:	90 10 00 1d 	mov  %i5, %o0
   105c0:	80 a6 3f ff 	cmp  %i0, -1
   105c4:	02 bf ff d7 	be  10520 <_Z19setup_shared_matrixPKci+0x44>
   105c8:	01 00 00 00 	nop 
   105cc:	81 c7 e0 08 	ret 
   105d0:	81 e8 00 00 	restore 

000105d4 <_Z21cleanup_shared_matrixPKci>:
   105d4:	9d e3 bf a0 	save  %sp, -96, %sp
   105d8:	37 00 01 00 	sethi  %hi(0x40000), %i3
   105dc:	ba 10 20 00 	clr  %i5
   105e0:	b6 16 e0 08 	or  %i3, 8, %i3
   105e4:	b8 10 00 1b 	mov  %i3, %i4
   105e8:	92 10 00 18 	mov  %i0, %o1
   105ec:	40 00 0e 49 	call  13f10 <__GI_strcmp>
   105f0:	d0 07 00 00 	ld  [ %i4 ], %o0
   105f4:	80 a2 20 00 	cmp  %o0, 0
   105f8:	22 80 00 08 	be,a   10618 <_Z21cleanup_shared_matrixPKci+0x44>
   105fc:	b2 5e 40 19 	smul  %i1, %i1, %i1
   10600:	ba 07 60 01 	inc  %i5
   10604:	80 a7 60 03 	cmp  %i5, 3
   10608:	12 bf ff f8 	bne  105e8 <_Z21cleanup_shared_matrixPKci+0x14>
   1060c:	b8 07 20 08 	add  %i4, 8, %i4
   10610:	10 80 25 5b 	b  19b7c <shm_unlink>
   10614:	81 e8 00 00 	restore 
   10618:	bb 2f 60 03 	sll  %i5, 3, %i5
   1061c:	b6 06 c0 1d 	add  %i3, %i5, %i3
   10620:	d0 06 e0 04 	ld  [ %i3 + 4 ], %o0
   10624:	80 a2 20 00 	cmp  %o0, 0
   10628:	02 bf ff fa 	be  10610 <_Z21cleanup_shared_matrixPKci+0x3c>
   1062c:	93 2e 60 03 	sll  %i1, 3, %o1
   10630:	80 a2 60 00 	cmp  %o1, 0
   10634:	02 bf ff f7 	be  10610 <_Z21cleanup_shared_matrixPKci+0x3c>
   10638:	01 00 00 00 	nop 
   1063c:	40 00 00 aa 	call  108e4 <__GI_munmap>
   10640:	01 00 00 00 	nop 
   10644:	10 80 25 4e 	b  19b7c <shm_unlink>
   10648:	81 e8 00 00 	restore 

0001064c <_Z20write_matrix_to_filePKcPdii>:
   1064c:	9d e3 bf 20 	save  %sp, -224, %sp
   10650:	94 10 21 a4 	mov  0x1a4, %o2
   10654:	92 10 26 01 	mov  0x601, %o1
   10658:	40 00 00 e3 	call  109e4 <__GI_open>
   1065c:	90 10 00 18 	mov  %i0, %o0
   10660:	80 a6 a0 00 	cmp  %i2, 0
   10664:	04 80 00 31 	ble  10728 <_Z20write_matrix_to_filePKcPdii+0xdc>
   10668:	a4 10 00 08 	mov  %o0, %l2
   1066c:	21 00 00 7d 	sethi  %hi(0x1f400), %l0
   10670:	ab 2e e0 03 	sll  %i3, 3, %l5
   10674:	a6 10 20 00 	clr  %l3
   10678:	a2 10 20 80 	mov  0x80, %l1
   1067c:	a0 14 21 60 	or  %l0, 0x160, %l0
   10680:	a8 10 20 0a 	mov  0xa, %l4
   10684:	b0 10 00 19 	mov  %i1, %i0
   10688:	b8 10 20 00 	clr  %i4
   1068c:	ba 10 20 00 	clr  %i5
   10690:	80 a6 e0 00 	cmp  %i3, 0
   10694:	14 80 00 07 	bg  106b0 <_Z20write_matrix_to_filePKcPdii+0x64>
   10698:	94 10 20 01 	mov  1, %o2
   1069c:	10 80 00 1b 	b  10708 <_Z20write_matrix_to_filePKcPdii+0xbc>
   106a0:	ba 07 80 1d 	add  %fp, %i5, %i5
   106a4:	80 a6 c0 1c 	cmp  %i3, %i4
   106a8:	02 80 00 16 	be  10700 <_Z20write_matrix_to_filePKcPdii+0xb4>
   106ac:	b0 06 20 08 	add  %i0, 8, %i0
   106b0:	82 07 bf 80 	add  %fp, -128, %g1
   106b4:	92 24 40 1d 	sub  %l1, %i5, %o1
   106b8:	90 00 40 1d 	add  %g1, %i5, %o0
   106bc:	d6 06 00 00 	ld  [ %i0 ], %o3
   106c0:	d8 06 20 04 	ld  [ %i0 + 4 ], %o4
   106c4:	40 00 01 37 	call  10ba0 <__GI_snprintf>
   106c8:	94 10 00 10 	mov  %l0, %o2
   106cc:	ba 07 40 08 	add  %i5, %o0, %i5
   106d0:	80 a7 60 60 	cmp  %i5, 0x60
   106d4:	24 bf ff f4 	ble,a   106a4 <_Z20write_matrix_to_filePKcPdii+0x58>
   106d8:	b8 07 20 01 	inc  %i4
   106dc:	94 10 00 1d 	mov  %i5, %o2
   106e0:	92 07 bf 80 	add  %fp, -128, %o1
   106e4:	40 00 01 13 	call  10b30 <write>
   106e8:	90 10 00 12 	mov  %l2, %o0
   106ec:	b8 07 20 01 	inc  %i4
   106f0:	ba 10 20 00 	clr  %i5
   106f4:	80 a6 c0 1c 	cmp  %i3, %i4
   106f8:	12 bf ff ee 	bne  106b0 <_Z20write_matrix_to_filePKcPdii+0x64>
   106fc:	b0 06 20 08 	add  %i0, 8, %i0
   10700:	94 07 60 01 	add  %i5, 1, %o2
   10704:	ba 07 80 1d 	add  %fp, %i5, %i5
   10708:	92 07 bf 80 	add  %fp, -128, %o1
   1070c:	e8 2f 7f 80 	stb  %l4, [ %i5 + -128 ]
   10710:	40 00 01 08 	call  10b30 <write>
   10714:	90 10 00 12 	mov  %l2, %o0
   10718:	a6 04 e0 01 	inc  %l3
   1071c:	80 a6 80 13 	cmp  %i2, %l3
   10720:	12 bf ff d9 	bne  10684 <_Z20write_matrix_to_filePKcPdii+0x38>
   10724:	b2 06 40 15 	add  %i1, %l5, %i1
   10728:	40 00 00 2e 	call  107e0 <close>
   1072c:	90 10 00 12 	mov  %l2, %o0
   10730:	81 c7 e0 08 	ret 
   10734:	81 e8 00 00 	restore 

00010738 <_Z12attach_to_fdv>:
   10738:	9d e3 bf a0 	save  %sp, -96, %sp
   1073c:	94 10 21 b6 	mov  0x1b6, %o2
   10740:	92 10 22 09 	mov  0x209, %o1
   10744:	11 00 00 7d 	sethi  %hi(0x1f400), %o0
   10748:	40 00 00 a7 	call  109e4 <__GI_open>
   1074c:	90 12 21 68 	or  %o0, 0x168, %o0	! 1f568 <_fini+0x64>
   10750:	b0 92 20 00 	orcc  %o0, 0, %i0
   10754:	06 80 00 04 	bl  10764 <_Z12attach_to_fdv+0x2c>
   10758:	01 00 00 00 	nop 
   1075c:	81 c7 e0 08 	ret 
   10760:	81 e8 00 00 	restore 
   10764:	81 c7 e0 08 	ret 
   10768:	91 e8 3f ff 	restore  %g0, -1, %o0

0001076c <__close_nocancel>:
   1076c:	9d e3 bf a0 	save  %sp, -96, %sp
   10770:	2f 00 00 bd 	sethi  %hi(0x2f400), %l7
   10774:	40 00 00 2c 	call  10824 <__sparc_get_pc_thunk.l7>
   10778:	ae 05 e3 58 	add  %l7, 0x358, %l7	! 2f758 <__FRAME_END__+0x7060>
   1077c:	82 10 20 06 	mov  6, %g1
   10780:	90 10 00 18 	mov  %i0, %o0
   10784:	91 d0 20 10 	ta  0x10
   10788:	1a 80 00 03 	bcc  10794 <__close_nocancel+0x28>
   1078c:	b0 10 00 08 	mov  %o0, %i0
   10790:	b0 20 00 08 	neg  %o0, %i0
   10794:	80 a6 30 00 	cmp  %i0, -4096
   10798:	08 80 00 07 	bleu  107b4 <__close_nocancel+0x48>
   1079c:	03 00 00 00 	sethi  %hi(0), %g1
   107a0:	b0 20 00 18 	neg  %i0
   107a4:	82 18 7f f8 	xor  %g1, -8, %g1
   107a8:	ae 10 00 01 	mov  %g1, %l7
   107ac:	f0 21 c0 17 	st  %i0, [ %g7 + %l7 ]
   107b0:	b0 10 3f ff 	mov  -1, %i0
   107b4:	81 c7 e0 08 	ret 
   107b8:	81 e8 00 00 	restore 

000107bc <__close_nocancel_no_status>:
   107bc:	9d e3 bf a0 	save  %sp, -96, %sp
   107c0:	82 10 20 06 	mov  6, %g1
   107c4:	90 10 00 18 	mov  %i0, %o0
   107c8:	91 d0 20 10 	ta  0x10
   107cc:	1a 80 00 03 	bcc  107d8 <__close_nocancel_no_status+0x1c>
   107d0:	82 10 00 08 	mov  %o0, %g1
   107d4:	82 20 00 08 	neg  %o0, %g1
   107d8:	81 c7 e0 08 	ret 
   107dc:	81 e8 00 00 	restore 

000107e0 <close>:
   107e0:	9d e3 bf a0 	save  %sp, -96, %sp
   107e4:	c2 01 e0 0c 	ld  [ %g7 + 0xc ], %g1
   107e8:	80 a0 60 00 	cmp  %g1, 0
   107ec:	12 80 00 04 	bne  107fc <close+0x1c>
   107f0:	01 00 00 00 	nop 
   107f4:	10 bf ff de 	b  1076c <__close_nocancel>
   107f8:	81 e8 00 00 	restore 
   107fc:	40 00 16 df 	call  16378 <__libc_enable_asynccancel>
   10800:	01 00 00 00 	nop 
   10804:	ba 10 00 08 	mov  %o0, %i5
   10808:	7f ff ff d9 	call  1076c <__close_nocancel>
   1080c:	90 10 00 18 	mov  %i0, %o0
   10810:	b0 10 00 08 	mov  %o0, %i0
   10814:	40 00 17 16 	call  1646c <__libc_disable_asynccancel>
   10818:	90 10 00 1d 	mov  %i5, %o0
   1081c:	81 c7 e0 08 	ret 
   10820:	81 e8 00 00 	restore 

00010824 <__sparc_get_pc_thunk.l7>:
   10824:	81 c3 e0 08 	retl 
   10828:	ae 03 c0 17 	add  %o7, %l7, %l7

0001082c <__GI_ftruncate>:
   1082c:	9d e3 bf a0 	save  %sp, -96, %sp
   10830:	2f 00 00 bd 	sethi  %hi(0x2f400), %l7
   10834:	7f ff ff fc 	call  10824 <__sparc_get_pc_thunk.l7>
   10838:	ae 05 e2 98 	add  %l7, 0x298, %l7	! 2f698 <__FRAME_END__+0x6fa0>
   1083c:	82 10 20 82 	mov  0x82, %g1
   10840:	92 10 00 19 	mov  %i1, %o1
   10844:	90 10 00 18 	mov  %i0, %o0
   10848:	91 d0 20 10 	ta  0x10
   1084c:	1a 80 00 03 	bcc  10858 <__GI_ftruncate+0x2c>
   10850:	b0 10 00 08 	mov  %o0, %i0
   10854:	b0 20 00 08 	neg  %o0, %i0
   10858:	80 a6 30 00 	cmp  %i0, -4096
   1085c:	08 80 00 07 	bleu  10878 <__GI_ftruncate+0x4c>
   10860:	03 00 00 00 	sethi  %hi(0), %g1
   10864:	b0 20 00 18 	neg  %i0
   10868:	82 18 7f f8 	xor  %g1, -8, %g1
   1086c:	ae 10 00 01 	mov  %g1, %l7
   10870:	f0 21 c0 17 	st  %i0, [ %g7 + %l7 ]
   10874:	b0 10 3f ff 	mov  -1, %i0
   10878:	81 c7 e0 08 	ret 
   1087c:	81 e8 00 00 	restore 

00010880 <__GI_mmap>:
   10880:	9d e3 bf a0 	save  %sp, -96, %sp
   10884:	2f 00 00 bd 	sethi  %hi(0x2f400), %l7
   10888:	7f ff ff e7 	call  10824 <__sparc_get_pc_thunk.l7>
   1088c:	ae 05 e2 44 	add  %l7, 0x244, %l7	! 2f644 <__FRAME_END__+0x6f4c>
   10890:	82 10 20 47 	mov  0x47, %g1
   10894:	9a 10 00 1d 	mov  %i5, %o5
   10898:	98 10 00 1c 	mov  %i4, %o4
   1089c:	96 10 00 1b 	mov  %i3, %o3
   108a0:	94 10 00 1a 	mov  %i2, %o2
   108a4:	92 10 00 19 	mov  %i1, %o1
   108a8:	90 10 00 18 	mov  %i0, %o0
   108ac:	91 d0 20 10 	ta  0x10
   108b0:	1a 80 00 03 	bcc  108bc <__GI_mmap+0x3c>
   108b4:	b0 10 00 08 	mov  %o0, %i0
   108b8:	b0 20 00 08 	neg  %o0, %i0
   108bc:	80 a6 30 00 	cmp  %i0, -4096
   108c0:	08 80 00 07 	bleu  108dc <__GI_mmap+0x5c>
   108c4:	03 00 00 00 	sethi  %hi(0), %g1
   108c8:	b0 20 00 18 	neg  %i0
   108cc:	82 18 7f f8 	xor  %g1, -8, %g1
   108d0:	ae 10 00 01 	mov  %g1, %l7
   108d4:	f0 21 c0 17 	st  %i0, [ %g7 + %l7 ]
   108d8:	b0 10 3f ff 	mov  -1, %i0
   108dc:	81 c7 e0 08 	ret 
   108e0:	81 e8 00 00 	restore 

000108e4 <__GI_munmap>:
   108e4:	9d e3 bf a0 	save  %sp, -96, %sp
   108e8:	2f 00 00 bd 	sethi  %hi(0x2f400), %l7
   108ec:	7f ff ff ce 	call  10824 <__sparc_get_pc_thunk.l7>
   108f0:	ae 05 e1 e0 	add  %l7, 0x1e0, %l7	! 2f5e0 <__FRAME_END__+0x6ee8>
   108f4:	82 10 20 49 	mov  0x49, %g1
   108f8:	92 10 00 19 	mov  %i1, %o1
   108fc:	90 10 00 18 	mov  %i0, %o0
   10900:	91 d0 20 10 	ta  0x10
   10904:	1a 80 00 03 	bcc  10910 <__GI_munmap+0x2c>
   10908:	b0 10 00 08 	mov  %o0, %i0
   1090c:	b0 20 00 08 	neg  %o0, %i0
   10910:	80 a6 30 00 	cmp  %i0, -4096
   10914:	08 80 00 07 	bleu  10930 <__GI_munmap+0x4c>
   10918:	03 00 00 00 	sethi  %hi(0), %g1
   1091c:	b0 20 00 18 	neg  %i0
   10920:	82 18 7f f8 	xor  %g1, -8, %g1
   10924:	ae 10 00 01 	mov  %g1, %l7
   10928:	f0 21 c0 17 	st  %i0, [ %g7 + %l7 ]
   1092c:	b0 10 3f ff 	mov  -1, %i0
   10930:	81 c7 e0 08 	ret 
   10934:	81 e8 00 00 	restore 

00010938 <__open_nocancel>:
   10938:	9d e3 bf a0 	save  %sp, -96, %sp
   1093c:	2f 00 00 bd 	sethi  %hi(0x2f400), %l7
   10940:	7f ff ff b9 	call  10824 <__sparc_get_pc_thunk.l7>
   10944:	ae 05 e1 8c 	add  %l7, 0x18c, %l7	! 2f58c <__FRAME_END__+0x6e94>
   10948:	82 10 20 05 	mov  5, %g1
   1094c:	94 10 00 1a 	mov  %i2, %o2
   10950:	92 10 00 19 	mov  %i1, %o1
   10954:	90 10 00 18 	mov  %i0, %o0
   10958:	91 d0 20 10 	ta  0x10
   1095c:	1a 80 00 03 	bcc  10968 <__open_nocancel+0x30>
   10960:	b0 10 00 08 	mov  %o0, %i0
   10964:	b0 20 00 08 	neg  %o0, %i0
   10968:	80 a6 30 00 	cmp  %i0, -4096
   1096c:	08 80 00 07 	bleu  10988 <__open_nocancel+0x50>
   10970:	03 00 00 00 	sethi  %hi(0), %g1
   10974:	b0 20 00 18 	neg  %i0
   10978:	82 18 7f f8 	xor  %g1, -8, %g1
   1097c:	ae 10 00 01 	mov  %g1, %l7
   10980:	f0 21 c0 17 	st  %i0, [ %g7 + %l7 ]
   10984:	b0 10 3f ff 	mov  -1, %i0
   10988:	81 c7 e0 08 	ret 
   1098c:	81 e8 00 00 	restore 

00010990 <__open2_nocancel>:
   10990:	9d e3 bf a0 	save  %sp, -96, %sp
   10994:	2f 00 00 bd 	sethi  %hi(0x2f400), %l7
   10998:	7f ff ff a3 	call  10824 <__sparc_get_pc_thunk.l7>
   1099c:	ae 05 e1 34 	add  %l7, 0x134, %l7	! 2f534 <__FRAME_END__+0x6e3c>
   109a0:	82 10 20 05 	mov  5, %g1
   109a4:	92 10 00 19 	mov  %i1, %o1
   109a8:	90 10 00 18 	mov  %i0, %o0
   109ac:	91 d0 20 10 	ta  0x10
   109b0:	1a 80 00 03 	bcc  109bc <__open2_nocancel+0x2c>
   109b4:	b0 10 00 08 	mov  %o0, %i0
   109b8:	b0 20 00 08 	neg  %o0, %i0
   109bc:	80 a6 30 00 	cmp  %i0, -4096
   109c0:	08 80 00 07 	bleu  109dc <__open2_nocancel+0x4c>
   109c4:	03 00 00 00 	sethi  %hi(0), %g1
   109c8:	b0 20 00 18 	neg  %i0
   109cc:	82 18 7f f8 	xor  %g1, -8, %g1
   109d0:	ae 10 00 01 	mov  %g1, %l7
   109d4:	f0 21 c0 17 	st  %i0, [ %g7 + %l7 ]
   109d8:	b0 10 3f ff 	mov  -1, %i0
   109dc:	81 c7 e0 08 	ret 
   109e0:	81 e8 00 00 	restore 

000109e4 <__GI_open>:
   109e4:	9d e3 bf 90 	save  %sp, -112, %sp
   109e8:	f4 27 a0 4c 	st  %i2, [ %fp + 0x4c ]
   109ec:	f6 27 a0 50 	st  %i3, [ %fp + 0x50 ]
   109f0:	f8 27 a0 54 	st  %i4, [ %fp + 0x54 ]
   109f4:	fa 27 a0 58 	st  %i5, [ %fp + 0x58 ]
   109f8:	03 00 80 00 	sethi  %hi(0x2000000), %g1
   109fc:	2f 00 00 bd 	sethi  %hi(0x2f400), %l7
   10a00:	7f ff ff 89 	call  10824 <__sparc_get_pc_thunk.l7>
   10a04:	ae 05 e0 cc 	add  %l7, 0xcc, %l7	! 2f4cc <__FRAME_END__+0x6dd4>
   10a08:	82 10 62 00 	or  %g1, 0x200, %g1
   10a0c:	80 8e 40 01 	btst  %i1, %g1
   10a10:	02 80 00 05 	be  10a24 <__GI_open+0x40>
   10a14:	94 10 20 00 	clr  %o2
   10a18:	82 07 a0 4c 	add  %fp, 0x4c, %g1
   10a1c:	94 10 00 1a 	mov  %i2, %o2
   10a20:	c2 27 bf fc 	st  %g1, [ %fp + -4 ]
   10a24:	03 00 00 3f 	sethi  %hi(0xfc00), %g1
   10a28:	82 10 63 ff 	or  %g1, 0x3ff, %g1	! ffff <__libc_h_errno+0xfffb>
   10a2c:	94 0a 80 01 	and  %o2, %g1, %o2
   10a30:	c2 01 e0 0c 	ld  [ %g7 + 0xc ], %g1
   10a34:	80 a0 60 00 	cmp  %g1, 0
   10a38:	12 80 00 11 	bne  10a7c <__GI_open+0x98>
   10a3c:	82 10 20 05 	mov  5, %g1
   10a40:	92 10 00 19 	mov  %i1, %o1
   10a44:	90 10 00 18 	mov  %i0, %o0
   10a48:	91 d0 20 10 	ta  0x10
   10a4c:	1a 80 00 03 	bcc  10a58 <__GI_open+0x74>
   10a50:	b0 10 00 08 	mov  %o0, %i0
   10a54:	b0 20 00 08 	neg  %o0, %i0
   10a58:	80 a6 30 00 	cmp  %i0, -4096
   10a5c:	08 80 00 1d 	bleu  10ad0 <__GI_open+0xec>
   10a60:	03 00 00 00 	sethi  %hi(0), %g1
   10a64:	b0 20 00 18 	neg  %i0
   10a68:	82 18 7f f8 	xor  %g1, -8, %g1
   10a6c:	01 00 00 00 	nop 
   10a70:	f0 21 c0 01 	st  %i0, [ %g7 + %g1 ]
   10a74:	81 c7 e0 08 	ret 
   10a78:	91 e8 3f ff 	restore  %g0, -1, %o0
   10a7c:	40 00 16 3f 	call  16378 <__libc_enable_asynccancel>
   10a80:	d4 27 bf f4 	st  %o2, [ %fp + -12 ]
   10a84:	82 10 20 05 	mov  5, %g1
   10a88:	84 10 00 08 	mov  %o0, %g2
   10a8c:	d4 07 bf f4 	ld  [ %fp + -12 ], %o2
   10a90:	92 10 00 19 	mov  %i1, %o1
   10a94:	90 10 00 18 	mov  %i0, %o0
   10a98:	91 d0 20 10 	ta  0x10
   10a9c:	1a 80 00 03 	bcc  10aa8 <__GI_open+0xc4>
   10aa0:	b0 10 00 08 	mov  %o0, %i0
   10aa4:	b0 20 00 08 	neg  %o0, %i0
   10aa8:	80 a6 30 00 	cmp  %i0, -4096
   10aac:	08 80 00 07 	bleu  10ac8 <__GI_open+0xe4>
   10ab0:	03 00 00 00 	sethi  %hi(0), %g1
   10ab4:	b0 20 00 18 	neg  %i0
   10ab8:	82 18 7f f8 	xor  %g1, -8, %g1
   10abc:	ae 10 00 01 	mov  %g1, %l7
   10ac0:	f0 21 c0 17 	st  %i0, [ %g7 + %l7 ]
   10ac4:	b0 10 3f ff 	mov  -1, %i0
   10ac8:	40 00 16 69 	call  1646c <__libc_disable_asynccancel>
   10acc:	90 10 00 02 	mov  %g2, %o0
   10ad0:	81 c7 e0 08 	ret 
   10ad4:	81 e8 00 00 	restore 

00010ad8 <__write_nocancel>:
   10ad8:	9d e3 bf a0 	save  %sp, -96, %sp
   10adc:	2f 00 00 bc 	sethi  %hi(0x2f000), %l7
   10ae0:	7f ff ff 51 	call  10824 <__sparc_get_pc_thunk.l7>
   10ae4:	ae 05 e3 ec 	add  %l7, 0x3ec, %l7	! 2f3ec <__FRAME_END__+0x6cf4>
   10ae8:	82 10 20 04 	mov  4, %g1
   10aec:	94 10 00 1a 	mov  %i2, %o2
   10af0:	92 10 00 19 	mov  %i1, %o1
   10af4:	90 10 00 18 	mov  %i0, %o0
   10af8:	91 d0 20 10 	ta  0x10
   10afc:	1a 80 00 03 	bcc  10b08 <__write_nocancel+0x30>
   10b00:	b0 10 00 08 	mov  %o0, %i0
   10b04:	b0 20 00 08 	neg  %o0, %i0
   10b08:	80 a6 30 00 	cmp  %i0, -4096
   10b0c:	08 80 00 07 	bleu  10b28 <__write_nocancel+0x50>
   10b10:	03 00 00 00 	sethi  %hi(0), %g1
   10b14:	b0 20 00 18 	neg  %i0
   10b18:	82 18 7f f8 	xor  %g1, -8, %g1
   10b1c:	ae 10 00 01 	mov  %g1, %l7
   10b20:	f0 21 c0 17 	st  %i0, [ %g7 + %l7 ]
   10b24:	b0 10 3f ff 	mov  -1, %i0
   10b28:	81 c7 e0 08 	ret 
   10b2c:	81 e8 00 00 	restore 

00010b30 <write>:
   10b30:	9d e3 bf a0 	save  %sp, -96, %sp
   10b34:	c2 01 e0 0c 	ld  [ %g7 + 0xc ], %g1
   10b38:	80 a0 60 00 	cmp  %g1, 0
   10b3c:	12 80 00 04 	bne  10b4c <write+0x1c>
   10b40:	01 00 00 00 	nop 
   10b44:	10 bf ff e5 	b  10ad8 <__write_nocancel>
   10b48:	81 e8 00 00 	restore 
   10b4c:	40 00 16 0b 	call  16378 <__libc_enable_asynccancel>
   10b50:	01 00 00 00 	nop 
   10b54:	94 10 00 1a 	mov  %i2, %o2
   10b58:	ba 10 00 08 	mov  %o0, %i5
   10b5c:	92 10 00 19 	mov  %i1, %o1
   10b60:	7f ff ff de 	call  10ad8 <__write_nocancel>
   10b64:	90 10 00 18 	mov  %i0, %o0
   10b68:	b0 10 00 08 	mov  %o0, %i0
   10b6c:	40 00 16 40 	call  1646c <__libc_disable_asynccancel>
   10b70:	90 10 00 1d 	mov  %i5, %o0
   10b74:	81 c7 e0 08 	ret 
   10b78:	81 e8 00 00 	restore 

00010b7c <__errno_location>:
   10b7c:	9d e3 bf a0 	save  %sp, -96, %sp
   10b80:	2f 00 00 bc 	sethi  %hi(0x2f000), %l7
   10b84:	7f ff ff 28 	call  10824 <__sparc_get_pc_thunk.l7>
   10b88:	ae 05 e3 48 	add  %l7, 0x348, %l7	! 2f348 <__FRAME_END__+0x6c50>
   10b8c:	03 00 00 00 	sethi  %hi(0), %g1
   10b90:	82 18 7f f8 	xor  %g1, -8, %g1
   10b94:	b0 10 00 01 	mov  %g1, %i0
   10b98:	81 c7 e0 08 	ret 
   10b9c:	91 e9 c0 18 	restore  %g7, %i0, %o0

00010ba0 <__GI_snprintf>:
   10ba0:	9d e3 bf 98 	save  %sp, -104, %sp
   10ba4:	96 07 a0 50 	add  %fp, 0x50, %o3
   10ba8:	f6 27 a0 50 	st  %i3, [ %fp + 0x50 ]
   10bac:	f8 27 a0 54 	st  %i4, [ %fp + 0x54 ]
   10bb0:	fa 27 a0 58 	st  %i5, [ %fp + 0x58 ]
   10bb4:	d6 27 bf fc 	st  %o3, [ %fp + -4 ]
   10bb8:	94 10 00 1a 	mov  %i2, %o2
   10bbc:	92 10 00 19 	mov  %i1, %o1
   10bc0:	40 00 00 32 	call  10c88 <__GI_vsnprintf>
   10bc4:	90 10 00 18 	mov  %i0, %o0
   10bc8:	81 c7 e0 08 	ret 
   10bcc:	91 e8 00 08 	restore  %g0, %o0, %o0

00010bd0 <dprintf>:
   10bd0:	9d e3 bf 98 	save  %sp, -104, %sp
   10bd4:	94 07 a0 4c 	add  %fp, 0x4c, %o2
   10bd8:	f4 27 a0 4c 	st  %i2, [ %fp + 0x4c ]
   10bdc:	f6 27 a0 50 	st  %i3, [ %fp + 0x50 ]
   10be0:	f8 27 a0 54 	st  %i4, [ %fp + 0x54 ]
   10be4:	fa 27 a0 58 	st  %i5, [ %fp + 0x58 ]
   10be8:	d4 27 bf fc 	st  %o2, [ %fp + -4 ]
   10bec:	92 10 00 19 	mov  %i1, %o1
   10bf0:	40 00 00 04 	call  10c00 <__GI_vdprintf>
   10bf4:	90 10 00 18 	mov  %i0, %o0
   10bf8:	81 c7 e0 08 	ret 
   10bfc:	91 e8 00 08 	restore  %g0, %o0, %o0

00010c00 <__GI_vdprintf>:
   10c00:	9d e3 bf 18 	save  %sp, -232, %sp
   10c04:	82 07 bf 78 	add  %fp, -136, %g1
   10c08:	c2 27 bf c0 	st  %g1, [ %fp + -64 ]
   10c0c:	c2 27 bf d0 	st  %g1, [ %fp + -48 ]
   10c10:	c2 27 bf d4 	st  %g1, [ %fp + -44 ]
   10c14:	c2 27 bf c8 	st  %g1, [ %fp + -56 ]
   10c18:	c2 27 bf cc 	st  %g1, [ %fp + -52 ]
   10c1c:	82 10 20 d0 	mov  0xd0, %g1
   10c20:	c2 37 bf b8 	sth  %g1, [ %fp + -72 ]
   10c24:	82 10 20 01 	mov  1, %g1
   10c28:	ba 07 bf b8 	add  %fp, -72, %i5
   10c2c:	f0 27 bf bc 	st  %i0, [ %fp + -68 ]
   10c30:	fa 27 bf c4 	st  %i5, [ %fp + -60 ]
   10c34:	c0 2f bf ba 	clrb  [ %fp + -70 ]
   10c38:	c0 27 bf e4 	clr  [ %fp + -28 ]
   10c3c:	c2 27 bf f0 	st  %g1, [ %fp + -16 ]
   10c40:	c0 27 bf f4 	clr  [ %fp + -12 ]
   10c44:	c0 27 bf f8 	clr  [ %fp + -8 ]
   10c48:	c0 27 bf fc 	clr  [ %fp + -4 ]
   10c4c:	c0 27 bf d8 	clr  [ %fp + -40 ]
   10c50:	94 10 00 1a 	mov  %i2, %o2
   10c54:	92 10 00 19 	mov  %i1, %o1
   10c58:	40 00 00 65 	call  10dec <_vfprintf_internal>
   10c5c:	90 10 00 1d 	mov  %i5, %o0
   10c60:	b0 92 20 00 	orcc  %o0, 0, %i0
   10c64:	04 80 00 07 	ble  10c80 <__GI_vdprintf+0x80>
   10c68:	01 00 00 00 	nop 
   10c6c:	40 00 05 24 	call  120fc <__GI_fflush_unlocked>
   10c70:	90 10 00 1d 	mov  %i5, %o0
   10c74:	80 a2 20 00 	cmp  %o0, 0
   10c78:	32 80 00 02 	bne,a   10c80 <__GI_vdprintf+0x80>
   10c7c:	b0 10 3f ff 	mov  -1, %i0
   10c80:	81 c7 e0 08 	ret 
   10c84:	81 e8 00 00 	restore 

00010c88 <__GI_vsnprintf>:
   10c88:	9d e3 bf 58 	save  %sp, -168, %sp
   10c8c:	82 10 3f fd 	mov  -3, %g1
   10c90:	c2 27 bf bc 	st  %g1, [ %fp + -68 ]
   10c94:	82 10 20 d0 	mov  0xd0, %g1
   10c98:	c0 2f bf ba 	clrb  [ %fp + -70 ]
   10c9c:	c2 37 bf b8 	sth  %g1, [ %fp + -72 ]
   10ca0:	c0 27 bf e4 	clr  [ %fp + -28 ]
   10ca4:	82 10 20 01 	mov  1, %g1
   10ca8:	c0 27 bf f4 	clr  [ %fp + -12 ]
   10cac:	c2 27 bf f0 	st  %g1, [ %fp + -16 ]
   10cb0:	c0 27 bf f8 	clr  [ %fp + -8 ]
   10cb4:	c0 27 bf fc 	clr  [ %fp + -4 ]
   10cb8:	ba 38 00 18 	xnor  %g0, %i0, %i5
   10cbc:	80 a7 40 19 	cmp  %i5, %i1
   10cc0:	08 80 00 03 	bleu  10ccc <__GI_vsnprintf+0x44>
   10cc4:	c0 27 bf d8 	clr  [ %fp + -40 ]
   10cc8:	ba 10 00 19 	mov  %i1, %i5
   10ccc:	82 06 00 1d 	add  %i0, %i5, %g1
   10cd0:	f0 27 bf c0 	st  %i0, [ %fp + -64 ]
   10cd4:	f0 27 bf c8 	st  %i0, [ %fp + -56 ]
   10cd8:	f0 27 bf cc 	st  %i0, [ %fp + -52 ]
   10cdc:	f0 27 bf d0 	st  %i0, [ %fp + -48 ]
   10ce0:	c2 27 bf c4 	st  %g1, [ %fp + -60 ]
   10ce4:	c2 27 bf d4 	st  %g1, [ %fp + -44 ]
   10ce8:	94 10 00 1b 	mov  %i3, %o2
   10cec:	92 10 00 1a 	mov  %i2, %o1
   10cf0:	40 00 00 3f 	call  10dec <_vfprintf_internal>
   10cf4:	90 07 bf b8 	add  %fp, -72, %o0
   10cf8:	80 a7 60 00 	cmp  %i5, 0
   10cfc:	02 80 00 0b 	be  10d28 <__GI_vsnprintf+0xa0>
   10d00:	b0 10 00 08 	mov  %o0, %i0
   10d04:	c2 07 bf c8 	ld  [ %fp + -56 ], %g1
   10d08:	c4 07 bf c4 	ld  [ %fp + -60 ], %g2
   10d0c:	80 a0 40 02 	cmp  %g1, %g2
   10d10:	32 80 00 06 	bne,a   10d28 <__GI_vsnprintf+0xa0>
   10d14:	c0 28 40 00 	clrb  [ %g1 ]
   10d18:	82 00 7f ff 	add  %g1, -1, %g1
   10d1c:	c2 27 bf c8 	st  %g1, [ %fp + -56 ]
   10d20:	c2 07 bf c8 	ld  [ %fp + -56 ], %g1
   10d24:	c0 28 40 00 	clrb  [ %g1 ]
   10d28:	81 c7 e0 08 	ret 
   10d2c:	81 e8 00 00 	restore 

00010d30 <_charpad>:
   10d30:	9d e3 bf 98 	save  %sp, -104, %sp
   10d34:	f2 2f bf f8 	stb  %i1, [ %fp + -8 ]
   10d38:	ba 10 00 1a 	mov  %i2, %i5
   10d3c:	b8 07 bf f8 	add  %fp, -8, %i4
   10d40:	80 a7 60 00 	cmp  %i5, 0
   10d44:	02 80 00 08 	be  10d64 <_charpad+0x34>
   10d48:	94 10 00 18 	mov  %i0, %o2
   10d4c:	92 10 20 01 	mov  1, %o1
   10d50:	40 00 26 1e 	call  1a5c8 <__stdio_fwrite>
   10d54:	90 10 00 1c 	mov  %i4, %o0
   10d58:	80 a2 20 01 	cmp  %o0, 1
   10d5c:	22 bf ff f9 	be,a   10d40 <_charpad+0x10>
   10d60:	ba 07 7f ff 	add  %i5, -1, %i5
   10d64:	b0 26 80 1d 	sub  %i2, %i5, %i0
   10d68:	81 c7 e0 08 	ret 
   10d6c:	81 e8 00 00 	restore 

00010d70 <_fp_out_narrow>:
   10d70:	9d e3 bf a0 	save  %sp, -96, %sp
   10d74:	80 8e 60 80 	btst  0x80, %i1
   10d78:	02 80 00 1a 	be  10de0 <_fp_out_narrow+0x70>
   10d7c:	b8 10 00 18 	mov  %i0, %i4
   10d80:	40 00 0d 20 	call  14200 <__GI_strlen>
   10d84:	90 10 00 1b 	mov  %i3, %o0
   10d88:	b0 10 20 00 	clr  %i0
   10d8c:	b4 26 80 08 	sub  %i2, %o0, %i2
   10d90:	80 a6 a0 00 	cmp  %i2, 0
   10d94:	04 80 00 09 	ble  10db8 <_fp_out_narrow+0x48>
   10d98:	ba 10 00 08 	mov  %o0, %i5
   10d9c:	94 10 00 1a 	mov  %i2, %o2
   10da0:	92 0e 60 7f 	and  %i1, 0x7f, %o1
   10da4:	7f ff ff e3 	call  10d30 <_charpad>
   10da8:	90 10 00 1c 	mov  %i4, %o0
   10dac:	80 a6 80 08 	cmp  %i2, %o0
   10db0:	12 80 00 0a 	bne  10dd8 <_fp_out_narrow+0x68>
   10db4:	b0 10 00 08 	mov  %o0, %i0
   10db8:	80 a7 60 00 	cmp  %i5, 0
   10dbc:	04 80 00 06 	ble  10dd4 <_fp_out_narrow+0x64>
   10dc0:	90 10 20 00 	clr  %o0
   10dc4:	94 10 00 1c 	mov  %i4, %o2
   10dc8:	92 10 00 1d 	mov  %i5, %o1
   10dcc:	40 00 25 ff 	call  1a5c8 <__stdio_fwrite>
   10dd0:	90 10 00 1b 	mov  %i3, %o0
   10dd4:	b0 06 00 08 	add  %i0, %o0, %i0
   10dd8:	81 c7 e0 08 	ret 
   10ddc:	81 e8 00 00 	restore 
   10de0:	ba 10 00 1a 	mov  %i2, %i5
   10de4:	10 bf ff f5 	b  10db8 <_fp_out_narrow+0x48>
   10de8:	b0 10 20 00 	clr  %i0

00010dec <_vfprintf_internal>:
   10dec:	9d e3 be 60 	save  %sp, -416, %sp
   10df0:	2f 00 00 bc 	sethi  %hi(0x2f000), %l7
   10df4:	7f ff fe 8c 	call  10824 <__sparc_get_pc_thunk.l7>
   10df8:	ae 05 e0 d8 	add  %l7, 0xd8, %l7	! 2f0d8 <__FRAME_END__+0x69e0>
   10dfc:	a2 07 bf 68 	add  %fp, -152, %l1
   10e00:	92 10 00 19 	mov  %i1, %o1
   10e04:	90 10 00 11 	mov  %l1, %o0
   10e08:	40 00 01 af 	call  114c4 <_ppfs_init>
   10e0c:	a0 10 00 18 	mov  %i0, %l0
   10e10:	80 a2 20 00 	cmp  %o0, 0
   10e14:	16 80 00 0c 	bge  10e44 <_vfprintf_internal+0x58>
   10e18:	fa 07 bf 68 	ld  [ %fp + -152 ], %i5
   10e1c:	40 00 0c f9 	call  14200 <__GI_strlen>
   10e20:	90 10 00 1d 	mov  %i5, %o0
   10e24:	92 92 20 00 	orcc  %o0, 0, %o1
   10e28:	12 80 00 04 	bne  10e38 <_vfprintf_internal+0x4c>
   10e2c:	94 10 00 18 	mov  %i0, %o2
   10e30:	81 c7 e0 08 	ret 
   10e34:	91 e8 3f ff 	restore  %g0, -1, %o0
   10e38:	40 00 25 e4 	call  1a5c8 <__stdio_fwrite>
   10e3c:	90 10 00 1d 	mov  %i5, %o0
   10e40:	30 bf ff fc 	b,a   10e30 <_vfprintf_internal+0x44>
   10e44:	92 10 00 1a 	mov  %i2, %o1
   10e48:	40 00 01 e9 	call  115ec <_ppfs_prepargs>
   10e4c:	90 10 00 11 	mov  %l1, %o0
   10e50:	82 07 be cc 	add  %fp, -308, %g1
   10e54:	35 0f ff ff 	sethi  %hi(0x3ffffc00), %i2
   10e58:	25 07 ff ff 	sethi  %hi(0x1ffffc00), %l2
   10e5c:	90 10 00 19 	mov  %i1, %o0
   10e60:	b0 10 20 00 	clr  %i0
   10e64:	c2 27 be c4 	st  %g1, [ %fp + -316 ]
   10e68:	aa 07 be c8 	add  %fp, -312, %l5
   10e6c:	a6 07 be e8 	add  %fp, -280, %l3
   10e70:	b4 16 a3 ff 	or  %i2, 0x3ff, %i2
   10e74:	a4 14 a3 ff 	or  %l2, 0x3ff, %l2
   10e78:	c2 0e 40 00 	ldub  [ %i1 ], %g1
   10e7c:	80 a0 60 00 	cmp  %g1, 0
   10e80:	02 80 00 04 	be  10e90 <_vfprintf_internal+0xa4>
   10e84:	80 a0 60 25 	cmp  %g1, 0x25
   10e88:	32 bf ff fc 	bne,a   10e78 <_vfprintf_internal+0x8c>
   10e8c:	b2 06 60 01 	inc  %i1
   10e90:	80 a6 40 08 	cmp  %i1, %o0
   10e94:	02 80 00 0b 	be  10ec0 <_vfprintf_internal+0xd4>
   10e98:	ba 26 40 08 	sub  %i1, %o0, %i5
   10e9c:	80 a7 60 00 	cmp  %i5, 0
   10ea0:	04 bf ff e4 	ble  10e30 <_vfprintf_internal+0x44>
   10ea4:	94 10 00 10 	mov  %l0, %o2
   10ea8:	40 00 25 c8 	call  1a5c8 <__stdio_fwrite>
   10eac:	92 10 00 1d 	mov  %i5, %o1
   10eb0:	80 a7 40 08 	cmp  %i5, %o0
   10eb4:	12 bf ff df 	bne  10e30 <_vfprintf_internal+0x44>
   10eb8:	01 00 00 00 	nop 
   10ebc:	b0 06 00 1d 	add  %i0, %i5, %i0
   10ec0:	c2 0e 40 00 	ldub  [ %i1 ], %g1
   10ec4:	80 a0 60 00 	cmp  %g1, 0
   10ec8:	02 80 01 7d 	be  114bc <_vfprintf_internal+0x6d0>
   10ecc:	90 06 60 01 	add  %i1, 1, %o0
   10ed0:	c2 0e 60 01 	ldub  [ %i1 + 1 ], %g1
   10ed4:	80 a0 60 25 	cmp  %g1, 0x25
   10ed8:	02 bf ff e8 	be  10e78 <_vfprintf_internal+0x8c>
   10edc:	b2 06 60 02 	add  %i1, 2, %i1
   10ee0:	d0 27 bf 68 	st  %o0, [ %fp + -152 ]
   10ee4:	c0 27 be c8 	clr  [ %fp + -312 ]
   10ee8:	40 00 02 59 	call  1184c <_ppfs_parsespec>
   10eec:	90 10 00 11 	mov  %l1, %o0
   10ef0:	40 00 01 ce 	call  11628 <_ppfs_setargs>
   10ef4:	90 10 00 11 	mov  %l1, %o0
   10ef8:	c2 07 bf 80 	ld  [ %fp + -128 ], %g1
   10efc:	c4 0f bf 8e 	ldub  [ %fp + -114 ], %g2
   10f00:	80 a0 60 00 	cmp  %g1, 0
   10f04:	04 80 00 05 	ble  10f18 <_vfprintf_internal+0x12c>
   10f08:	86 07 bf b8 	add  %fp, -72, %g3
   10f0c:	82 00 80 12 	add  %g2, %l2, %g1
   10f10:	83 28 60 03 	sll  %g1, 3, %g1
   10f14:	86 00 c0 01 	add  %g3, %g1, %g3
   10f18:	fa 07 bf 84 	ld  [ %fp + -124 ], %i5
   10f1c:	82 10 20 00 	clr  %g1
   10f20:	b8 07 be d4 	add  %fp, -300, %i4
   10f24:	89 28 60 03 	sll  %g1, 3, %g4
   10f28:	80 a0 40 1d 	cmp  %g1, %i5
   10f2c:	06 80 00 10 	bl  10f6c <_vfprintf_internal+0x180>
   10f30:	88 00 c0 04 	add  %g3, %g4, %g4
   10f34:	c2 07 bf 88 	ld  [ %fp + -120 ], %g1
   10f38:	80 a0 60 00 	cmp  %g1, 0
   10f3c:	12 80 00 10 	bne  10f7c <_vfprintf_internal+0x190>
   10f40:	80 a0 60 07 	cmp  %g1, 7
   10f44:	c2 07 be d4 	ld  [ %fp + -300 ], %g1
   10f48:	d2 07 bf 78 	ld  [ %fp + -136 ], %o1
   10f4c:	95 3e 20 1f 	sra  %i0, 0x1f, %o2
   10f50:	96 10 00 18 	mov  %i0, %o3
   10f54:	92 0a 6f 00 	and  %o1, 0xf00, %o1
   10f58:	40 00 26 d7 	call  1aab4 <_store_inttype>
   10f5c:	d0 00 40 00 	ld  [ %g1 ], %o0
   10f60:	f2 07 bf 68 	ld  [ %fp + -152 ], %i1
   10f64:	10 bf ff c5 	b  10e78 <_vfprintf_internal+0x8c>
   10f68:	90 10 00 19 	mov  %i1, %o0
   10f6c:	b7 28 60 02 	sll  %g1, 2, %i3
   10f70:	82 00 60 01 	inc  %g1
   10f74:	10 bf ff ec 	b  10f24 <_vfprintf_internal+0x138>
   10f78:	c8 26 c0 1c 	st  %g4, [ %i3 + %i4 ]
   10f7c:	18 80 00 b1 	bgu  11240 <_vfprintf_internal+0x454>
   10f80:	80 a0 60 0f 	cmp  %g1, 0xf
   10f84:	07 00 00 82 	sethi  %hi(0x20800), %g3
   10f88:	86 18 ff 3c 	xor  %g3, -196, %g3
   10f8c:	86 05 c0 03 	add  %l7, %g3, %g3
   10f90:	86 00 c0 01 	add  %g3, %g1, %g3
   10f94:	f8 08 ff ff 	ldub  [ %g3 + -1 ], %i4
   10f98:	80 a7 20 0a 	cmp  %i4, 0xa
   10f9c:	12 80 00 0a 	bne  10fc4 <_vfprintf_internal+0x1d8>
   10fa0:	ba 10 20 57 	mov  0x57, %i5
   10fa4:	c6 07 bf 78 	ld  [ %fp + -136 ], %g3
   10fa8:	80 88 e0 20 	btst  0x20, %g3
   10fac:	12 80 00 03 	bne  10fb8 <_vfprintf_internal+0x1cc>
   10fb0:	ba 10 20 2c 	mov  0x2c, %i5
   10fb4:	ba 10 20 57 	mov  0x57, %i5
   10fb8:	80 88 e0 40 	btst  0x40, %g3
   10fbc:	32 80 00 02 	bne,a   10fc4 <_vfprintf_internal+0x1d8>
   10fc0:	ba 17 60 80 	or  %i5, 0x80, %i5
   10fc4:	80 a0 60 05 	cmp  %g1, 5
   10fc8:	38 80 00 07 	bgu,a   10fe4 <_vfprintf_internal+0x1f8>
   10fcc:	b8 20 00 1c 	neg  %i4
   10fd0:	80 a0 60 03 	cmp  %g1, 3
   10fd4:	02 80 00 40 	be  110d4 <_vfprintf_internal+0x2e8>
   10fd8:	80 a0 60 01 	cmp  %g1, 1
   10fdc:	02 80 00 03 	be  10fe8 <_vfprintf_internal+0x1fc>
   10fe0:	b6 10 20 06 	mov  6, %i3
   10fe4:	b6 10 20 0b 	mov  0xb, %i3
   10fe8:	c6 07 bf 6c 	ld  [ %fp + -148 ], %g3
   10fec:	80 a0 e0 00 	cmp  %g3, 0
   10ff0:	16 80 00 03 	bge  10ffc <_vfprintf_internal+0x210>
   10ff4:	b2 10 20 20 	mov  0x20, %i1
   10ff8:	f2 0f bf 7f 	ldub  [ %fp + -129 ], %i1
   10ffc:	80 a0 60 01 	cmp  %g1, 1
   11000:	02 80 00 07 	be  1101c <_vfprintf_internal+0x230>
   11004:	90 10 24 00 	mov  0x400, %o0
   11008:	84 00 80 1a 	add  %g2, %i2, %g2
   1100c:	85 28 a0 02 	sll  %g2, 2, %g2
   11010:	84 07 80 02 	add  %fp, %g2, %g2
   11014:	d0 00 bf 90 	ld  [ %g2 + -112 ], %o0
   11018:	90 0a 2f 00 	and  %o0, 0xf00, %o0
   1101c:	94 10 00 1c 	mov  %i4, %o2
   11020:	40 00 26 7f 	call  1aa1c <_load_inttype>
   11024:	d2 07 be d4 	ld  [ %fp + -300 ], %o1
   11028:	98 10 00 1d 	mov  %i5, %o4
   1102c:	94 10 00 09 	mov  %o1, %o2
   11030:	a8 07 bf 67 	add  %fp, -153, %l4
   11034:	92 10 00 08 	mov  %o0, %o1
   11038:	96 10 00 1c 	mov  %i4, %o3
   1103c:	40 00 26 b1 	call  1ab00 <_uintmaxtostr>
   11040:	90 10 00 14 	mov  %l4, %o0
   11044:	c2 07 bf 88 	ld  [ %fp + -120 ], %g1
   11048:	80 a0 60 05 	cmp  %g1, 5
   1104c:	08 80 00 0a 	bleu  11074 <_vfprintf_internal+0x288>
   11050:	ba 10 00 08 	mov  %o0, %i5
   11054:	c4 0a 00 00 	ldub  [ %o0 ], %g2
   11058:	80 a0 a0 2d 	cmp  %g2, 0x2d
   1105c:	12 80 00 21 	bne  110e0 <_vfprintf_internal+0x2f4>
   11060:	c6 07 bf 78 	ld  [ %fp + -136 ], %g3
   11064:	86 10 e0 02 	or  %g3, 2, %g3
   11068:	ba 02 20 01 	add  %o0, 1, %i5
   1106c:	c6 27 bf 78 	st  %g3, [ %fp + -136 ]
   11070:	b6 10 20 02 	mov  2, %i3
   11074:	f8 07 bf 6c 	ld  [ %fp + -148 ], %i4
   11078:	80 a7 20 00 	cmp  %i4, 0
   1107c:	16 80 00 03 	bge  11088 <_vfprintf_internal+0x29c>
   11080:	a8 25 00 1d 	sub  %l4, %i5, %l4
   11084:	b8 10 20 01 	mov  1, %i4
   11088:	c6 07 bf 78 	ld  [ %fp + -136 ], %g3
   1108c:	80 88 e0 10 	btst  0x10, %g3
   11090:	02 80 00 1c 	be  11100 <_vfprintf_internal+0x314>
   11094:	c6 0f 40 00 	ldub  [ %i5 ], %g3
   11098:	80 a0 60 02 	cmp  %g1, 2
   1109c:	28 80 01 03 	bleu,a   114a8 <_vfprintf_internal+0x6bc>
   110a0:	b6 10 20 06 	mov  6, %i3
   110a4:	80 a0 60 03 	cmp  %g1, 3
   110a8:	22 80 01 00 	be,a   114a8 <_vfprintf_internal+0x6bc>
   110ac:	b6 10 20 09 	mov  9, %i3
   110b0:	80 a0 60 04 	cmp  %g1, 4
   110b4:	12 80 00 13 	bne  11100 <_vfprintf_internal+0x314>
   110b8:	80 a5 00 1c 	cmp  %l4, %i4
   110bc:	0a 80 00 12 	bcs  11104 <_vfprintf_internal+0x318>
   110c0:	80 a0 e0 30 	cmp  %g3, 0x30
   110c4:	12 80 00 1b 	bne  11130 <_vfprintf_internal+0x344>
   110c8:	b8 05 20 01 	add  %l4, 1, %i4
   110cc:	10 80 00 10 	b  1110c <_vfprintf_internal+0x320>
   110d0:	b8 10 20 01 	mov  1, %i4
   110d4:	b6 10 20 0b 	mov  0xb, %i3
   110d8:	10 bf ff c4 	b  10fe8 <_vfprintf_internal+0x1fc>
   110dc:	ba 10 20 37 	mov  0x37, %i5
   110e0:	80 88 e0 02 	btst  2, %g3
   110e4:	32 bf ff e4 	bne,a   11074 <_vfprintf_internal+0x288>
   110e8:	b6 10 20 00 	clr  %i3
   110ec:	80 88 e0 01 	btst  1, %g3
   110f0:	32 bf ff e1 	bne,a   11074 <_vfprintf_internal+0x288>
   110f4:	b6 10 20 04 	mov  4, %i3
   110f8:	10 bf ff e0 	b  11078 <_vfprintf_internal+0x28c>
   110fc:	f8 07 bf 6c 	ld  [ %fp + -148 ], %i4
   11100:	80 a0 e0 30 	cmp  %g3, 0x30
   11104:	12 80 00 0c 	bne  11134 <_vfprintf_internal+0x348>
   11108:	80 a7 00 14 	cmp  %i4, %l4
   1110c:	80 a6 e0 05 	cmp  %i3, 5
   11110:	04 80 00 04 	ble  11120 <_vfprintf_internal+0x334>
   11114:	80 a0 60 01 	cmp  %g1, 1
   11118:	b6 10 20 0b 	mov  0xb, %i3
   1111c:	80 a0 60 01 	cmp  %g1, 1
   11120:	02 80 00 42 	be  11228 <_vfprintf_internal+0x43c>
   11124:	80 a7 20 00 	cmp  %i4, 0
   11128:	22 80 00 44 	be,a   11238 <_vfprintf_internal+0x44c>
   1112c:	a8 10 20 00 	clr  %l4
   11130:	80 a7 00 14 	cmp  %i4, %l4
   11134:	28 80 00 03 	bleu,a   11140 <_vfprintf_internal+0x354>
   11138:	b8 10 20 00 	clr  %i4
   1113c:	b8 27 00 14 	sub  %i4, %l4, %i4
   11140:	80 a6 e0 0b 	cmp  %i3, 0xb
   11144:	02 80 00 07 	be  11160 <_vfprintf_internal+0x374>
   11148:	82 07 00 14 	add  %i4, %l4, %g1
   1114c:	80 a6 e0 05 	cmp  %i3, 5
   11150:	14 80 00 03 	bg  1115c <_vfprintf_internal+0x370>
   11154:	86 10 20 02 	mov  2, %g3
   11158:	86 10 20 01 	mov  1, %g3
   1115c:	82 00 40 03 	add  %g1, %g3, %g1
   11160:	c6 07 bf 70 	ld  [ %fp + -144 ], %g3
   11164:	80 a0 c0 01 	cmp  %g3, %g1
   11168:	08 80 00 03 	bleu  11174 <_vfprintf_internal+0x388>
   1116c:	ac 10 20 00 	clr  %l6
   11170:	ac 20 c0 01 	sub  %g3, %g1, %l6
   11174:	82 06 00 01 	add  %i0, %g1, %g1
   11178:	b2 0e 60 ff 	and  %i1, 0xff, %i1
   1117c:	80 a6 60 30 	cmp  %i1, 0x30
   11180:	12 80 00 04 	bne  11190 <_vfprintf_internal+0x3a4>
   11184:	b0 00 40 16 	add  %g1, %l6, %i0
   11188:	b8 07 00 16 	add  %i4, %l6, %i4
   1118c:	ac 10 20 00 	clr  %l6
   11190:	c2 07 bf 78 	ld  [ %fp + -136 ], %g1
   11194:	80 88 60 08 	btst  8, %g1
   11198:	12 80 00 0a 	bne  111c0 <_vfprintf_internal+0x3d4>
   1119c:	92 10 00 10 	mov  %l0, %o1
   111a0:	94 10 00 16 	mov  %l6, %o2
   111a4:	92 10 20 20 	mov  0x20, %o1
   111a8:	7f ff fe e2 	call  10d30 <_charpad>
   111ac:	90 10 00 10 	mov  %l0, %o0
   111b0:	80 a5 80 08 	cmp  %l6, %o0
   111b4:	12 bf ff 1f 	bne  10e30 <_vfprintf_internal+0x44>
   111b8:	ac 10 20 00 	clr  %l6
   111bc:	92 10 00 10 	mov  %l0, %o1
   111c0:	11 00 00 81 	sethi  %hi(0x20400), %o0
   111c4:	90 1a 3f 2c 	xor  %o0, -212, %o0
   111c8:	90 05 c0 08 	add  %l7, %o0, %o0
   111cc:	40 00 04 d2 	call  12514 <__GI_fputs_unlocked>
   111d0:	90 02 00 1b 	add  %o0, %i3, %o0
   111d4:	94 10 00 1c 	mov  %i4, %o2
   111d8:	92 10 20 30 	mov  0x30, %o1
   111dc:	7f ff fe d5 	call  10d30 <_charpad>
   111e0:	90 10 00 10 	mov  %l0, %o0
   111e4:	80 a7 00 08 	cmp  %i4, %o0
   111e8:	12 bf ff 12 	bne  10e30 <_vfprintf_internal+0x44>
   111ec:	c2 07 be c8 	ld  [ %fp + -312 ], %g1
   111f0:	80 a0 60 00 	cmp  %g1, 0
   111f4:	32 80 00 97 	bne,a   11450 <_vfprintf_internal+0x664>
   111f8:	c0 27 be cc 	clr  [ %fp + -308 ]
   111fc:	80 a5 20 00 	cmp  %l4, 0
   11200:	12 80 00 8d 	bne  11434 <_vfprintf_internal+0x648>
   11204:	94 10 00 10 	mov  %l0, %o2
   11208:	94 10 00 16 	mov  %l6, %o2
   1120c:	92 10 20 20 	mov  0x20, %o1
   11210:	7f ff fe c8 	call  10d30 <_charpad>
   11214:	90 10 00 10 	mov  %l0, %o0
   11218:	80 a5 80 08 	cmp  %l6, %o0
   1121c:	22 bf ff 52 	be,a   10f64 <_vfprintf_internal+0x178>
   11220:	f2 07 bf 68 	ld  [ %fp + -152 ], %i1
   11224:	30 bf ff 03 	b,a   10e30 <_vfprintf_internal+0x44>
   11228:	3b 00 00 82 	sethi  %hi(0x20800), %i5
   1122c:	a8 10 20 05 	mov  5, %l4
   11230:	ba 1f 7f 2c 	xor  %i5, -212, %i5
   11234:	ba 05 c0 1d 	add  %l7, %i5, %i5
   11238:	10 bf ff c2 	b  11140 <_vfprintf_internal+0x354>
   1123c:	b8 10 20 00 	clr  %i4
   11240:	18 80 00 10 	bgu  11280 <_vfprintf_internal+0x494>
   11244:	80 a0 60 11 	cmp  %g1, 0x11
   11248:	c2 07 be d4 	ld  [ %fp + -300 ], %g1
   1124c:	19 00 00 bc 	sethi  %hi(0x2f000), %o4
   11250:	96 07 bf 6c 	add  %fp, -148, %o3
   11254:	98 1b 3e a4 	xor  %o4, -348, %o4
   11258:	d2 00 40 00 	ld  [ %g1 ], %o1
   1125c:	98 05 c0 0c 	add  %l7, %o4, %o4
   11260:	d4 00 60 04 	ld  [ %g1 + 4 ], %o2
   11264:	40 00 26 9c 	call  1acd4 <_fpmaxtostr>
   11268:	90 10 00 10 	mov  %l0, %o0
   1126c:	80 a2 20 00 	cmp  %o0, 0
   11270:	06 bf fe f0 	bl  10e30 <_vfprintf_internal+0x44>
   11274:	01 00 00 00 	nop 
   11278:	10 bf ff 3a 	b  10f60 <_vfprintf_internal+0x174>
   1127c:	b0 06 00 08 	add  %i0, %o0, %i0
   11280:	38 80 00 24 	bgu,a   11310 <_vfprintf_internal+0x524>
   11284:	80 a0 60 13 	cmp  %g1, 0x13
   11288:	c0 27 be cc 	clr  [ %fp + -308 ]
   1128c:	12 80 00 16 	bne  112e4 <_vfprintf_internal+0x4f8>
   11290:	c2 07 be d4 	ld  [ %fp + -300 ], %g1
   11294:	c4 00 40 00 	ld  [ %g1 ], %g2
   11298:	c4 27 be c8 	st  %g2, [ %fp + -312 ]
   1129c:	80 a0 a0 00 	cmp  %g2, 0
   112a0:	02 80 00 2d 	be  11354 <_vfprintf_internal+0x568>
   112a4:	c2 07 bf 6c 	ld  [ %fp + -148 ], %g1
   112a8:	80 a0 60 00 	cmp  %g1, 0
   112ac:	06 80 00 03 	bl  112b8 <_vfprintf_internal+0x4cc>
   112b0:	94 10 3f ff 	mov  -1, %o2
   112b4:	94 10 00 01 	mov  %g1, %o2
   112b8:	92 07 be c8 	add  %fp, -312, %o1
   112bc:	96 07 be cc 	add  %fp, -308, %o3
   112c0:	40 00 23 c0 	call  1a1c0 <__GI_wcsrtombs>
   112c4:	90 10 00 09 	mov  %o1, %o0
   112c8:	80 a2 3f ff 	cmp  %o0, -1
   112cc:	02 bf fe d9 	be  10e30 <_vfprintf_internal+0x44>
   112d0:	a8 10 00 08 	mov  %o0, %l4
   112d4:	ba 10 20 00 	clr  %i5
   112d8:	b2 10 20 20 	mov  0x20, %i1
   112dc:	10 bf ff d7 	b  11238 <_vfprintf_internal+0x44c>
   112e0:	b6 10 20 0b 	mov  0xb, %i3
   112e4:	ba 07 be e8 	add  %fp, -280, %i5
   112e8:	94 07 be cc 	add  %fp, -308, %o2
   112ec:	d2 00 40 00 	ld  [ %g1 ], %o1
   112f0:	40 00 23 95 	call  1a144 <__GI_wcrtomb>
   112f4:	90 10 00 1d 	mov  %i5, %o0
   112f8:	80 a2 3f ff 	cmp  %o0, -1
   112fc:	02 bf fe cd 	be  10e30 <_vfprintf_internal+0x44>
   11300:	a8 10 00 08 	mov  %o0, %l4
   11304:	82 07 80 08 	add  %fp, %o0, %g1
   11308:	10 bf ff f4 	b  112d8 <_vfprintf_internal+0x4ec>
   1130c:	c0 28 7e e8 	clrb  [ %g1 + -280 ]
   11310:	38 80 00 24 	bgu,a   113a0 <_vfprintf_internal+0x5b4>
   11314:	80 a0 60 14 	cmp  %g1, 0x14
   11318:	c2 07 be d4 	ld  [ %fp + -300 ], %g1
   1131c:	12 80 00 19 	bne  11380 <_vfprintf_internal+0x594>
   11320:	fa 00 40 00 	ld  [ %g1 ], %i5
   11324:	80 a7 60 00 	cmp  %i5, 0
   11328:	02 80 00 0b 	be  11354 <_vfprintf_internal+0x568>
   1132c:	c2 07 bf 6c 	ld  [ %fp + -148 ], %g1
   11330:	c2 07 bf 6c 	ld  [ %fp + -148 ], %g1
   11334:	80 a0 60 00 	cmp  %g1, 0
   11338:	06 80 00 03 	bl  11344 <_vfprintf_internal+0x558>
   1133c:	92 10 3f ff 	mov  -1, %o1
   11340:	92 10 00 01 	mov  %g1, %o1
   11344:	40 00 0b cd 	call  14278 <__GI_strnlen>
   11348:	90 10 00 1d 	mov  %i5, %o0
   1134c:	10 bf ff e3 	b  112d8 <_vfprintf_internal+0x4ec>
   11350:	a8 10 00 08 	mov  %o0, %l4
   11354:	3b 00 00 82 	sethi  %hi(0x20800), %i5
   11358:	b2 10 20 20 	mov  0x20, %i1
   1135c:	ba 1f 7f 34 	xor  %i5, -204, %i5
   11360:	b6 10 20 0b 	mov  0xb, %i3
   11364:	b8 10 20 00 	clr  %i4
   11368:	a8 10 20 06 	mov  6, %l4
   1136c:	80 a0 60 05 	cmp  %g1, 5
   11370:	18 bf ff 74 	bgu  11140 <_vfprintf_internal+0x354>
   11374:	ba 05 c0 1d 	add  %l7, %i5, %i5
   11378:	10 bf ff 72 	b  11140 <_vfprintf_internal+0x354>
   1137c:	a8 10 20 00 	clr  %l4
   11380:	fa 2f be e8 	stb  %i5, [ %fp + -280 ]
   11384:	c0 2f be e9 	clrb  [ %fp + -279 ]
   11388:	ba 07 be e8 	add  %fp, -280, %i5
   1138c:	b2 10 20 20 	mov  0x20, %i1
   11390:	b6 10 20 0b 	mov  0xb, %i3
   11394:	b8 10 20 00 	clr  %i4
   11398:	10 bf ff 6a 	b  11140 <_vfprintf_internal+0x354>
   1139c:	a8 10 20 01 	mov  1, %l4
   113a0:	12 80 00 0b 	bne  113cc <_vfprintf_internal+0x5e0>
   113a4:	03 00 00 00 	sethi  %hi(0), %g1
   113a8:	03 00 00 00 	sethi  %hi(0), %g1
   113ac:	82 18 7f f8 	xor  %g1, -8, %g1
   113b0:	01 00 00 00 	nop 
   113b4:	94 10 20 80 	mov  0x80, %o2	! 80 <__libc_h_errno+0x7c>
   113b8:	92 07 be e8 	add  %fp, -280, %o1
   113bc:	40 00 0b e7 	call  14358 <__GI___glibc_strerror_r>
   113c0:	d0 01 c0 01 	ld  [ %g7 + %g1 ], %o0
   113c4:	10 bf ff db 	b  11330 <_vfprintf_internal+0x544>
   113c8:	ba 10 00 08 	mov  %o0, %i5
   113cc:	82 18 61 54 	xor  %g1, 0x154, %g1
   113d0:	82 05 c0 01 	add  %l7, %g1, %g1
   113d4:	c8 07 bf 74 	ld  [ %fp + -140 ], %g4
   113d8:	c6 00 40 00 	ld  [ %g1 ], %g3
   113dc:	84 00 e0 0a 	add  %g3, 0xa, %g2
   113e0:	82 10 00 03 	mov  %g3, %g1
   113e4:	fa 08 40 00 	ldub  [ %g1 ], %i5
   113e8:	80 a7 40 04 	cmp  %i5, %g4
   113ec:	32 80 00 0e 	bne,a   11424 <_vfprintf_internal+0x638>
   113f0:	82 00 60 01 	inc  %g1
   113f4:	05 00 00 09 	sethi  %hi(0x2400), %g2
   113f8:	84 18 a3 d8 	xor  %g2, 0x3d8, %g2
   113fc:	84 05 c0 02 	add  %l7, %g2, %g2
   11400:	82 20 40 03 	sub  %g1, %g3, %g1
   11404:	94 07 be d4 	add  %fp, -300, %o2
   11408:	83 28 60 02 	sll  %g1, 2, %g1
   1140c:	92 07 bf 6c 	add  %fp, -148, %o1
   11410:	c2 00 80 01 	ld  [ %g2 + %g1 ], %g1
   11414:	9f c0 40 00 	call  %g1
   11418:	90 10 00 10 	mov  %l0, %o0
   1141c:	10 bf ff 95 	b  11270 <_vfprintf_internal+0x484>
   11420:	80 a2 20 00 	cmp  %o0, 0
   11424:	80 a0 40 02 	cmp  %g1, %g2
   11428:	32 bf ff f0 	bne,a   113e8 <_vfprintf_internal+0x5fc>
   1142c:	fa 08 40 00 	ldub  [ %g1 ], %i5
   11430:	30 bf fe 80 	b,a   10e30 <_vfprintf_internal+0x44>
   11434:	92 10 00 14 	mov  %l4, %o1
   11438:	40 00 24 64 	call  1a5c8 <__stdio_fwrite>
   1143c:	90 10 00 1d 	mov  %i5, %o0
   11440:	80 a5 00 08 	cmp  %l4, %o0
   11444:	02 bf ff 72 	be  1120c <_vfprintf_internal+0x420>
   11448:	94 10 00 16 	mov  %l6, %o2
   1144c:	30 bf fe 79 	b,a   10e30 <_vfprintf_internal+0x44>
   11450:	80 a5 20 00 	cmp  %l4, 0
   11454:	02 bf ff 6d 	be  11208 <_vfprintf_internal+0x41c>
   11458:	80 a5 20 80 	cmp  %l4, 0x80
   1145c:	08 80 00 03 	bleu  11468 <_vfprintf_internal+0x67c>
   11460:	94 10 00 14 	mov  %l4, %o2
   11464:	94 10 20 80 	mov  0x80, %o2
   11468:	d6 07 be c4 	ld  [ %fp + -316 ], %o3
   1146c:	92 10 00 15 	mov  %l5, %o1
   11470:	40 00 23 54 	call  1a1c0 <__GI_wcsrtombs>
   11474:	90 10 00 13 	mov  %l3, %o0
   11478:	ba 92 20 00 	orcc  %o0, 0, %i5
   1147c:	12 80 00 04 	bne  1148c <_vfprintf_internal+0x6a0>
   11480:	94 10 00 10 	mov  %l0, %o2
   11484:	10 bf ff f3 	b  11450 <_vfprintf_internal+0x664>
   11488:	a8 25 00 1d 	sub  %l4, %i5, %l4
   1148c:	92 10 00 1d 	mov  %i5, %o1
   11490:	40 00 24 4e 	call  1a5c8 <__stdio_fwrite>
   11494:	90 10 00 13 	mov  %l3, %o0
   11498:	80 a7 40 08 	cmp  %i5, %o0
   1149c:	22 bf ff ed 	be,a   11450 <_vfprintf_internal+0x664>
   114a0:	a8 25 00 1d 	sub  %l4, %i5, %l4
   114a4:	30 bf fe 63 	b,a   10e30 <_vfprintf_internal+0x44>
   114a8:	80 a0 e0 30 	cmp  %g3, 0x30
   114ac:	12 bf ff 22 	bne  11134 <_vfprintf_internal+0x348>
   114b0:	80 a7 00 14 	cmp  %i4, %l4
   114b4:	10 bf ff 1a 	b  1111c <_vfprintf_internal+0x330>
   114b8:	b6 10 20 0b 	mov  0xb, %i3
   114bc:	81 c7 e0 08 	ret 
   114c0:	81 e8 00 00 	restore 

000114c4 <_ppfs_init>:
   114c4:	9d e3 bf 90 	save  %sp, -112, %sp
   114c8:	94 10 20 98 	mov  0x98, %o2
   114cc:	92 10 20 00 	clr  %o1
   114d0:	40 00 0a 03 	call  13cdc <__GI_memset>
   114d4:	90 10 00 18 	mov  %i0, %o0
   114d8:	c2 06 20 18 	ld  [ %i0 + 0x18 ], %g1
   114dc:	82 00 7f ff 	add  %g1, -1, %g1
   114e0:	f2 26 00 00 	st  %i1, [ %i0 ]
   114e4:	40 00 23 03 	call  1a0f0 <__GI___curlocale>
   114e8:	c2 26 20 18 	st  %g1, [ %i0 + 0x18 ]
   114ec:	2f 00 00 ba 	sethi  %hi(0x2e800), %l7
   114f0:	7f ff fc cd 	call  10824 <__sparc_get_pc_thunk.l7>
   114f4:	ae 05 e1 dc 	add  %l7, 0x1dc, %l7	! 2e9dc <__FRAME_END__+0x62e4>
   114f8:	c2 0a 29 2c 	ldub  [ %o0 + 0x92c ], %g1
   114fc:	80 a0 60 00 	cmp  %g1, 0
   11500:	02 80 00 12 	be  11548 <_ppfs_init+0x84>
   11504:	ba 06 20 28 	add  %i0, 0x28, %i5
   11508:	c0 27 bf f8 	clr  [ %fp + -8 ]
   1150c:	f2 27 bf f4 	st  %i1, [ %fp + -12 ]
   11510:	96 07 bf f8 	add  %fp, -8, %o3
   11514:	94 10 3f ff 	mov  -1, %o2
   11518:	92 07 bf f4 	add  %fp, -12, %o1
   1151c:	40 00 23 1d 	call  1a190 <__GI_mbsrtowcs>
   11520:	90 10 20 00 	clr  %o0
   11524:	80 a2 3f ff 	cmp  %o0, -1
   11528:	12 80 00 08 	bne  11548 <_ppfs_init+0x84>
   1152c:	ba 06 20 28 	add  %i0, 0x28, %i5
   11530:	03 00 00 82 	sethi  %hi(0x20800), %g1
   11534:	82 18 7f 44 	xor  %g1, -188, %g1
   11538:	ae 05 c0 01 	add  %l7, %g1, %l7
   1153c:	ee 26 00 00 	st  %l7, [ %i0 ]
   11540:	81 c7 e0 08 	ret 
   11544:	91 e8 3f ff 	restore  %g0, -1, %o0
   11548:	84 06 20 4c 	add  %i0, 0x4c, %g2
   1154c:	82 10 00 1d 	mov  %i5, %g1
   11550:	86 10 20 08 	mov  8, %g3
   11554:	c6 20 40 00 	st  %g3, [ %g1 ]
   11558:	82 00 60 04 	add  %g1, 4, %g1
   1155c:	80 a0 40 02 	cmp  %g1, %g2
   11560:	32 bf ff fe 	bne,a   11558 <_ppfs_init+0x94>
   11564:	c6 20 40 00 	st  %g3, [ %g1 ]
   11568:	82 10 00 19 	mov  %i1, %g1
   1156c:	c6 08 40 00 	ldub  [ %g1 ], %g3
   11570:	80 a0 e0 00 	cmp  %g3, 0
   11574:	12 80 00 09 	bne  11598 <_ppfs_init+0xd4>
   11578:	80 a0 e0 25 	cmp  %g3, 0x25
   1157c:	f2 26 00 00 	st  %i1, [ %i0 ]
   11580:	c2 06 20 18 	ld  [ %i0 + 0x18 ], %g1
   11584:	82 80 7f ff 	addcc  %g1, -1, %g1
   11588:	3c 80 00 14 	bpos,a   115d8 <_ppfs_init+0x114>
   1158c:	c4 07 40 00 	ld  [ %i5 ], %g2
   11590:	81 c7 e0 08 	ret 
   11594:	91 e8 20 00 	restore  %g0, 0, %o0
   11598:	12 80 00 0e 	bne  115d0 <_ppfs_init+0x10c>
   1159c:	c4 08 60 01 	ldub  [ %g1 + 1 ], %g2
   115a0:	84 08 a0 ff 	and  %g2, 0xff, %g2
   115a4:	80 a0 a0 25 	cmp  %g2, 0x25
   115a8:	02 80 00 0a 	be  115d0 <_ppfs_init+0x10c>
   115ac:	82 00 60 01 	inc  %g1
   115b0:	c2 26 00 00 	st  %g1, [ %i0 ]
   115b4:	40 00 00 a6 	call  1184c <_ppfs_parsespec>
   115b8:	90 10 00 18 	mov  %i0, %o0
   115bc:	80 a2 20 00 	cmp  %o0, 0
   115c0:	06 bf ff e0 	bl  11540 <_ppfs_init+0x7c>
   115c4:	01 00 00 00 	nop 
   115c8:	10 bf ff e9 	b  1156c <_ppfs_init+0xa8>
   115cc:	c2 06 00 00 	ld  [ %i0 ], %g1
   115d0:	10 bf ff e7 	b  1156c <_ppfs_init+0xa8>
   115d4:	82 00 60 01 	inc  %g1
   115d8:	80 a0 a0 08 	cmp  %g2, 8
   115dc:	02 bf ff d9 	be  11540 <_ppfs_init+0x7c>
   115e0:	ba 07 60 04 	add  %i5, 4, %i5
   115e4:	10 bf ff e9 	b  11588 <_ppfs_init+0xc4>
   115e8:	82 80 7f ff 	addcc  %g1, -1, %g1

000115ec <_ppfs_prepargs>:
   115ec:	9d e3 bf a0 	save  %sp, -96, %sp
   115f0:	f2 26 20 4c 	st  %i1, [ %i0 + 0x4c ]
   115f4:	fa 06 20 18 	ld  [ %i0 + 0x18 ], %i5
   115f8:	80 a7 60 00 	cmp  %i5, 0
   115fc:	04 80 00 09 	ble  11620 <_ppfs_prepargs+0x34>
   11600:	01 00 00 00 	nop 
   11604:	fa 26 20 1c 	st  %i5, [ %i0 + 0x1c ]
   11608:	c0 26 20 18 	clr  [ %i0 + 0x18 ]
   1160c:	c0 26 20 04 	clr  [ %i0 + 4 ]
   11610:	c0 26 20 08 	clr  [ %i0 + 8 ]
   11614:	40 00 00 05 	call  11628 <_ppfs_setargs>
   11618:	90 10 00 18 	mov  %i0, %o0
   1161c:	fa 26 20 18 	st  %i5, [ %i0 + 0x18 ]
   11620:	81 c7 e0 08 	ret 
   11624:	81 e8 00 00 	restore 

00011628 <_ppfs_setargs>:
   11628:	9d e3 bf 88 	save  %sp, -120, %sp
   1162c:	03 20 00 00 	sethi  %hi(0x80000000), %g1
   11630:	e2 06 20 18 	ld  [ %i0 + 0x18 ], %l1
   11634:	b8 06 20 50 	add  %i0, 0x50, %i4
   11638:	c6 06 20 08 	ld  [ %i0 + 8 ], %g3
   1163c:	80 a4 60 00 	cmp  %l1, 0
   11640:	12 80 00 5a 	bne  117a8 <_ppfs_setargs+0x180>
   11644:	c4 06 20 04 	ld  [ %i0 + 4 ], %g2
   11648:	80 a0 c0 01 	cmp  %g3, %g1
   1164c:	12 80 00 0a 	bne  11674 <_ppfs_setargs+0x4c>
   11650:	80 a0 80 01 	cmp  %g2, %g1
   11654:	c2 06 20 4c 	ld  [ %i0 + 0x4c ], %g1
   11658:	c6 00 40 00 	ld  [ %g1 ], %g3
   1165c:	82 00 60 04 	add  %g1, 4, %g1
   11660:	c6 26 20 50 	st  %g3, [ %i0 + 0x50 ]
   11664:	c2 26 20 4c 	st  %g1, [ %i0 + 0x4c ]
   11668:	c6 26 20 08 	st  %g3, [ %i0 + 8 ]
   1166c:	03 20 00 00 	sethi  %hi(0x80000000), %g1
   11670:	80 a0 80 01 	cmp  %g2, %g1
   11674:	12 80 00 08 	bne  11694 <_ppfs_setargs+0x6c>
   11678:	b6 06 20 24 	add  %i0, 0x24, %i3
   1167c:	c2 06 20 4c 	ld  [ %i0 + 0x4c ], %g1
   11680:	c4 00 40 00 	ld  [ %g1 ], %g2
   11684:	82 00 60 04 	add  %g1, 4, %g1
   11688:	c4 26 20 50 	st  %g2, [ %i0 + 0x50 ]
   1168c:	c2 26 20 4c 	st  %g1, [ %i0 + 0x4c ]
   11690:	c4 26 20 04 	st  %g2, [ %i0 + 4 ]
   11694:	b4 07 bf e8 	add  %fp, -24, %i2
   11698:	b2 07 bf f8 	add  %fp, -8, %i1
   1169c:	a0 07 bf f0 	add  %fp, -16, %l0
   116a0:	c2 06 20 1c 	ld  [ %i0 + 0x1c ], %g1
   116a4:	80 a0 40 11 	cmp  %g1, %l1
   116a8:	34 80 00 0f 	bg,a   116e4 <_ppfs_setargs+0xbc>
   116ac:	a2 04 60 01 	inc  %l1
   116b0:	c2 06 20 08 	ld  [ %i0 + 8 ], %g1
   116b4:	80 a0 60 00 	cmp  %g1, 0
   116b8:	16 80 00 09 	bge  116dc <_ppfs_setargs+0xb4>
   116bc:	82 20 00 01 	neg  %g1
   116c0:	c2 26 20 08 	st  %g1, [ %i0 + 8 ]
   116c4:	c2 06 20 10 	ld  [ %i0 + 0x10 ], %g1
   116c8:	82 08 7f fe 	and  %g1, -2, %g1
   116cc:	82 10 60 08 	or  %g1, 8, %g1
   116d0:	c2 26 20 10 	st  %g1, [ %i0 + 0x10 ]
   116d4:	82 10 20 20 	mov  0x20, %g1
   116d8:	c2 26 20 14 	st  %g1, [ %i0 + 0x14 ]
   116dc:	81 c7 e0 08 	ret 
   116e0:	81 e8 00 00 	restore 
   116e4:	83 2c 60 02 	sll  %l1, 2, %g1
   116e8:	c2 06 c0 01 	ld  [ %i3 + %g1 ], %g1
   116ec:	80 a0 60 08 	cmp  %g1, 8
   116f0:	22 bf ff ed 	be,a   116a4 <_ppfs_setargs+0x7c>
   116f4:	c2 06 20 1c 	ld  [ %i0 + 0x1c ], %g1
   116f8:	14 80 00 16 	bg  11750 <_ppfs_setargs+0x128>
   116fc:	fa 06 20 4c 	ld  [ %i0 + 0x4c ], %i5
   11700:	80 a0 60 02 	cmp  %g1, 2
   11704:	22 80 00 05 	be,a   11718 <_ppfs_setargs+0xf0>
   11708:	c2 07 40 00 	ld  [ %i5 ], %g1
   1170c:	14 80 00 07 	bg  11728 <_ppfs_setargs+0x100>
   11710:	80 a0 60 07 	cmp  %g1, 7
   11714:	c2 07 40 00 	ld  [ %i5 ], %g1
   11718:	ba 07 60 04 	add  %i5, 4, %i5
   1171c:	fa 26 20 4c 	st  %i5, [ %i0 + 0x4c ]
   11720:	10 80 00 20 	b  117a0 <_ppfs_setargs+0x178>
   11724:	c2 27 00 00 	st  %g1, [ %i4 ]
   11728:	12 bf ff fb 	bne  11714 <_ppfs_setargs+0xec>
   1172c:	92 10 00 1d 	mov  %i5, %o1
   11730:	94 10 20 08 	mov  8, %o2
   11734:	40 00 05 40 	call  12c34 <__GI_memcpy>
   11738:	90 10 00 10 	mov  %l0, %o0
   1173c:	ba 07 60 08 	add  %i5, 8, %i5
   11740:	d1 1f bf f0 	ldd  [ %fp + -16 ], %f8
   11744:	fa 26 20 4c 	st  %i5, [ %i0 + 0x4c ]
   11748:	10 80 00 16 	b  117a0 <_ppfs_setargs+0x178>
   1174c:	d1 3f 00 00 	std  %f8, [ %i4 ]
   11750:	80 a0 68 00 	cmp  %g1, 0x800
   11754:	02 80 00 0c 	be  11784 <_ppfs_setargs+0x15c>
   11758:	92 10 00 1d 	mov  %i5, %o1
   1175c:	04 bf ff ee 	ble  11714 <_ppfs_setargs+0xec>
   11760:	80 a0 68 07 	cmp  %g1, 0x807
   11764:	12 bf ff ec 	bne  11714 <_ppfs_setargs+0xec>
   11768:	94 10 20 08 	mov  8, %o2
   1176c:	40 00 05 32 	call  12c34 <__GI_memcpy>
   11770:	90 10 00 19 	mov  %i1, %o0
   11774:	ba 07 60 08 	add  %i5, 8, %i5
   11778:	d1 1f bf f8 	ldd  [ %fp + -8 ], %f8
   1177c:	10 bf ff f3 	b  11748 <_ppfs_setargs+0x120>
   11780:	fa 26 20 4c 	st  %i5, [ %i0 + 0x4c ]
   11784:	94 10 20 08 	mov  8, %o2
   11788:	90 10 00 1a 	mov  %i2, %o0
   1178c:	40 00 05 2a 	call  12c34 <__GI_memcpy>
   11790:	ba 07 60 08 	add  %i5, 8, %i5
   11794:	fa 26 20 4c 	st  %i5, [ %i0 + 0x4c ]
   11798:	c4 1f bf e8 	ldd  [ %fp + -24 ], %g2
   1179c:	c4 3f 00 00 	std  %g2, [ %i4 ]
   117a0:	10 bf ff c0 	b  116a0 <_ppfs_setargs+0x78>
   117a4:	b8 07 20 08 	add  %i4, 8, %i4
   117a8:	80 a0 c0 01 	cmp  %g3, %g1
   117ac:	12 80 00 08 	bne  117cc <_ppfs_setargs+0x1a4>
   117b0:	03 20 00 00 	sethi  %hi(0x80000000), %g1
   117b4:	c2 0e 20 24 	ldub  [ %i0 + 0x24 ], %g1
   117b8:	83 28 60 03 	sll  %g1, 3, %g1
   117bc:	82 00 7f f8 	add  %g1, -8, %g1
   117c0:	c2 07 00 01 	ld  [ %i4 + %g1 ], %g1
   117c4:	c2 26 20 08 	st  %g1, [ %i0 + 8 ]
   117c8:	03 20 00 00 	sethi  %hi(0x80000000), %g1
   117cc:	80 a0 80 01 	cmp  %g2, %g1
   117d0:	32 bf ff b9 	bne,a   116b4 <_ppfs_setargs+0x8c>
   117d4:	c2 06 20 08 	ld  [ %i0 + 8 ], %g1
   117d8:	c2 0e 20 25 	ldub  [ %i0 + 0x25 ], %g1
   117dc:	83 28 60 03 	sll  %g1, 3, %g1
   117e0:	82 00 7f f8 	add  %g1, -8, %g1
   117e4:	c2 07 00 01 	ld  [ %i4 + %g1 ], %g1
   117e8:	10 bf ff b2 	b  116b0 <_ppfs_setargs+0x88>
   117ec:	c2 26 20 04 	st  %g1, [ %i0 + 4 ]

000117f0 <_promoted_size>:
   117f0:	9d e3 bf a0 	save  %sp, -96, %sp
   117f4:	2f 00 00 b9 	sethi  %hi(0x2e400), %l7
   117f8:	7f ff fc 0b 	call  10824 <__sparc_get_pc_thunk.l7>
   117fc:	ae 05 e2 d4 	add  %l7, 0x2d4, %l7	! 2e6d4 <__FRAME_END__+0x5fdc>
   11800:	05 00 00 81 	sethi  %hi(0x20400), %g2
   11804:	84 18 bf 90 	xor  %g2, -112, %g2
   11808:	84 05 c0 02 	add  %l7, %g2, %g2
   1180c:	82 00 a0 18 	add  %g2, 0x18, %g1
   11810:	82 00 7f fe 	add  %g1, -2, %g1
   11814:	c6 50 40 00 	ldsh  [ %g1 ], %g3
   11818:	80 a0 c0 18 	cmp  %g3, %i0
   1181c:	02 80 00 04 	be  1182c <_promoted_size+0x3c>
   11820:	80 a0 80 01 	cmp  %g2, %g1
   11824:	2a bf ff fc 	bcs,a   11814 <_promoted_size+0x24>
   11828:	82 00 7f fe 	add  %g1, -2, %g1
   1182c:	82 20 40 02 	sub  %g1, %g2, %g1
   11830:	07 00 00 81 	sethi  %hi(0x20400), %g3
   11834:	83 38 60 01 	sra  %g1, 1, %g1
   11838:	86 18 ff 84 	xor  %g3, -124, %g3
   1183c:	ae 05 c0 03 	add  %l7, %g3, %l7
   11840:	f0 0d c0 01 	ldub  [ %l7 + %g1 ], %i0
   11844:	81 c7 e0 08 	ret 
   11848:	81 e8 00 00 	restore 

0001184c <_ppfs_parsespec>:
   1184c:	9d e3 bf 58 	save  %sp, -168, %sp
   11850:	82 10 20 08 	mov  8, %g1
   11854:	c0 27 bf b8 	clr  [ %fp + -72 ]
   11858:	c2 27 bf c4 	st  %g1, [ %fp + -60 ]
   1185c:	c2 27 bf c8 	st  %g1, [ %fp + -56 ]
   11860:	c0 27 bf bc 	clr  [ %fp + -68 ]
   11864:	c2 06 20 10 	ld  [ %i0 + 0x10 ], %g1
   11868:	2f 00 00 b9 	sethi  %hi(0x2e400), %l7
   1186c:	7f ff fb ee 	call  10824 <__sparc_get_pc_thunk.l7>
   11870:	ae 05 e2 60 	add  %l7, 0x260, %l7	! 2e660 <__FRAME_END__+0x5f68>
   11874:	f4 06 20 18 	ld  [ %i0 + 0x18 ], %i2
   11878:	80 88 60 80 	btst  0x80, %g1
   1187c:	12 80 00 39 	bne  11960 <_ppfs_parsespec+0x114>
   11880:	fa 06 00 00 	ld  [ %i0 ], %i5
   11884:	b6 10 20 00 	clr  %i3
   11888:	40 00 22 0a 	call  1a0b0 <__GI___ctype_b_loc>
   1188c:	b2 10 20 00 	clr  %i1
   11890:	1b 03 33 33 	sethi  %hi(0xccccc00), %o5
   11894:	19 1f ff ff 	sethi  %hi(0x7ffffc00), %o4
   11898:	92 13 60 cb 	or  %o5, 0xcb, %o1
   1189c:	d4 02 00 00 	ld  [ %o0 ], %o2
   118a0:	9e 10 20 00 	clr  %o7
   118a4:	98 13 23 ff 	or  %o4, 0x3ff, %o4
   118a8:	9a 13 60 cc 	or  %o5, 0xcc, %o5
   118ac:	17 20 00 00 	sethi  %hi(0x80000000), %o3
   118b0:	c2 0f 40 00 	ldub  [ %i5 ], %g1
   118b4:	80 a0 60 2a 	cmp  %g1, 0x2a
   118b8:	12 80 00 06 	bne  118d0 <_ppfs_parsespec+0x84>
   118bc:	84 10 00 1d 	mov  %i5, %g2
   118c0:	83 2b e0 02 	sll  %o7, 2, %g1
   118c4:	84 07 60 01 	add  %i5, 1, %g2
   118c8:	82 27 80 01 	sub  %fp, %g1, %g1
   118cc:	c0 20 7f c4 	clr  [ %g1 + -60 ]
   118d0:	82 10 20 00 	clr  %g1
   118d4:	c6 08 80 00 	ldub  [ %g2 ], %g3
   118d8:	88 00 c0 03 	add  %g3, %g3, %g4
   118dc:	c8 12 80 04 	lduh  [ %o2 + %g4 ], %g4
   118e0:	80 89 20 08 	btst  8, %g4
   118e4:	12 80 00 35 	bne  119b8 <_ppfs_parsespec+0x16c>
   118e8:	80 a0 40 09 	cmp  %g1, %o1
   118ec:	c8 0f 7f ff 	ldub  [ %i5 + -1 ], %g4
   118f0:	80 a1 20 25 	cmp  %g4, 0x25
   118f4:	32 80 00 47 	bne,a   11a10 <_ppfs_parsespec+0x1c4>
   118f8:	c6 0f 40 00 	ldub  [ %i5 ], %g3
   118fc:	80 a0 e0 24 	cmp  %g3, 0x24
   11900:	12 80 00 3e 	bne  119f8 <_ppfs_parsespec+0x1ac>
   11904:	80 a0 60 00 	cmp  %g1, 0
   11908:	04 80 00 3d 	ble  119fc <_ppfs_parsespec+0x1b0>
   1190c:	80 a6 a0 00 	cmp  %i2, 0
   11910:	02 80 00 1e 	be  11988 <_ppfs_parsespec+0x13c>
   11914:	ba 00 a0 01 	add  %g2, 1, %i5
   11918:	80 a6 80 01 	cmp  %i2, %g1
   1191c:	16 80 00 03 	bge  11928 <_ppfs_parsespec+0xdc>
   11920:	c2 27 bf c0 	st  %g1, [ %fp + -64 ]
   11924:	b4 10 00 01 	mov  %g1, %i2
   11928:	84 10 00 1d 	mov  %i5, %g2
   1192c:	3b 00 00 82 	sethi  %hi(0x20800), %i5
   11930:	82 10 20 01 	mov  1, %g1
   11934:	ba 1f 7f 84 	xor  %i5, -124, %i5
   11938:	c8 08 80 00 	ldub  [ %g2 ], %g4
   1193c:	ba 05 c0 1d 	add  %l7, %i5, %i5
   11940:	ba 07 60 01 	inc  %i5
   11944:	c6 0f 7f ff 	ldub  [ %i5 + -1 ], %g3
   11948:	80 a1 00 03 	cmp  %g4, %g3
   1194c:	32 80 00 56 	bne,a   11aa4 <_ppfs_parsespec+0x258>
   11950:	c6 0f 40 00 	ldub  [ %i5 ], %g3
   11954:	84 00 a0 01 	inc  %g2
   11958:	10 bf ff f5 	b  1192c <_ppfs_parsespec+0xe0>
   1195c:	b6 16 c0 01 	or  %i3, %g1, %i3
   11960:	ba 07 7f fc 	add  %i5, -4, %i5
   11964:	82 10 20 00 	clr  %g1
   11968:	86 07 bf e0 	add  %fp, -32, %g3
   1196c:	c4 07 40 00 	ld  [ %i5 ], %g2
   11970:	c4 28 40 03 	stb  %g2, [ %g1 + %g3 ]
   11974:	88 08 a0 ff 	and  %g2, 0xff, %g4
   11978:	f8 07 40 00 	ld  [ %i5 ], %i4
   1197c:	80 a7 00 04 	cmp  %i4, %g4
   11980:	02 80 00 04 	be  11990 <_ppfs_parsespec+0x144>
   11984:	82 00 60 01 	inc  %g1
   11988:	81 c7 e0 08 	ret 
   1198c:	91 e8 3f ff 	restore  %g0, -1, %o0
   11990:	80 88 a0 ff 	btst  0xff, %g2
   11994:	02 80 00 05 	be  119a8 <_ppfs_parsespec+0x15c>
   11998:	ba 07 60 04 	add  %i5, 4, %i5
   1199c:	80 a0 60 20 	cmp  %g1, 0x20
   119a0:	32 bf ff f4 	bne,a   11970 <_ppfs_parsespec+0x124>
   119a4:	c4 07 40 00 	ld  [ %i5 ], %g2
   119a8:	c0 2f bf ff 	clrb  [ %fp + -1 ]
   119ac:	b6 10 20 80 	mov  0x80, %i3
   119b0:	10 bf ff b6 	b  11888 <_ppfs_parsespec+0x3c>
   119b4:	ba 07 bf e1 	add  %fp, -31, %i5
   119b8:	04 80 00 08 	ble  119d8 <_ppfs_parsespec+0x18c>
   119bc:	89 28 60 02 	sll  %g1, 2, %g4
   119c0:	80 a0 e0 37 	cmp  %g3, 0x37
   119c4:	18 80 00 0b 	bgu  119f0 <_ppfs_parsespec+0x1a4>
   119c8:	80 a0 40 0d 	cmp  %g1, %o5
   119cc:	32 80 00 07 	bne,a   119e8 <_ppfs_parsespec+0x19c>
   119d0:	82 10 00 0c 	mov  %o4, %g1
   119d4:	89 28 60 02 	sll  %g1, 2, %g4
   119d8:	86 00 ff d0 	add  %g3, -48, %g3
   119dc:	82 01 00 01 	add  %g4, %g1, %g1
   119e0:	82 00 40 01 	add  %g1, %g1, %g1
   119e4:	82 00 c0 01 	add  %g3, %g1, %g1
   119e8:	10 bf ff bb 	b  118d4 <_ppfs_parsespec+0x88>
   119ec:	84 00 a0 01 	inc  %g2
   119f0:	10 bf ff fe 	b  119e8 <_ppfs_parsespec+0x19c>
   119f4:	82 10 00 0c 	mov  %o4, %g1
   119f8:	80 a6 a0 00 	cmp  %i2, 0
   119fc:	04 80 00 1f 	ble  11a78 <_ppfs_parsespec+0x22c>
   11a00:	80 a0 e0 6d 	cmp  %g3, 0x6d
   11a04:	12 bf ff e1 	bne  11988 <_ppfs_parsespec+0x13c>
   11a08:	01 00 00 00 	nop 
   11a0c:	c6 0f 40 00 	ldub  [ %i5 ], %g3
   11a10:	80 a0 e0 2a 	cmp  %g3, 0x2a
   11a14:	12 80 00 0f 	bne  11a50 <_ppfs_parsespec+0x204>
   11a18:	b8 10 00 02 	mov  %g2, %i4
   11a1c:	80 a6 a0 00 	cmp  %i2, 0
   11a20:	02 80 00 2d 	be  11ad4 <_ppfs_parsespec+0x288>
   11a24:	b8 07 60 01 	add  %i5, 1, %i4
   11a28:	b8 00 a0 01 	add  %g2, 1, %i4
   11a2c:	c4 08 80 00 	ldub  [ %g2 ], %g2
   11a30:	80 a0 a0 24 	cmp  %g2, 0x24
   11a34:	12 bf ff d5 	bne  11988 <_ppfs_parsespec+0x13c>
   11a38:	80 a0 60 00 	cmp  %g1, 0
   11a3c:	04 bf ff d3 	ble  11988 <_ppfs_parsespec+0x13c>
   11a40:	85 2b e0 02 	sll  %o7, 2, %g2
   11a44:	84 27 80 02 	sub  %fp, %g2, %g2
   11a48:	c2 20 bf b8 	st  %g1, [ %g2 + -72 ]
   11a4c:	82 10 00 0b 	mov  %o3, %g1
   11a50:	80 a3 e0 00 	cmp  %o7, 0
   11a54:	12 80 00 26 	bne  11aec <_ppfs_parsespec+0x2a0>
   11a58:	c6 0f 00 00 	ldub  [ %i4 ], %g3
   11a5c:	80 a0 e0 2e 	cmp  %g3, 0x2e
   11a60:	12 80 00 21 	bne  11ae4 <_ppfs_parsespec+0x298>
   11a64:	84 07 20 01 	add  %i4, 1, %g2
   11a68:	b2 10 00 01 	mov  %g1, %i1
   11a6c:	9e 10 3f ff 	mov  -1, %o7
   11a70:	10 bf ff 90 	b  118b0 <_ppfs_parsespec+0x64>
   11a74:	ba 10 00 02 	mov  %g2, %i5
   11a78:	80 a7 40 02 	cmp  %i5, %g2
   11a7c:	1a 80 00 08 	bcc  11a9c <_ppfs_parsespec+0x250>
   11a80:	c6 0f 40 00 	ldub  [ %i5 ], %g3
   11a84:	86 08 e0 ff 	and  %g3, 0xff, %g3
   11a88:	80 a0 e0 30 	cmp  %g3, 0x30
   11a8c:	12 bf ff e0 	bne  11a0c <_ppfs_parsespec+0x1c0>
   11a90:	b4 10 20 00 	clr  %i2
   11a94:	10 bf ff a6 	b  1192c <_ppfs_parsespec+0xe0>
   11a98:	84 10 00 1d 	mov  %i5, %g2
   11a9c:	10 bf ff a3 	b  11928 <_ppfs_parsespec+0xdc>
   11aa0:	b4 10 20 00 	clr  %i2
   11aa4:	80 a0 e0 00 	cmp  %g3, 0
   11aa8:	12 bf ff a6 	bne  11940 <_ppfs_parsespec+0xf4>
   11aac:	82 00 40 01 	add  %g1, %g1, %g1
   11ab0:	83 3e e0 01 	sra  %i3, 1, %g1
   11ab4:	82 08 60 05 	and  %g1, 5, %g1
   11ab8:	b6 2e c0 01 	andn  %i3, %g1, %i3
   11abc:	c2 08 bf ff 	ldub  [ %g2 + -1 ], %g1
   11ac0:	80 a0 60 25 	cmp  %g1, 0x25
   11ac4:	32 bf ff 7b 	bne,a   118b0 <_ppfs_parsespec+0x64>
   11ac8:	ba 10 00 02 	mov  %g2, %i5
   11acc:	10 bf ff d0 	b  11a0c <_ppfs_parsespec+0x1c0>
   11ad0:	82 10 20 00 	clr  %g1
   11ad4:	80 a0 80 1c 	cmp  %g2, %i4
   11ad8:	02 bf ff de 	be  11a50 <_ppfs_parsespec+0x204>
   11adc:	82 10 00 0b 	mov  %o3, %g1
   11ae0:	30 bf ff aa 	b,a   11988 <_ppfs_parsespec+0x13c>
   11ae4:	b2 10 00 01 	mov  %g1, %i1
   11ae8:	82 10 3f ff 	mov  -1, %g1
   11aec:	05 00 00 81 	sethi  %hi(0x20400), %g2
   11af0:	84 18 bf 6c 	xor  %g2, -148, %g2
   11af4:	84 05 c0 02 	add  %l7, %g2, %g2
   11af8:	88 10 00 02 	mov  %g2, %g4
   11afc:	fa 08 80 00 	ldub  [ %g2 ], %i5
   11b00:	80 a7 40 03 	cmp  %i5, %g3
   11b04:	32 80 00 8b 	bne,a   11d30 <_ppfs_parsespec+0x4e4>
   11b08:	84 00 a0 01 	inc  %g2
   11b0c:	b8 07 20 01 	inc  %i4
   11b10:	88 20 80 04 	sub  %g2, %g4, %g4
   11b14:	80 a1 20 01 	cmp  %g4, 1
   11b18:	14 80 00 09 	bg  11b3c <_ppfs_parsespec+0x2f0>
   11b1c:	c6 0f 00 00 	ldub  [ %i4 ], %g3
   11b20:	c8 08 80 00 	ldub  [ %g2 ], %g4
   11b24:	86 08 e0 ff 	and  %g3, 0xff, %g3
   11b28:	80 a1 00 03 	cmp  %g4, %g3
   11b2c:	32 80 00 05 	bne,a   11b40 <_ppfs_parsespec+0x2f4>
   11b30:	fa 08 a0 09 	ldub  [ %g2 + 9 ], %i5
   11b34:	84 00 a0 09 	add  %g2, 9, %g2
   11b38:	b8 07 20 01 	inc  %i4
   11b3c:	fa 08 a0 09 	ldub  [ %g2 + 9 ], %i5
   11b40:	c6 0f 00 00 	ldub  [ %i4 ], %g3
   11b44:	80 a0 e0 00 	cmp  %g3, 0
   11b48:	02 bf ff 90 	be  11988 <_ppfs_parsespec+0x13c>
   11b4c:	bb 2f 60 08 	sll  %i5, 8, %i5
   11b50:	05 00 00 82 	sethi  %hi(0x20800), %g2
   11b54:	84 18 bf 6c 	xor  %g2, -148, %g2
   11b58:	84 05 c0 02 	add  %l7, %g2, %g2
   11b5c:	9e 10 00 02 	mov  %g2, %o7
   11b60:	c8 08 80 00 	ldub  [ %g2 ], %g4
   11b64:	80 a0 c0 04 	cmp  %g3, %g4
   11b68:	32 80 00 78 	bne,a   11d48 <_ppfs_parsespec+0x4fc>
   11b6c:	84 00 a0 01 	inc  %g2
   11b70:	84 20 80 0f 	sub  %g2, %o7, %g2
   11b74:	80 a0 a0 11 	cmp  %g2, 0x11
   11b78:	24 80 00 06 	ble,a   11b90 <_ppfs_parsespec+0x344>
   11b7c:	09 00 00 81 	sethi  %hi(0x20400), %g4
   11b80:	80 8f 64 00 	btst  0x400, %i5
   11b84:	32 80 00 02 	bne,a   11b8c <_ppfs_parsespec+0x340>
   11b88:	84 00 bf fe 	add  %g2, -2, %g2
   11b8c:	09 00 00 81 	sethi  %hi(0x20400), %g4
   11b90:	c4 26 20 20 	st  %g2, [ %i0 + 0x20 ]
   11b94:	88 19 3f 5c 	xor  %g4, -164, %g4
   11b98:	88 05 c0 04 	add  %l7, %g4, %g4
   11b9c:	9a 10 00 04 	mov  %g4, %o5
   11ba0:	86 10 00 04 	mov  %g4, %g3
   11ba4:	d8 08 c0 00 	ldub  [ %g3 ], %o4
   11ba8:	80 a3 00 02 	cmp  %o4, %g2
   11bac:	06 bf ff fd 	bl  11ba0 <_ppfs_parsespec+0x354>
   11bb0:	88 01 20 01 	inc  %g4
   11bb4:	84 20 c0 0d 	sub  %g3, %o5, %g2
   11bb8:	09 00 00 81 	sethi  %hi(0x20400), %g4
   11bbc:	84 00 80 02 	add  %g2, %g2, %g2
   11bc0:	07 00 00 81 	sethi  %hi(0x20400), %g3
   11bc4:	88 19 3f 3c 	xor  %g4, -196, %g4
   11bc8:	86 18 ff 4c 	xor  %g3, -180, %g3
   11bcc:	88 05 c0 04 	add  %l7, %g4, %g4
   11bd0:	86 05 c0 03 	add  %l7, %g3, %g3
   11bd4:	c6 50 c0 02 	ldsh  [ %g3 + %g2 ], %g3
   11bd8:	c4 51 00 02 	ldsh  [ %g4 + %g2 ], %g2
   11bdc:	86 10 c0 1d 	or  %g3, %i5, %g3
   11be0:	84 08 c0 02 	and  %g3, %g2, %g2
   11be4:	c4 27 bf cc 	st  %g2, [ %fp + -52 ]
   11be8:	84 10 00 0f 	mov  %o7, %g2
   11bec:	c6 0f 00 00 	ldub  [ %i4 ], %g3
   11bf0:	c2 26 20 04 	st  %g1, [ %i0 + 4 ]
   11bf4:	c6 26 20 0c 	st  %g3, [ %i0 + 0xc ]
   11bf8:	f2 26 20 08 	st  %i1, [ %i0 + 8 ]
   11bfc:	80 8e e0 04 	btst  4, %i3
   11c00:	02 80 00 03 	be  11c0c <_ppfs_parsespec+0x3c0>
   11c04:	82 10 20 20 	mov  0x20, %g1
   11c08:	82 10 20 30 	mov  0x30, %g1
   11c0c:	c2 26 20 14 	st  %g1, [ %i0 + 0x14 ]
   11c10:	b6 0e ff fb 	and  %i3, -5, %i3
   11c14:	82 10 20 01 	mov  1, %g1
   11c18:	ba 0f 6f 00 	and  %i5, 0xf00, %i5
   11c1c:	c2 26 20 1c 	st  %g1, [ %i0 + 0x1c ]
   11c20:	b6 16 c0 1d 	or  %i3, %i5, %i3
   11c24:	f6 26 20 10 	st  %i3, [ %i0 + 0x10 ]
   11c28:	c2 08 80 00 	ldub  [ %g2 ], %g1
   11c2c:	80 a0 60 00 	cmp  %g1, 0
   11c30:	12 80 00 0a 	bne  11c58 <_ppfs_parsespec+0x40c>
   11c34:	80 a6 a0 00 	cmp  %i2, 0
   11c38:	c2 0f 00 00 	ldub  [ %i4 ], %g1
   11c3c:	80 a0 60 6d 	cmp  %g1, 0x6d
   11c40:	12 80 00 48 	bne  11d60 <_ppfs_parsespec+0x514>
   11c44:	82 10 20 15 	mov  0x15, %g1
   11c48:	82 10 20 14 	mov  0x14, %g1
   11c4c:	c0 26 20 1c 	clr  [ %i0 + 0x1c ]
   11c50:	c2 26 20 20 	st  %g1, [ %i0 + 0x20 ]
   11c54:	80 a6 a0 00 	cmp  %i2, 0
   11c58:	04 80 00 65 	ble  11dec <_ppfs_parsespec+0x5a0>
   11c5c:	82 10 20 01 	mov  1, %g1
   11c60:	b6 10 20 00 	clr  %i3
   11c64:	a2 07 bf b8 	add  %fp, -72, %l1
   11c68:	a4 06 20 24 	add  %i0, 0x24, %l2
   11c6c:	a6 07 bf c4 	add  %fp, -60, %l3
   11c70:	80 a6 e0 02 	cmp  %i3, 2
   11c74:	14 80 00 5b 	bg  11de0 <_ppfs_parsespec+0x594>
   11c78:	82 06 ff fe 	add  %i3, -2, %g1
   11c7c:	83 2e e0 02 	sll  %i3, 2, %g1
   11c80:	c2 00 40 11 	ld  [ %g1 + %l1 ], %g1
   11c84:	c2 2c 80 1b 	stb  %g1, [ %l2 + %i3 ]
   11c88:	82 08 60 ff 	and  %g1, 0xff, %g1
   11c8c:	80 a6 80 01 	cmp  %i2, %g1
   11c90:	16 80 00 06 	bge  11ca8 <_ppfs_parsespec+0x45c>
   11c94:	85 2e e0 02 	sll  %i3, 2, %g2
   11c98:	80 a0 60 09 	cmp  %g1, 9
   11c9c:	14 bf ff 3b 	bg  11988 <_ppfs_parsespec+0x13c>
   11ca0:	b4 10 00 01 	mov  %g1, %i2
   11ca4:	85 2e e0 02 	sll  %i3, 2, %g2
   11ca8:	f2 00 80 13 	ld  [ %g2 + %l3 ], %i1
   11cac:	80 a6 60 08 	cmp  %i1, 8
   11cb0:	02 80 00 12 	be  11cf8 <_ppfs_parsespec+0x4ac>
   11cb4:	83 28 60 02 	sll  %g1, 2, %g1
   11cb8:	ba 06 00 01 	add  %i0, %g1, %i5
   11cbc:	d0 07 60 24 	ld  [ %i5 + 0x24 ], %o0
   11cc0:	80 a2 20 08 	cmp  %o0, 8
   11cc4:	02 80 00 0c 	be  11cf4 <_ppfs_parsespec+0x4a8>
   11cc8:	80 a2 00 19 	cmp  %o0, %i1
   11ccc:	22 80 00 0b 	be,a   11cf8 <_ppfs_parsespec+0x4ac>
   11cd0:	f2 27 60 24 	st  %i1, [ %i5 + 0x24 ]
   11cd4:	7f ff fe c7 	call  117f0 <_promoted_size>
   11cd8:	01 00 00 00 	nop 
   11cdc:	a0 10 00 08 	mov  %o0, %l0
   11ce0:	7f ff fe c4 	call  117f0 <_promoted_size>
   11ce4:	90 10 00 19 	mov  %i1, %o0
   11ce8:	80 a4 00 08 	cmp  %l0, %o0
   11cec:	34 80 00 04 	bg,a   11cfc <_ppfs_parsespec+0x4b0>
   11cf0:	c2 06 20 1c 	ld  [ %i0 + 0x1c ], %g1
   11cf4:	f2 27 60 24 	st  %i1, [ %i5 + 0x24 ]
   11cf8:	c2 06 20 1c 	ld  [ %i0 + 0x1c ], %g1
   11cfc:	80 a0 40 1b 	cmp  %g1, %i3
   11d00:	16 80 00 36 	bge  11dd8 <_ppfs_parsespec+0x58c>
   11d04:	84 06 e0 01 	add  %i3, 1, %g2
   11d08:	f4 26 20 18 	st  %i2, [ %i0 + 0x18 ]
   11d0c:	c2 06 20 10 	ld  [ %i0 + 0x10 ], %g1
   11d10:	80 88 60 80 	btst  0x80, %g1
   11d14:	12 80 00 3e 	bne  11e0c <_ppfs_parsespec+0x5c0>
   11d18:	82 07 bf e0 	add  %fp, -32, %g1
   11d1c:	82 07 20 01 	add  %i4, 1, %g1
   11d20:	c2 26 00 00 	st  %g1, [ %i0 ]
   11d24:	f0 06 20 1c 	ld  [ %i0 + 0x1c ], %i0
   11d28:	81 c7 e0 08 	ret 
   11d2c:	91 ee 20 02 	restore  %i0, 2, %o0
   11d30:	fa 08 80 00 	ldub  [ %g2 ], %i5
   11d34:	80 a7 60 00 	cmp  %i5, 0
   11d38:	12 bf ff 73 	bne  11b04 <_ppfs_parsespec+0x2b8>
   11d3c:	80 a7 40 03 	cmp  %i5, %g3
   11d40:	10 bf ff 75 	b  11b14 <_ppfs_parsespec+0x2c8>
   11d44:	88 20 80 04 	sub  %g2, %g4, %g4
   11d48:	c8 08 80 00 	ldub  [ %g2 ], %g4
   11d4c:	80 a1 20 00 	cmp  %g4, 0
   11d50:	12 bf ff 86 	bne  11b68 <_ppfs_parsespec+0x31c>
   11d54:	80 a0 c0 04 	cmp  %g3, %g4
   11d58:	10 bf ff a6 	b  11bf0 <_ppfs_parsespec+0x3a4>
   11d5c:	c6 0f 00 00 	ldub  [ %i4 ], %g3
   11d60:	c2 26 20 20 	st  %g1, [ %i0 + 0x20 ]
   11d64:	03 00 00 00 	sethi  %hi(0), %g1
   11d68:	82 18 61 54 	xor  %g1, 0x154, %g1
   11d6c:	82 05 c0 01 	add  %l7, %g1, %g1
   11d70:	c8 0f 00 00 	ldub  [ %i4 ], %g4
   11d74:	c6 00 40 00 	ld  [ %g1 ], %g3
   11d78:	84 00 e0 0a 	add  %g3, 0xa, %g2
   11d7c:	82 10 00 03 	mov  %g3, %g1
   11d80:	fa 08 40 00 	ldub  [ %g1 ], %i5
   11d84:	80 a7 40 04 	cmp  %i5, %g4
   11d88:	32 80 00 10 	bne,a   11dc8 <_ppfs_parsespec+0x57c>
   11d8c:	82 00 60 01 	inc  %g1
   11d90:	05 00 00 09 	sethi  %hi(0x2400), %g2
   11d94:	84 18 a3 b0 	xor  %g2, 0x3b0, %g2
   11d98:	84 05 c0 02 	add  %l7, %g2, %g2
   11d9c:	82 20 40 03 	sub  %g1, %g3, %g1
   11da0:	94 07 bf cc 	add  %fp, -52, %o2
   11da4:	83 28 60 02 	sll  %g1, 2, %g1
   11da8:	92 10 20 05 	mov  5, %o1
   11dac:	c2 00 80 01 	ld  [ %g2 + %g1 ], %g1
   11db0:	9f c0 40 00 	call  %g1
   11db4:	90 06 20 04 	add  %i0, 4, %o0
   11db8:	80 a2 20 05 	cmp  %o0, 5
   11dbc:	04 bf ff a6 	ble  11c54 <_ppfs_parsespec+0x408>
   11dc0:	d0 26 20 1c 	st  %o0, [ %i0 + 0x1c ]
   11dc4:	30 bf fe f1 	b,a   11988 <_ppfs_parsespec+0x13c>
   11dc8:	80 a0 80 01 	cmp  %g2, %g1
   11dcc:	32 bf ff ee 	bne,a   11d84 <_ppfs_parsespec+0x538>
   11dd0:	fa 08 40 00 	ldub  [ %g1 ], %i5
   11dd4:	30 bf fe ed 	b,a   11988 <_ppfs_parsespec+0x13c>
   11dd8:	10 bf ff a6 	b  11c70 <_ppfs_parsespec+0x424>
   11ddc:	b6 10 00 02 	mov  %g2, %i3
   11de0:	c4 07 bf c0 	ld  [ %fp + -64 ], %g2
   11de4:	10 bf ff aa 	b  11c8c <_ppfs_parsespec+0x440>
   11de8:	82 00 40 02 	add  %g1, %g2, %g1
   11dec:	d4 06 20 1c 	ld  [ %i0 + 0x1c ], %o2
   11df0:	c2 2e 20 26 	stb  %g1, [ %i0 + 0x26 ]
   11df4:	95 2a a0 02 	sll  %o2, 2, %o2
   11df8:	92 07 bf cc 	add  %fp, -52, %o1
   11dfc:	40 00 03 8e 	call  12c34 <__GI_memcpy>
   11e00:	90 06 20 28 	add  %i0, 0x28, %o0
   11e04:	10 bf ff c2 	b  11d0c <_ppfs_parsespec+0x4c0>
   11e08:	f4 26 20 18 	st  %i2, [ %i0 + 0x18 ]
   11e0c:	b8 27 00 01 	sub  %i4, %g1, %i4
   11e10:	c2 06 00 00 	ld  [ %i0 ], %g1
   11e14:	b9 2f 20 02 	sll  %i4, 2, %i4
   11e18:	10 bf ff c2 	b  11d20 <_ppfs_parsespec+0x4d4>
   11e1c:	82 00 40 1c 	add  %g1, %i4, %g1

00011e20 <_stdio_openlist_dec_use>:
   11e20:	9d e3 bf a0 	save  %sp, -96, %sp
   11e24:	2f 00 00 b8 	sethi  %hi(0x2e000), %l7
   11e28:	7f ff fa 7f 	call  10824 <__sparc_get_pc_thunk.l7>
   11e2c:	ae 05 e0 a4 	add  %l7, 0xa4, %l7	! 2e0a4 <__FRAME_END__+0x59ac>
   11e30:	3b 00 00 01 	sethi  %hi(0x400), %i5
   11e34:	ba 1f 63 8c 	xor  %i5, 0x38c, %i5
   11e38:	ba 05 c0 1d 	add  %l7, %i5, %i5
   11e3c:	c2 07 60 08 	ld  [ %i5 + 8 ], %g1
   11e40:	80 a0 40 07 	cmp  %g1, %g7
   11e44:	02 80 00 19 	be  11ea8 <_stdio_openlist_dec_use+0x88>
   11e48:	b8 10 00 07 	mov  %g7, %i4
   11e4c:	83 3f 60 02 	sra  %i5, 2, %g1
   11e50:	85 3f 60 0c 	sra  %i5, 0xc, %g2
   11e54:	82 18 40 02 	xor  %g1, %g2, %g1
   11e58:	82 08 60 3f 	and  %g1, 0x3f, %g1
   11e5c:	05 00 00 00 	sethi  %hi(0), %g2
   11e60:	84 18 a3 ac 	xor  %g2, 0x3ac, %g2
   11e64:	84 05 c0 02 	add  %l7, %g2, %g2
   11e68:	c6 68 80 01 	ldstub  [ %g2 + %g1 ], %g3
   11e6c:	80 a0 e0 00 	cmp  %g3, 0
   11e70:	32 bf ff fc 	bne,a   11e60 <_stdio_openlist_dec_use+0x40>
   11e74:	05 00 00 00 	sethi  %hi(0), %g2
   11e78:	c6 07 40 00 	ld  [ %i5 ], %g3
   11e7c:	80 a0 e0 00 	cmp  %g3, 0
   11e80:	12 80 00 03 	bne  11e8c <_stdio_openlist_dec_use+0x6c>
   11e84:	88 10 20 01 	mov  1, %g4
   11e88:	c8 27 40 00 	st  %g4, [ %i5 ]
   11e8c:	c0 28 80 01 	clrb  [ %g2 + %g1 ]
   11e90:	80 a0 e0 00 	cmp  %g3, 0
   11e94:	22 80 00 05 	be,a   11ea8 <_stdio_openlist_dec_use+0x88>
   11e98:	f8 27 60 08 	st  %i4, [ %i5 + 8 ]
   11e9c:	40 00 10 cf 	call  161d8 <__lll_lock_wait_private>
   11ea0:	90 10 00 1d 	mov  %i5, %o0
   11ea4:	f8 27 60 08 	st  %i4, [ %i5 + 8 ]
   11ea8:	c2 07 60 04 	ld  [ %i5 + 4 ], %g1
   11eac:	82 00 60 01 	inc  %g1
   11eb0:	37 00 00 01 	sethi  %hi(0x400), %i3
   11eb4:	c2 27 60 04 	st  %g1, [ %i5 + 4 ]
   11eb8:	b6 1e e3 88 	xor  %i3, 0x388, %i3
   11ebc:	b6 05 c0 1b 	add  %l7, %i3, %i3
   11ec0:	c2 06 c0 00 	ld  [ %i3 ], %g1
   11ec4:	80 a0 60 01 	cmp  %g1, 1
   11ec8:	12 80 00 54 	bne  12018 <_stdio_openlist_dec_use+0x1f8>
   11ecc:	35 00 00 01 	sethi  %hi(0x400), %i2
   11ed0:	b4 1e a3 84 	xor  %i2, 0x384, %i2
   11ed4:	b4 05 c0 1a 	add  %l7, %i2, %i2
   11ed8:	c2 06 80 00 	ld  [ %i2 ], %g1
   11edc:	80 a0 60 00 	cmp  %g1, 0
   11ee0:	04 80 00 4e 	ble  12018 <_stdio_openlist_dec_use+0x1f8>
   11ee4:	39 00 00 01 	sethi  %hi(0x400), %i4
   11ee8:	b8 1f 23 98 	xor  %i4, 0x398, %i4
   11eec:	b8 05 c0 1c 	add  %l7, %i4, %i4
   11ef0:	c2 07 20 08 	ld  [ %i4 + 8 ], %g1
   11ef4:	80 a0 40 07 	cmp  %g1, %g7
   11ef8:	02 80 00 19 	be  11f5c <_stdio_openlist_dec_use+0x13c>
   11efc:	b2 10 00 07 	mov  %g7, %i1
   11f00:	83 3f 20 02 	sra  %i4, 2, %g1
   11f04:	85 3f 20 0c 	sra  %i4, 0xc, %g2
   11f08:	82 18 40 02 	xor  %g1, %g2, %g1
   11f0c:	82 08 60 3f 	and  %g1, 0x3f, %g1
   11f10:	05 00 00 00 	sethi  %hi(0), %g2
   11f14:	84 18 a3 ac 	xor  %g2, 0x3ac, %g2
   11f18:	84 05 c0 02 	add  %l7, %g2, %g2
   11f1c:	c6 68 80 01 	ldstub  [ %g2 + %g1 ], %g3
   11f20:	80 a0 e0 00 	cmp  %g3, 0
   11f24:	32 bf ff fc 	bne,a   11f14 <_stdio_openlist_dec_use+0xf4>
   11f28:	05 00 00 00 	sethi  %hi(0), %g2
   11f2c:	c6 07 00 00 	ld  [ %i4 ], %g3
   11f30:	80 a0 e0 00 	cmp  %g3, 0
   11f34:	12 80 00 03 	bne  11f40 <_stdio_openlist_dec_use+0x120>
   11f38:	88 10 20 01 	mov  1, %g4
   11f3c:	c8 27 00 00 	st  %g4, [ %i4 ]
   11f40:	c0 28 80 01 	clrb  [ %g2 + %g1 ]
   11f44:	80 a0 e0 00 	cmp  %g3, 0
   11f48:	22 80 00 05 	be,a   11f5c <_stdio_openlist_dec_use+0x13c>
   11f4c:	f2 27 20 08 	st  %i1, [ %i4 + 8 ]
   11f50:	40 00 10 a2 	call  161d8 <__lll_lock_wait_private>
   11f54:	90 10 00 1c 	mov  %i4, %o0
   11f58:	f2 27 20 08 	st  %i1, [ %i4 + 8 ]
   11f5c:	c2 07 20 04 	ld  [ %i4 + 4 ], %g1
   11f60:	82 00 60 01 	inc  %g1
   11f64:	21 3f ff e0 	sethi  %hi(0xffff8000), %l0
   11f68:	c2 27 20 04 	st  %g1, [ %i4 + 4 ]
   11f6c:	b0 10 20 00 	clr  %i0
   11f70:	03 00 00 00 	sethi  %hi(0), %g1
   11f74:	a0 14 20 30 	or  %l0, 0x30, %l0
   11f78:	82 18 62 6c 	xor  %g1, 0x26c, %g1
   11f7c:	25 00 00 08 	sethi  %hi(0x2000), %l2
   11f80:	b2 05 c0 01 	add  %l7, %g1, %i1
   11f84:	d0 06 40 00 	ld  [ %i1 ], %o0
   11f88:	80 a2 20 00 	cmp  %o0, 0
   11f8c:	32 80 00 47 	bne,a   120a8 <_stdio_openlist_dec_use+0x288>
   11f90:	c4 12 00 00 	lduh  [ %o0 ], %g2
   11f94:	c2 07 20 04 	ld  [ %i4 + 4 ], %g1
   11f98:	82 00 7f ff 	add  %g1, -1, %g1
   11f9c:	80 a0 60 00 	cmp  %g1, 0
   11fa0:	12 80 00 1d 	bne  12014 <_stdio_openlist_dec_use+0x1f4>
   11fa4:	c2 27 20 04 	st  %g1, [ %i4 + 4 ]
   11fa8:	83 3f 20 02 	sra  %i4, 2, %g1
   11fac:	85 3f 20 0c 	sra  %i4, 0xc, %g2
   11fb0:	c0 27 20 08 	clr  [ %i4 + 8 ]
   11fb4:	82 18 40 02 	xor  %g1, %g2, %g1
   11fb8:	82 08 60 3f 	and  %g1, 0x3f, %g1
   11fbc:	05 00 00 00 	sethi  %hi(0), %g2
   11fc0:	84 18 a3 ac 	xor  %g2, 0x3ac, %g2
   11fc4:	84 05 c0 02 	add  %l7, %g2, %g2
   11fc8:	c6 68 80 01 	ldstub  [ %g2 + %g1 ], %g3
   11fcc:	80 a0 e0 00 	cmp  %g3, 0
   11fd0:	32 bf ff fc 	bne,a   11fc0 <_stdio_openlist_dec_use+0x1a0>
   11fd4:	05 00 00 00 	sethi  %hi(0), %g2
   11fd8:	c6 07 00 00 	ld  [ %i4 ], %g3
   11fdc:	c0 28 80 01 	clrb  [ %g2 + %g1 ]
   11fe0:	c0 27 00 00 	clr  [ %i4 ]
   11fe4:	80 a0 e0 01 	cmp  %g3, 1
   11fe8:	24 80 00 0c 	ble,a   12018 <_stdio_openlist_dec_use+0x1f8>
   11fec:	c0 26 80 00 	clr  [ %i2 ]
   11ff0:	82 10 20 8e 	mov  0x8e, %g1
   11ff4:	96 10 20 00 	clr  %o3
   11ff8:	94 10 20 01 	mov  1, %o2
   11ffc:	92 10 20 81 	mov  0x81, %o1
   12000:	90 10 00 1c 	mov  %i4, %o0
   12004:	91 d0 20 10 	ta  0x10
   12008:	1a 80 00 03 	bcc  12014 <_stdio_openlist_dec_use+0x1f4>
   1200c:	82 10 00 08 	mov  %o0, %g1
   12010:	82 20 00 08 	neg  %o0, %g1
   12014:	c0 26 80 00 	clr  [ %i2 ]
   12018:	c2 06 c0 00 	ld  [ %i3 ], %g1
   1201c:	82 00 7f ff 	add  %g1, -1, %g1
   12020:	c2 26 c0 00 	st  %g1, [ %i3 ]
   12024:	c2 07 60 04 	ld  [ %i5 + 4 ], %g1
   12028:	82 00 7f ff 	add  %g1, -1, %g1
   1202c:	80 a0 60 00 	cmp  %g1, 0
   12030:	12 80 00 1c 	bne  120a0 <_stdio_openlist_dec_use+0x280>
   12034:	c2 27 60 04 	st  %g1, [ %i5 + 4 ]
   12038:	83 3f 60 02 	sra  %i5, 2, %g1
   1203c:	85 3f 60 0c 	sra  %i5, 0xc, %g2
   12040:	c0 27 60 08 	clr  [ %i5 + 8 ]
   12044:	82 18 40 02 	xor  %g1, %g2, %g1
   12048:	82 08 60 3f 	and  %g1, 0x3f, %g1
   1204c:	05 00 00 00 	sethi  %hi(0), %g2
   12050:	84 18 a3 ac 	xor  %g2, 0x3ac, %g2
   12054:	84 05 c0 02 	add  %l7, %g2, %g2
   12058:	c6 68 80 01 	ldstub  [ %g2 + %g1 ], %g3
   1205c:	80 a0 e0 00 	cmp  %g3, 0
   12060:	32 bf ff fc 	bne,a   12050 <_stdio_openlist_dec_use+0x230>
   12064:	05 00 00 00 	sethi  %hi(0), %g2
   12068:	c6 07 40 00 	ld  [ %i5 ], %g3
   1206c:	c0 28 80 01 	clrb  [ %g2 + %g1 ]
   12070:	c0 27 40 00 	clr  [ %i5 ]
   12074:	80 a0 e0 01 	cmp  %g3, 1
   12078:	04 80 00 0a 	ble  120a0 <_stdio_openlist_dec_use+0x280>
   1207c:	82 10 20 8e 	mov  0x8e, %g1
   12080:	96 10 20 00 	clr  %o3
   12084:	94 10 20 01 	mov  1, %o2
   12088:	92 10 20 81 	mov  0x81, %o1
   1208c:	90 10 00 1d 	mov  %i5, %o0
   12090:	91 d0 20 10 	ta  0x10
   12094:	1a 80 00 03 	bcc  120a0 <_stdio_openlist_dec_use+0x280>
   12098:	82 10 00 08 	mov  %o0, %g1
   1209c:	82 20 00 08 	neg  %o0, %g1
   120a0:	81 c7 e0 08 	ret 
   120a4:	81 e8 00 00 	restore 
   120a8:	82 08 80 10 	and  %g2, %l0, %g1
   120ac:	83 28 60 10 	sll  %g1, 0x10, %g1
   120b0:	83 30 60 10 	srl  %g1, 0x10, %g1
   120b4:	80 a0 60 30 	cmp  %g1, 0x30
   120b8:	12 80 00 0a 	bne  120e0 <_stdio_openlist_dec_use+0x2c0>
   120bc:	e2 02 20 20 	ld  [ %o0 + 0x20 ], %l1
   120c0:	80 a6 20 00 	cmp  %i0, 0
   120c4:	32 80 00 03 	bne,a   120d0 <_stdio_openlist_dec_use+0x2b0>
   120c8:	e2 26 20 20 	st  %l1, [ %i0 + 0x20 ]
   120cc:	e2 26 40 00 	st  %l1, [ %i1 ]
   120d0:	80 8c 80 02 	btst  %l2, %g2
   120d4:	12 80 00 06 	bne  120ec <_stdio_openlist_dec_use+0x2cc>
   120d8:	01 00 00 00 	nop 
   120dc:	90 10 00 18 	mov  %i0, %o0
   120e0:	b0 10 00 08 	mov  %o0, %i0
   120e4:	10 bf ff a9 	b  11f88 <_stdio_openlist_dec_use+0x168>
   120e8:	90 10 00 11 	mov  %l1, %o0
   120ec:	40 00 09 ac 	call  1479c <free>
   120f0:	01 00 00 00 	nop 
   120f4:	10 bf ff fb 	b  120e0 <_stdio_openlist_dec_use+0x2c0>
   120f8:	90 10 00 18 	mov  %i0, %o0

000120fc <__GI_fflush_unlocked>:
   120fc:	9d e3 bf a0 	save  %sp, -96, %sp
   12100:	2f 00 00 b7 	sethi  %hi(0x2dc00), %l7
   12104:	7f ff f9 c8 	call  10824 <__sparc_get_pc_thunk.l7>
   12108:	ae 05 e1 c8 	add  %l7, 0x1c8, %l7	! 2ddc8 <__FRAME_END__+0x56d0>
   1210c:	3b 00 00 00 	sethi  %hi(0), %i5
   12110:	ba 1f 62 6c 	xor  %i5, 0x26c, %i5
   12114:	ba 05 c0 1d 	add  %l7, %i5, %i5
   12118:	80 a6 00 1d 	cmp  %i0, %i5
   1211c:	02 80 00 16 	be  12174 <__GI_fflush_unlocked+0x78>
   12120:	b8 10 00 18 	mov  %i0, %i4
   12124:	80 a6 20 00 	cmp  %i0, 0
   12128:	02 80 00 14 	be  12178 <__GI_fflush_unlocked+0x7c>
   1212c:	b6 10 21 00 	mov  0x100, %i3
   12130:	c2 16 00 00 	lduh  [ %i0 ], %g1
   12134:	80 88 60 40 	btst  0x40, %g1
   12138:	22 80 00 96 	be,a   12390 <__GI_fflush_unlocked+0x294>
   1213c:	b0 10 20 00 	clr  %i0
   12140:	90 10 00 18 	mov  %i0, %o0
   12144:	40 00 22 28 	call  1a9e4 <__stdio_wcommit>
   12148:	b0 10 3f ff 	mov  -1, %i0
   1214c:	80 a2 20 00 	cmp  %o0, 0
   12150:	12 80 00 90 	bne  12390 <__GI_fflush_unlocked+0x294>
   12154:	01 00 00 00 	nop 
   12158:	c2 07 20 08 	ld  [ %i4 + 8 ], %g1
   1215c:	c2 27 20 1c 	st  %g1, [ %i4 + 0x1c ]
   12160:	c2 17 00 00 	lduh  [ %i4 ], %g1
   12164:	82 08 7f bf 	and  %g1, -65, %g1
   12168:	c2 37 00 00 	sth  %g1, [ %i4 ]
   1216c:	81 c7 e0 08 	ret 
   12170:	91 e8 20 00 	restore  %g0, 0, %o0
   12174:	b6 10 20 00 	clr  %i3
   12178:	39 00 00 01 	sethi  %hi(0x400), %i4
   1217c:	b8 1f 23 8c 	xor  %i4, 0x38c, %i4
   12180:	b8 05 c0 1c 	add  %l7, %i4, %i4
   12184:	c2 07 20 08 	ld  [ %i4 + 8 ], %g1
   12188:	80 a0 40 07 	cmp  %g1, %g7
   1218c:	02 80 00 19 	be  121f0 <__GI_fflush_unlocked+0xf4>
   12190:	b4 10 00 07 	mov  %g7, %i2
   12194:	83 3f 20 02 	sra  %i4, 2, %g1
   12198:	85 3f 20 0c 	sra  %i4, 0xc, %g2
   1219c:	82 18 40 02 	xor  %g1, %g2, %g1
   121a0:	82 08 60 3f 	and  %g1, 0x3f, %g1
   121a4:	05 00 00 00 	sethi  %hi(0), %g2
   121a8:	84 18 a3 ac 	xor  %g2, 0x3ac, %g2
   121ac:	84 05 c0 02 	add  %l7, %g2, %g2
   121b0:	c6 68 80 01 	ldstub  [ %g2 + %g1 ], %g3
   121b4:	80 a0 e0 00 	cmp  %g3, 0
   121b8:	32 bf ff fc 	bne,a   121a8 <__GI_fflush_unlocked+0xac>
   121bc:	05 00 00 00 	sethi  %hi(0), %g2
   121c0:	c6 07 00 00 	ld  [ %i4 ], %g3
   121c4:	80 a0 e0 00 	cmp  %g3, 0
   121c8:	12 80 00 03 	bne  121d4 <__GI_fflush_unlocked+0xd8>
   121cc:	88 10 20 01 	mov  1, %g4
   121d0:	c8 27 00 00 	st  %g4, [ %i4 ]
   121d4:	c0 28 80 01 	clrb  [ %g2 + %g1 ]
   121d8:	80 a0 e0 00 	cmp  %g3, 0
   121dc:	22 80 00 05 	be,a   121f0 <__GI_fflush_unlocked+0xf4>
   121e0:	f4 27 20 08 	st  %i2, [ %i4 + 8 ]
   121e4:	40 00 0f fd 	call  161d8 <__lll_lock_wait_private>
   121e8:	90 10 00 1c 	mov  %i4, %o0
   121ec:	f4 27 20 08 	st  %i2, [ %i4 + 8 ]
   121f0:	03 00 00 01 	sethi  %hi(0x400), %g1
   121f4:	82 18 63 88 	xor  %g1, 0x388, %g1
   121f8:	82 05 c0 01 	add  %l7, %g1, %g1
   121fc:	c4 00 40 00 	ld  [ %g1 ], %g2
   12200:	84 00 a0 01 	inc  %g2
   12204:	c4 20 40 00 	st  %g2, [ %g1 ]
   12208:	c6 07 20 04 	ld  [ %i4 + 4 ], %g3
   1220c:	80 a0 e0 00 	cmp  %g3, 0
   12210:	32 80 00 1e 	bne,a   12288 <__GI_fflush_unlocked+0x18c>
   12214:	39 00 00 01 	sethi  %hi(0x400), %i4
   12218:	83 3f 20 02 	sra  %i4, 2, %g1
   1221c:	85 3f 20 0c 	sra  %i4, 0xc, %g2
   12220:	c0 27 20 08 	clr  [ %i4 + 8 ]
   12224:	82 18 40 02 	xor  %g1, %g2, %g1
   12228:	82 08 60 3f 	and  %g1, 0x3f, %g1
   1222c:	05 00 00 00 	sethi  %hi(0), %g2
   12230:	84 18 a3 ac 	xor  %g2, 0x3ac, %g2
   12234:	84 05 c0 02 	add  %l7, %g2, %g2
   12238:	c6 68 80 01 	ldstub  [ %g2 + %g1 ], %g3
   1223c:	80 a0 e0 00 	cmp  %g3, 0
   12240:	32 bf ff fc 	bne,a   12230 <__GI_fflush_unlocked+0x134>
   12244:	05 00 00 00 	sethi  %hi(0), %g2
   12248:	c6 07 00 00 	ld  [ %i4 ], %g3
   1224c:	c0 28 80 01 	clrb  [ %g2 + %g1 ]
   12250:	c0 27 00 00 	clr  [ %i4 ]
   12254:	80 a0 e0 01 	cmp  %g3, 1
   12258:	24 80 00 0c 	ble,a   12288 <__GI_fflush_unlocked+0x18c>
   1225c:	39 00 00 01 	sethi  %hi(0x400), %i4
   12260:	82 10 20 8e 	mov  0x8e, %g1
   12264:	96 10 20 00 	clr  %o3
   12268:	94 10 20 01 	mov  1, %o2
   1226c:	92 10 20 81 	mov  0x81, %o1
   12270:	90 10 00 1c 	mov  %i4, %o0
   12274:	91 d0 20 10 	ta  0x10
   12278:	1a 80 00 03 	bcc  12284 <__GI_fflush_unlocked+0x188>
   1227c:	82 10 00 08 	mov  %o0, %g1
   12280:	82 20 00 08 	neg  %o0, %g1
   12284:	39 00 00 01 	sethi  %hi(0x400), %i4
   12288:	b8 1f 23 98 	xor  %i4, 0x398, %i4
   1228c:	b8 05 c0 1c 	add  %l7, %i4, %i4
   12290:	c2 07 20 08 	ld  [ %i4 + 8 ], %g1
   12294:	80 a0 40 07 	cmp  %g1, %g7
   12298:	02 80 00 19 	be  122fc <__GI_fflush_unlocked+0x200>
   1229c:	b4 10 00 07 	mov  %g7, %i2
   122a0:	83 3f 20 02 	sra  %i4, 2, %g1
   122a4:	85 3f 20 0c 	sra  %i4, 0xc, %g2
   122a8:	82 18 40 02 	xor  %g1, %g2, %g1
   122ac:	82 08 60 3f 	and  %g1, 0x3f, %g1
   122b0:	05 00 00 00 	sethi  %hi(0), %g2
   122b4:	84 18 a3 ac 	xor  %g2, 0x3ac, %g2
   122b8:	84 05 c0 02 	add  %l7, %g2, %g2
   122bc:	c6 68 80 01 	ldstub  [ %g2 + %g1 ], %g3
   122c0:	80 a0 e0 00 	cmp  %g3, 0
   122c4:	32 bf ff fc 	bne,a   122b4 <__GI_fflush_unlocked+0x1b8>
   122c8:	05 00 00 00 	sethi  %hi(0), %g2
   122cc:	c6 07 00 00 	ld  [ %i4 ], %g3
   122d0:	80 a0 e0 00 	cmp  %g3, 0
   122d4:	12 80 00 03 	bne  122e0 <__GI_fflush_unlocked+0x1e4>
   122d8:	88 10 20 01 	mov  1, %g4
   122dc:	c8 27 00 00 	st  %g4, [ %i4 ]
   122e0:	c0 28 80 01 	clrb  [ %g2 + %g1 ]
   122e4:	80 a0 e0 00 	cmp  %g3, 0
   122e8:	22 80 00 05 	be,a   122fc <__GI_fflush_unlocked+0x200>
   122ec:	f4 27 20 08 	st  %i2, [ %i4 + 8 ]
   122f0:	40 00 0f ba 	call  161d8 <__lll_lock_wait_private>
   122f4:	90 10 00 1c 	mov  %i4, %o0
   122f8:	f4 27 20 08 	st  %i2, [ %i4 + 8 ]
   122fc:	c2 07 20 04 	ld  [ %i4 + 4 ], %g1
   12300:	80 a0 60 00 	cmp  %g1, 0
   12304:	12 80 00 1d 	bne  12378 <__GI_fflush_unlocked+0x27c>
   12308:	fa 07 40 00 	ld  [ %i5 ], %i5
   1230c:	83 3f 20 02 	sra  %i4, 2, %g1
   12310:	85 3f 20 0c 	sra  %i4, 0xc, %g2
   12314:	c0 27 20 08 	clr  [ %i4 + 8 ]
   12318:	82 18 40 02 	xor  %g1, %g2, %g1
   1231c:	82 08 60 3f 	and  %g1, 0x3f, %g1
   12320:	05 00 00 00 	sethi  %hi(0), %g2
   12324:	84 18 a3 ac 	xor  %g2, 0x3ac, %g2
   12328:	84 05 c0 02 	add  %l7, %g2, %g2
   1232c:	c6 68 80 01 	ldstub  [ %g2 + %g1 ], %g3
   12330:	80 a0 e0 00 	cmp  %g3, 0
   12334:	32 bf ff fc 	bne,a   12324 <__GI_fflush_unlocked+0x228>
   12338:	05 00 00 00 	sethi  %hi(0), %g2
   1233c:	c6 07 00 00 	ld  [ %i4 ], %g3
   12340:	c0 28 80 01 	clrb  [ %g2 + %g1 ]
   12344:	c0 27 00 00 	clr  [ %i4 ]
   12348:	80 a0 e0 01 	cmp  %g3, 1
   1234c:	04 80 00 0c 	ble  1237c <__GI_fflush_unlocked+0x280>
   12350:	b0 10 20 00 	clr  %i0
   12354:	82 10 20 8e 	mov  0x8e, %g1
   12358:	96 10 20 00 	clr  %o3
   1235c:	94 10 20 01 	mov  1, %o2
   12360:	92 10 20 81 	mov  0x81, %o1
   12364:	90 10 00 1c 	mov  %i4, %o0
   12368:	91 d0 20 10 	ta  0x10
   1236c:	1a 80 00 03 	bcc  12378 <__GI_fflush_unlocked+0x27c>
   12370:	82 10 00 08 	mov  %o0, %g1
   12374:	82 20 00 08 	neg  %o0, %g1
   12378:	b0 10 20 00 	clr  %i0
   1237c:	80 a7 60 00 	cmp  %i5, 0
   12380:	32 80 00 06 	bne,a   12398 <__GI_fflush_unlocked+0x29c>
   12384:	c2 17 40 00 	lduh  [ %i5 ], %g1
   12388:	7f ff fe a6 	call  11e20 <_stdio_openlist_dec_use>
   1238c:	01 00 00 00 	nop 
   12390:	81 c7 e0 08 	ret 
   12394:	81 e8 00 00 	restore 
   12398:	80 88 60 40 	btst  0x40, %g1
   1239c:	22 bf ff f8 	be,a   1237c <__GI_fflush_unlocked+0x280>
   123a0:	fa 07 60 20 	ld  [ %i5 + 0x20 ], %i5
   123a4:	03 00 00 00 	sethi  %hi(0), %g1
   123a8:	82 18 62 68 	xor  %g1, 0x268, %g1
   123ac:	b8 05 c0 01 	add  %l7, %g1, %i4
   123b0:	c2 07 00 00 	ld  [ %i4 ], %g1
   123b4:	80 a0 60 02 	cmp  %g1, 2
   123b8:	22 80 00 22 	be,a   12440 <__GI_fflush_unlocked+0x344>
   123bc:	c2 17 40 00 	lduh  [ %i5 ], %g1
   123c0:	c2 07 60 44 	ld  [ %i5 + 0x44 ], %g1
   123c4:	80 a0 40 07 	cmp  %g1, %g7
   123c8:	02 80 00 1a 	be  12430 <__GI_fflush_unlocked+0x334>
   123cc:	b4 10 00 07 	mov  %g7, %i2
   123d0:	90 07 60 3c 	add  %i5, 0x3c, %o0
   123d4:	83 3a 20 02 	sra  %o0, 2, %g1
   123d8:	85 3a 20 0c 	sra  %o0, 0xc, %g2
   123dc:	82 18 40 02 	xor  %g1, %g2, %g1
   123e0:	82 08 60 3f 	and  %g1, 0x3f, %g1
   123e4:	05 00 00 00 	sethi  %hi(0), %g2
   123e8:	84 18 a3 ac 	xor  %g2, 0x3ac, %g2
   123ec:	84 05 c0 02 	add  %l7, %g2, %g2
   123f0:	c6 68 80 01 	ldstub  [ %g2 + %g1 ], %g3
   123f4:	80 a0 e0 00 	cmp  %g3, 0
   123f8:	32 bf ff fc 	bne,a   123e8 <__GI_fflush_unlocked+0x2ec>
   123fc:	05 00 00 00 	sethi  %hi(0), %g2
   12400:	c6 07 60 3c 	ld  [ %i5 + 0x3c ], %g3
   12404:	80 a0 e0 00 	cmp  %g3, 0
   12408:	12 80 00 03 	bne  12414 <__GI_fflush_unlocked+0x318>
   1240c:	88 10 20 01 	mov  1, %g4
   12410:	c8 27 60 3c 	st  %g4, [ %i5 + 0x3c ]
   12414:	c0 28 80 01 	clrb  [ %g2 + %g1 ]
   12418:	80 a0 e0 00 	cmp  %g3, 0
   1241c:	22 80 00 05 	be,a   12430 <__GI_fflush_unlocked+0x334>
   12420:	f4 27 60 44 	st  %i2, [ %i5 + 0x44 ]
   12424:	40 00 0f 6d 	call  161d8 <__lll_lock_wait_private>
   12428:	01 00 00 00 	nop 
   1242c:	f4 27 60 44 	st  %i2, [ %i5 + 0x44 ]
   12430:	c2 07 60 40 	ld  [ %i5 + 0x40 ], %g1
   12434:	82 00 60 01 	inc  %g1
   12438:	c2 27 60 40 	st  %g1, [ %i5 + 0x40 ]
   1243c:	c2 17 40 00 	lduh  [ %i5 ], %g1
   12440:	82 10 40 1b 	or  %g1, %i3, %g1
   12444:	82 18 61 40 	xor  %g1, 0x140, %g1
   12448:	80 88 63 40 	btst  0x340, %g1
   1244c:	32 80 00 0d 	bne,a   12480 <__GI_fflush_unlocked+0x384>
   12450:	c2 07 00 00 	ld  [ %i4 ], %g1
   12454:	40 00 21 64 	call  1a9e4 <__stdio_wcommit>
   12458:	90 10 00 1d 	mov  %i5, %o0
   1245c:	80 a2 20 00 	cmp  %o0, 0
   12460:	32 80 00 07 	bne,a   1247c <__GI_fflush_unlocked+0x380>
   12464:	b0 10 3f ff 	mov  -1, %i0
   12468:	c2 07 60 08 	ld  [ %i5 + 8 ], %g1
   1246c:	c2 27 60 1c 	st  %g1, [ %i5 + 0x1c ]
   12470:	c2 17 40 00 	lduh  [ %i5 ], %g1
   12474:	82 08 7f bf 	and  %g1, -65, %g1
   12478:	c2 37 40 00 	sth  %g1, [ %i5 ]
   1247c:	c2 07 00 00 	ld  [ %i4 ], %g1
   12480:	80 a0 60 02 	cmp  %g1, 2
   12484:	22 bf ff be 	be,a   1237c <__GI_fflush_unlocked+0x280>
   12488:	fa 07 60 20 	ld  [ %i5 + 0x20 ], %i5
   1248c:	c2 07 60 40 	ld  [ %i5 + 0x40 ], %g1
   12490:	82 00 7f ff 	add  %g1, -1, %g1
   12494:	80 a0 60 00 	cmp  %g1, 0
   12498:	12 80 00 1d 	bne  1250c <__GI_fflush_unlocked+0x410>
   1249c:	c2 27 60 40 	st  %g1, [ %i5 + 0x40 ]
   124a0:	90 07 60 3c 	add  %i5, 0x3c, %o0
   124a4:	c0 27 60 44 	clr  [ %i5 + 0x44 ]
   124a8:	83 3a 20 02 	sra  %o0, 2, %g1
   124ac:	85 3a 20 0c 	sra  %o0, 0xc, %g2
   124b0:	82 18 40 02 	xor  %g1, %g2, %g1
   124b4:	82 08 60 3f 	and  %g1, 0x3f, %g1
   124b8:	05 00 00 00 	sethi  %hi(0), %g2
   124bc:	84 18 a3 ac 	xor  %g2, 0x3ac, %g2
   124c0:	84 05 c0 02 	add  %l7, %g2, %g2
   124c4:	c6 68 80 01 	ldstub  [ %g2 + %g1 ], %g3
   124c8:	80 a0 e0 00 	cmp  %g3, 0
   124cc:	32 bf ff fc 	bne,a   124bc <__GI_fflush_unlocked+0x3c0>
   124d0:	05 00 00 00 	sethi  %hi(0), %g2
   124d4:	c6 07 60 3c 	ld  [ %i5 + 0x3c ], %g3
   124d8:	c0 27 60 3c 	clr  [ %i5 + 0x3c ]
   124dc:	c0 28 80 01 	clrb  [ %g2 + %g1 ]
   124e0:	80 a0 e0 01 	cmp  %g3, 1
   124e4:	24 bf ff a6 	ble,a   1237c <__GI_fflush_unlocked+0x280>
   124e8:	fa 07 60 20 	ld  [ %i5 + 0x20 ], %i5
   124ec:	82 10 20 8e 	mov  0x8e, %g1
   124f0:	96 10 20 00 	clr  %o3
   124f4:	94 10 20 01 	mov  1, %o2
   124f8:	92 10 20 81 	mov  0x81, %o1
   124fc:	91 d0 20 10 	ta  0x10
   12500:	1a 80 00 03 	bcc  1250c <__GI_fflush_unlocked+0x410>
   12504:	82 10 00 08 	mov  %o0, %g1
   12508:	82 20 00 08 	neg  %o0, %g1
   1250c:	10 bf ff 9c 	b  1237c <__GI_fflush_unlocked+0x280>
   12510:	fa 07 60 20 	ld  [ %i5 + 0x20 ], %i5

00012514 <__GI_fputs_unlocked>:
   12514:	9d e3 bf a0 	save  %sp, -96, %sp
   12518:	40 00 07 3a 	call  14200 <__GI_strlen>
   1251c:	90 10 00 18 	mov  %i0, %o0
   12520:	96 10 00 19 	mov  %i1, %o3
   12524:	ba 10 00 08 	mov  %o0, %i5
   12528:	94 10 00 08 	mov  %o0, %o2
   1252c:	92 10 20 01 	mov  1, %o1
   12530:	90 10 00 18 	mov  %i0, %o0
   12534:	40 00 00 07 	call  12550 <__GI_fwrite_unlocked>
   12538:	b0 10 3f ff 	mov  -1, %i0
   1253c:	80 a2 00 1d 	cmp  %o0, %i5
   12540:	22 80 00 02 	be,a   12548 <__GI_fputs_unlocked+0x34>
   12544:	b0 10 00 08 	mov  %o0, %i0
   12548:	81 c7 e0 08 	ret 
   1254c:	81 e8 00 00 	restore 

00012550 <__GI_fwrite_unlocked>:
   12550:	9d e3 bf a0 	save  %sp, -96, %sp
   12554:	2f 00 00 b6 	sethi  %hi(0x2d800), %l7
   12558:	7f ff f8 b3 	call  10824 <__sparc_get_pc_thunk.l7>
   1255c:	ae 05 e1 74 	add  %l7, 0x174, %l7	! 2d974 <__FRAME_END__+0x527c>
   12560:	c2 16 c0 00 	lduh  [ %i3 ], %g1
   12564:	82 08 60 c0 	and  %g1, 0xc0, %g1
   12568:	80 a0 60 c0 	cmp  %g1, 0xc0
   1256c:	12 80 00 09 	bne  12590 <__GI_fwrite_unlocked+0x40>
   12570:	92 10 20 80 	mov  0x80, %o1
   12574:	80 a6 60 00 	cmp  %i1, 0
   12578:	02 80 00 04 	be  12588 <__GI_fwrite_unlocked+0x38>
   1257c:	80 a6 a0 00 	cmp  %i2, 0
   12580:	12 80 00 0a 	bne  125a8 <__GI_fwrite_unlocked+0x58>
   12584:	01 00 00 00 	nop 
   12588:	81 c7 e0 08 	ret 
   1258c:	91 e8 20 00 	restore  %g0, 0, %o0
   12590:	40 00 20 d0 	call  1a8d0 <__stdio_trans2w_o>
   12594:	90 10 00 1b 	mov  %i3, %o0
   12598:	80 a2 20 00 	cmp  %o0, 0
   1259c:	02 bf ff f7 	be  12578 <__GI_fwrite_unlocked+0x28>
   125a0:	80 a6 60 00 	cmp  %i1, 0
   125a4:	30 bf ff f9 	b,a   12588 <__GI_fwrite_unlocked+0x38>
   125a8:	80 56 40 1a 	umul  %i1, %i2, %g0
   125ac:	83 40 00 00 	rd  %y, %g1
   125b0:	80 a0 60 00 	cmp  %g1, 0
   125b4:	12 80 00 0c 	bne  125e4 <__GI_fwrite_unlocked+0x94>
   125b8:	94 10 00 1b 	mov  %i3, %o2
   125bc:	92 5e 40 1a 	smul  %i1, %i2, %o1
   125c0:	40 00 20 02 	call  1a5c8 <__stdio_fwrite>
   125c4:	90 10 00 18 	mov  %i0, %o0
   125c8:	81 80 20 00 	wr  %g0, %y
   125cc:	01 00 00 00 	nop 
   125d0:	01 00 00 00 	nop 
   125d4:	01 00 00 00 	nop 
   125d8:	b0 72 00 19 	udiv  %o0, %i1, %i0
   125dc:	81 c7 e0 08 	ret 
   125e0:	81 e8 00 00 	restore 
   125e4:	c2 16 c0 00 	lduh  [ %i3 ], %g1
   125e8:	82 10 60 08 	or  %g1, 8, %g1
   125ec:	c2 36 c0 00 	sth  %g1, [ %i3 ]
   125f0:	03 00 00 00 	sethi  %hi(0), %g1
   125f4:	82 18 7f f8 	xor  %g1, -8, %g1
   125f8:	ae 10 00 01 	mov  %g1, %l7
   125fc:	82 10 20 16 	mov  0x16, %g1
   12600:	10 bf ff e2 	b  12588 <__GI_fwrite_unlocked+0x38>
   12604:	c2 21 c0 17 	st  %g1, [ %g7 + %l7 ]
   12608:	80 8a 60 01 	btst  1, %o1
   1260c:	02 80 00 08 	be  1262c <__GI_fwrite_unlocked+0xdc>
   12610:	80 8a 60 02 	btst  2, %o1
   12614:	c4 0a 7f ff 	ldub  [ %o1 + -1 ], %g2
   12618:	92 22 60 01 	dec  %o1
   1261c:	c4 2a 3f ff 	stb  %g2, [ %o0 + -1 ]
   12620:	94 22 a0 01 	dec  %o2
   12624:	02 80 00 1a 	be  1268c <__GI_memmove+0x3c>
   12628:	90 22 20 01 	dec  %o0
   1262c:	c4 12 7f fe 	lduh  [ %o1 + -2 ], %g2
   12630:	92 22 60 02 	sub  %o1, 2, %o1
   12634:	c4 32 3f fe 	sth  %g2, [ %o0 + -2 ]
   12638:	94 22 a0 02 	sub  %o2, 2, %o2
   1263c:	10 80 00 14 	b  1268c <__GI_memmove+0x3c>
   12640:	90 22 20 02 	sub  %o0, 2, %o0

00012644 <bcopy>:
   12644:	96 10 00 08 	mov  %o0, %o3
   12648:	90 10 00 09 	mov  %o1, %o0
   1264c:	92 10 00 0b 	mov  %o3, %o1

00012650 <__GI_memmove>:
   12650:	80 a2 00 09 	cmp  %o0, %o1
   12654:	d0 23 a0 40 	st  %o0, [ %sp + 0x40 ]
   12658:	08 80 01 79 	bleu  12c3c <__GI_memcpy+0x8>
   1265c:	98 22 00 09 	sub  %o0, %o1, %o4
   12660:	96 02 40 0a 	add  %o1, %o2, %o3
   12664:	80 a2 c0 08 	cmp  %o3, %o0
   12668:	08 80 01 76 	bleu  12c40 <__GI_memcpy+0xc>
   1266c:	9a 8b 20 03 	andcc  %o4, 3, %o5
   12670:	92 02 40 0a 	add  %o1, %o2, %o1
   12674:	90 02 00 0a 	add  %o0, %o2, %o0
   12678:	12 80 00 f9 	bne  12a5c <__GI_memmove+0x40c>
   1267c:	80 a2 a0 0f 	cmp  %o2, 0xf
   12680:	08 80 00 eb 	bleu  12a2c <__GI_memmove+0x3dc>
   12684:	80 8a 60 03 	btst  3, %o1
   12688:	12 bf ff e0 	bne  12608 <__GI_fwrite_unlocked+0xb8>
   1268c:	80 8a 60 04 	btst  4, %o1
   12690:	02 80 00 07 	be  126ac <__GI_memmove+0x5c>
   12694:	82 10 00 0a 	mov  %o2, %g1
   12698:	d8 02 7f fc 	ld  [ %o1 + -4 ], %o4
   1269c:	82 20 60 04 	sub  %g1, 4, %g1
   126a0:	d8 22 3f fc 	st  %o4, [ %o0 + -4 ]
   126a4:	92 22 60 04 	sub  %o1, 4, %o1
   126a8:	90 22 20 04 	sub  %o0, 4, %o0
   126ac:	8c 88 7f 80 	andcc  %g1, -128, %g6
   126b0:	02 80 00 37 	be  1278c <__GI_memmove+0x13c>
   126b4:	80 8a 20 04 	btst  4, %o0
   126b8:	02 80 00 84 	be  128c8 <__GI_memmove+0x278>
   126bc:	d4 1a 7f e0 	ldd  [ %o1 + -32 ], %o2
   126c0:	d8 1a 7f e8 	ldd  [ %o1 + -24 ], %o4
   126c4:	c4 1a 7f f0 	ldd  [ %o1 + -16 ], %g2
   126c8:	c8 1a 7f f8 	ldd  [ %o1 + -8 ], %g4
   126cc:	d4 22 3f e0 	st  %o2, [ %o0 + -32 ]
   126d0:	d6 22 3f e4 	st  %o3, [ %o0 + -28 ]
   126d4:	d8 22 3f e8 	st  %o4, [ %o0 + -24 ]
   126d8:	da 22 3f ec 	st  %o5, [ %o0 + -20 ]
   126dc:	c4 22 3f f0 	st  %g2, [ %o0 + -16 ]
   126e0:	c6 22 3f f4 	st  %g3, [ %o0 + -12 ]
   126e4:	c8 22 3f f8 	st  %g4, [ %o0 + -8 ]
   126e8:	ca 22 3f fc 	st  %g5, [ %o0 + -4 ]
   126ec:	d4 1a 7f c0 	ldd  [ %o1 + -64 ], %o2
   126f0:	d8 1a 7f c8 	ldd  [ %o1 + -56 ], %o4
   126f4:	c4 1a 7f d0 	ldd  [ %o1 + -48 ], %g2
   126f8:	c8 1a 7f d8 	ldd  [ %o1 + -40 ], %g4
   126fc:	d4 22 3f c0 	st  %o2, [ %o0 + -64 ]
   12700:	d6 22 3f c4 	st  %o3, [ %o0 + -60 ]
   12704:	d8 22 3f c8 	st  %o4, [ %o0 + -56 ]
   12708:	da 22 3f cc 	st  %o5, [ %o0 + -52 ]
   1270c:	c4 22 3f d0 	st  %g2, [ %o0 + -48 ]
   12710:	c6 22 3f d4 	st  %g3, [ %o0 + -44 ]
   12714:	c8 22 3f d8 	st  %g4, [ %o0 + -40 ]
   12718:	ca 22 3f dc 	st  %g5, [ %o0 + -36 ]
   1271c:	d4 1a 7f a0 	ldd  [ %o1 + -96 ], %o2
   12720:	d8 1a 7f a8 	ldd  [ %o1 + -88 ], %o4
   12724:	c4 1a 7f b0 	ldd  [ %o1 + -80 ], %g2
   12728:	c8 1a 7f b8 	ldd  [ %o1 + -72 ], %g4
   1272c:	d4 22 3f a0 	st  %o2, [ %o0 + -96 ]
   12730:	d6 22 3f a4 	st  %o3, [ %o0 + -92 ]
   12734:	d8 22 3f a8 	st  %o4, [ %o0 + -88 ]
   12738:	da 22 3f ac 	st  %o5, [ %o0 + -84 ]
   1273c:	c4 22 3f b0 	st  %g2, [ %o0 + -80 ]
   12740:	c6 22 3f b4 	st  %g3, [ %o0 + -76 ]
   12744:	c8 22 3f b8 	st  %g4, [ %o0 + -72 ]
   12748:	ca 22 3f bc 	st  %g5, [ %o0 + -68 ]
   1274c:	d4 1a 7f 80 	ldd  [ %o1 + -128 ], %o2
   12750:	d8 1a 7f 88 	ldd  [ %o1 + -120 ], %o4
   12754:	c4 1a 7f 90 	ldd  [ %o1 + -112 ], %g2
   12758:	c8 1a 7f 98 	ldd  [ %o1 + -104 ], %g4
   1275c:	d4 22 3f 80 	st  %o2, [ %o0 + -128 ]
   12760:	d6 22 3f 84 	st  %o3, [ %o0 + -124 ]
   12764:	d8 22 3f 88 	st  %o4, [ %o0 + -120 ]
   12768:	da 22 3f 8c 	st  %o5, [ %o0 + -116 ]
   1276c:	c4 22 3f 90 	st  %g2, [ %o0 + -112 ]
   12770:	c6 22 3f 94 	st  %g3, [ %o0 + -108 ]
   12774:	c8 22 3f 98 	st  %g4, [ %o0 + -104 ]
   12778:	ca 22 3f 9c 	st  %g5, [ %o0 + -100 ]
   1277c:	8c a1 a0 80 	subcc  %g6, 0x80, %g6
   12780:	92 22 60 80 	sub  %o1, 0x80, %o1
   12784:	12 bf ff ce 	bne  126bc <__GI_memmove+0x6c>
   12788:	90 22 20 80 	sub  %o0, 0x80, %o0
   1278c:	8c 88 60 70 	andcc  %g1, 0x70, %g6
   12790:	02 80 00 34 	be  12860 <__GI_memmove+0x210>
   12794:	80 88 60 08 	btst  8, %g1
   12798:	99 31 a0 01 	srl  %g6, 1, %o4
   1279c:	84 10 00 0f 	mov  %o7, %g2
   127a0:	98 01 80 0c 	add  %g6, %o4, %o4
   127a4:	40 00 05 3d 	call  13c98 <__GI_memcpy+0x1064>
   127a8:	92 22 40 06 	sub  %o1, %g6, %o1
   127ac:	9e 10 00 02 	mov  %g2, %o7
   127b0:	81 c3 60 bc 	jmp  %o5 + 0xbc
   127b4:	90 22 00 06 	sub  %o0, %g6, %o0
   127b8:	c4 1a 60 60 	ldd  [ %o1 + 0x60 ], %g2
   127bc:	c8 1a 60 68 	ldd  [ %o1 + 0x68 ], %g4
   127c0:	c4 22 20 60 	st  %g2, [ %o0 + 0x60 ]
   127c4:	c6 22 20 64 	st  %g3, [ %o0 + 0x64 ]
   127c8:	c8 22 20 68 	st  %g4, [ %o0 + 0x68 ]
   127cc:	ca 22 20 6c 	st  %g5, [ %o0 + 0x6c ]
   127d0:	c4 1a 60 50 	ldd  [ %o1 + 0x50 ], %g2
   127d4:	c8 1a 60 58 	ldd  [ %o1 + 0x58 ], %g4
   127d8:	c4 22 20 50 	st  %g2, [ %o0 + 0x50 ]
   127dc:	c6 22 20 54 	st  %g3, [ %o0 + 0x54 ]
   127e0:	c8 22 20 58 	st  %g4, [ %o0 + 0x58 ]
   127e4:	ca 22 20 5c 	st  %g5, [ %o0 + 0x5c ]
   127e8:	c4 1a 60 40 	ldd  [ %o1 + 0x40 ], %g2
   127ec:	c8 1a 60 48 	ldd  [ %o1 + 0x48 ], %g4
   127f0:	c4 22 20 40 	st  %g2, [ %o0 + 0x40 ]
   127f4:	c6 22 20 44 	st  %g3, [ %o0 + 0x44 ]
   127f8:	c8 22 20 48 	st  %g4, [ %o0 + 0x48 ]
   127fc:	ca 22 20 4c 	st  %g5, [ %o0 + 0x4c ]
   12800:	c4 1a 60 30 	ldd  [ %o1 + 0x30 ], %g2
   12804:	c8 1a 60 38 	ldd  [ %o1 + 0x38 ], %g4
   12808:	c4 22 20 30 	st  %g2, [ %o0 + 0x30 ]
   1280c:	c6 22 20 34 	st  %g3, [ %o0 + 0x34 ]
   12810:	c8 22 20 38 	st  %g4, [ %o0 + 0x38 ]
   12814:	ca 22 20 3c 	st  %g5, [ %o0 + 0x3c ]
   12818:	c4 1a 60 20 	ldd  [ %o1 + 0x20 ], %g2
   1281c:	c8 1a 60 28 	ldd  [ %o1 + 0x28 ], %g4
   12820:	c4 22 20 20 	st  %g2, [ %o0 + 0x20 ]
   12824:	c6 22 20 24 	st  %g3, [ %o0 + 0x24 ]
   12828:	c8 22 20 28 	st  %g4, [ %o0 + 0x28 ]
   1282c:	ca 22 20 2c 	st  %g5, [ %o0 + 0x2c ]
   12830:	c4 1a 60 10 	ldd  [ %o1 + 0x10 ], %g2
   12834:	c8 1a 60 18 	ldd  [ %o1 + 0x18 ], %g4
   12838:	c4 22 20 10 	st  %g2, [ %o0 + 0x10 ]
   1283c:	c6 22 20 14 	st  %g3, [ %o0 + 0x14 ]
   12840:	c8 22 20 18 	st  %g4, [ %o0 + 0x18 ]
   12844:	ca 22 20 1c 	st  %g5, [ %o0 + 0x1c ]
   12848:	c4 1a 60 00 	ldd  [ %o1 ], %g2
   1284c:	c8 1a 60 08 	ldd  [ %o1 + 8 ], %g4
   12850:	c4 22 20 00 	st  %g2, [ %o0 ]
   12854:	c6 22 20 04 	st  %g3, [ %o0 + 4 ]
   12858:	c8 22 20 08 	st  %g4, [ %o0 + 8 ]
   1285c:	ca 22 20 0c 	st  %g5, [ %o0 + 0xc ]
   12860:	02 80 00 07 	be  1287c <__GI_memmove+0x22c>
   12864:	80 88 60 04 	btst  4, %g1
   12868:	c4 1a 7f f8 	ldd  [ %o1 + -8 ], %g2
   1286c:	90 22 20 08 	sub  %o0, 8, %o0
   12870:	92 22 60 08 	sub  %o1, 8, %o1
   12874:	c4 22 00 00 	st  %g2, [ %o0 ]
   12878:	c6 22 20 04 	st  %g3, [ %o0 + 4 ]
   1287c:	02 80 00 06 	be  12894 <__GI_memmove+0x244>
   12880:	80 88 60 02 	btst  2, %g1
   12884:	c4 02 7f fc 	ld  [ %o1 + -4 ], %g2
   12888:	92 22 60 04 	sub  %o1, 4, %o1
   1288c:	c4 22 3f fc 	st  %g2, [ %o0 + -4 ]
   12890:	90 22 20 04 	sub  %o0, 4, %o0
   12894:	02 80 00 06 	be  128ac <__GI_memmove+0x25c>
   12898:	80 88 60 01 	btst  1, %g1
   1289c:	c4 12 7f fe 	lduh  [ %o1 + -2 ], %g2
   128a0:	92 22 60 02 	sub  %o1, 2, %o1
   128a4:	c4 32 3f fe 	sth  %g2, [ %o0 + -2 ]
   128a8:	90 22 20 02 	sub  %o0, 2, %o0
   128ac:	02 80 00 04 	be  128bc <__GI_memmove+0x26c>
   128b0:	01 00 00 00 	nop 
   128b4:	c4 0a 7f ff 	ldub  [ %o1 + -1 ], %g2
   128b8:	c4 2a 3f ff 	stb  %g2, [ %o0 + -1 ]
   128bc:	81 c3 e0 08 	retl 
   128c0:	d0 03 a0 40 	ld  [ %sp + 0x40 ], %o0
   128c4:	d4 1a 7f e0 	ldd  [ %o1 + -32 ], %o2
   128c8:	d8 1a 7f e8 	ldd  [ %o1 + -24 ], %o4
   128cc:	c4 1a 7f f0 	ldd  [ %o1 + -16 ], %g2
   128d0:	c8 1a 7f f8 	ldd  [ %o1 + -8 ], %g4
   128d4:	d4 3a 3f e0 	std  %o2, [ %o0 + -32 ]
   128d8:	d8 3a 3f e8 	std  %o4, [ %o0 + -24 ]
   128dc:	c4 3a 3f f0 	std  %g2, [ %o0 + -16 ]
   128e0:	c8 3a 3f f8 	std  %g4, [ %o0 + -8 ]
   128e4:	d4 1a 7f c0 	ldd  [ %o1 + -64 ], %o2
   128e8:	d8 1a 7f c8 	ldd  [ %o1 + -56 ], %o4
   128ec:	c4 1a 7f d0 	ldd  [ %o1 + -48 ], %g2
   128f0:	c8 1a 7f d8 	ldd  [ %o1 + -40 ], %g4
   128f4:	d4 3a 3f c0 	std  %o2, [ %o0 + -64 ]
   128f8:	d8 3a 3f c8 	std  %o4, [ %o0 + -56 ]
   128fc:	c4 3a 3f d0 	std  %g2, [ %o0 + -48 ]
   12900:	c8 3a 3f d8 	std  %g4, [ %o0 + -40 ]
   12904:	d4 1a 7f a0 	ldd  [ %o1 + -96 ], %o2
   12908:	d8 1a 7f a8 	ldd  [ %o1 + -88 ], %o4
   1290c:	c4 1a 7f b0 	ldd  [ %o1 + -80 ], %g2
   12910:	c8 1a 7f b8 	ldd  [ %o1 + -72 ], %g4
   12914:	d4 3a 3f a0 	std  %o2, [ %o0 + -96 ]
   12918:	d8 3a 3f a8 	std  %o4, [ %o0 + -88 ]
   1291c:	c4 3a 3f b0 	std  %g2, [ %o0 + -80 ]
   12920:	c8 3a 3f b8 	std  %g4, [ %o0 + -72 ]
   12924:	d4 1a 7f 80 	ldd  [ %o1 + -128 ], %o2
   12928:	d8 1a 7f 88 	ldd  [ %o1 + -120 ], %o4
   1292c:	c4 1a 7f 90 	ldd  [ %o1 + -112 ], %g2
   12930:	c8 1a 7f 98 	ldd  [ %o1 + -104 ], %g4
   12934:	d4 3a 3f 80 	std  %o2, [ %o0 + -128 ]
   12938:	d8 3a 3f 88 	std  %o4, [ %o0 + -120 ]
   1293c:	c4 3a 3f 90 	std  %g2, [ %o0 + -112 ]
   12940:	c8 3a 3f 98 	std  %g4, [ %o0 + -104 ]
   12944:	8c a1 a0 80 	subcc  %g6, 0x80, %g6
   12948:	92 22 60 80 	sub  %o1, 0x80, %o1
   1294c:	12 bf ff de 	bne  128c4 <__GI_memmove+0x274>
   12950:	90 22 20 80 	sub  %o0, 0x80, %o0
   12954:	8c 88 60 70 	andcc  %g1, 0x70, %g6
   12958:	02 bf ff c2 	be  12860 <__GI_memmove+0x210>
   1295c:	80 88 60 08 	btst  8, %g1
   12960:	99 31 a0 01 	srl  %g6, 1, %o4
   12964:	84 10 00 0f 	mov  %o7, %g2
   12968:	98 01 80 0c 	add  %g6, %o4, %o4
   1296c:	40 00 04 cb 	call  13c98 <__GI_memcpy+0x1064>
   12970:	92 22 40 06 	sub  %o1, %g6, %o1
   12974:	9e 10 00 02 	mov  %g2, %o7
   12978:	81 c3 7e f4 	jmp  %o5 + -268
   1297c:	90 22 00 06 	sub  %o0, %g6, %o0
   12980:	96 0a a0 0e 	and  %o2, 0xe, %o3
   12984:	84 10 00 0f 	mov  %o7, %g2
   12988:	99 2a e0 03 	sll  %o3, 3, %o4
   1298c:	90 22 00 0b 	sub  %o0, %o3, %o0
   12990:	40 00 04 c2 	call  13c98 <__GI_memcpy+0x1064>
   12994:	92 22 40 0b 	sub  %o1, %o3, %o1
   12998:	9e 10 00 02 	mov  %g2, %o7
   1299c:	81 c3 60 84 	jmp  %o5 + 0x84
   129a0:	80 8a a0 01 	btst  1, %o2
   129a4:	c4 0a 60 0c 	ldub  [ %o1 + 0xc ], %g2
   129a8:	c6 0a 60 0d 	ldub  [ %o1 + 0xd ], %g3
   129ac:	c4 2a 20 0c 	stb  %g2, [ %o0 + 0xc ]
   129b0:	c6 2a 20 0d 	stb  %g3, [ %o0 + 0xd ]
   129b4:	c4 0a 60 0a 	ldub  [ %o1 + 0xa ], %g2
   129b8:	c6 0a 60 0b 	ldub  [ %o1 + 0xb ], %g3
   129bc:	c4 2a 20 0a 	stb  %g2, [ %o0 + 0xa ]
   129c0:	c6 2a 20 0b 	stb  %g3, [ %o0 + 0xb ]
   129c4:	c4 0a 60 08 	ldub  [ %o1 + 8 ], %g2
   129c8:	c6 0a 60 09 	ldub  [ %o1 + 9 ], %g3
   129cc:	c4 2a 20 08 	stb  %g2, [ %o0 + 8 ]
   129d0:	c6 2a 20 09 	stb  %g3, [ %o0 + 9 ]
   129d4:	c4 0a 60 06 	ldub  [ %o1 + 6 ], %g2
   129d8:	c6 0a 60 07 	ldub  [ %o1 + 7 ], %g3
   129dc:	c4 2a 20 06 	stb  %g2, [ %o0 + 6 ]
   129e0:	c6 2a 20 07 	stb  %g3, [ %o0 + 7 ]
   129e4:	c4 0a 60 04 	ldub  [ %o1 + 4 ], %g2
   129e8:	c6 0a 60 05 	ldub  [ %o1 + 5 ], %g3
   129ec:	c4 2a 20 04 	stb  %g2, [ %o0 + 4 ]
   129f0:	c6 2a 20 05 	stb  %g3, [ %o0 + 5 ]
   129f4:	c4 0a 60 02 	ldub  [ %o1 + 2 ], %g2
   129f8:	c6 0a 60 03 	ldub  [ %o1 + 3 ], %g3
   129fc:	c4 2a 20 02 	stb  %g2, [ %o0 + 2 ]
   12a00:	c6 2a 20 03 	stb  %g3, [ %o0 + 3 ]
   12a04:	c4 0a 60 00 	ldub  [ %o1 ], %g2
   12a08:	c6 0a 60 01 	ldub  [ %o1 + 1 ], %g3
   12a0c:	c4 2a 20 00 	stb  %g2, [ %o0 ]
   12a10:	c6 2a 20 01 	stb  %g3, [ %o0 + 1 ]
   12a14:	02 80 00 04 	be  12a24 <__GI_memmove+0x3d4>
   12a18:	01 00 00 00 	nop 
   12a1c:	c4 0a 7f ff 	ldub  [ %o1 + -1 ], %g2
   12a20:	c4 2a 3f ff 	stb  %g2, [ %o0 + -1 ]
   12a24:	81 c3 e0 08 	retl 
   12a28:	d0 03 a0 40 	ld  [ %sp + 0x40 ], %o0
   12a2c:	12 bf ff d5 	bne  12980 <__GI_memmove+0x330>
   12a30:	80 8a a0 08 	btst  8, %o2
   12a34:	02 80 00 08 	be  12a54 <__GI_memmove+0x404>
   12a38:	80 8a a0 04 	btst  4, %o2
   12a3c:	c4 02 7f f8 	ld  [ %o1 + -8 ], %g2
   12a40:	c6 02 7f fc 	ld  [ %o1 + -4 ], %g3
   12a44:	92 22 60 08 	sub  %o1, 8, %o1
   12a48:	c4 22 3f f8 	st  %g2, [ %o0 + -8 ]
   12a4c:	c6 22 3f fc 	st  %g3, [ %o0 + -4 ]
   12a50:	90 22 20 08 	sub  %o0, 8, %o0
   12a54:	10 bf ff 8a 	b  1287c <__GI_memmove+0x22c>
   12a58:	82 10 00 0a 	mov  %o2, %g1
   12a5c:	80 a2 a0 0f 	cmp  %o2, 0xf
   12a60:	08 bf ff c8 	bleu  12980 <__GI_memmove+0x330>
   12a64:	80 8a 20 03 	btst  3, %o0
   12a68:	02 80 00 11 	be  12aac <__GI_memmove+0x45c>
   12a6c:	80 8a 20 01 	btst  1, %o0
   12a70:	02 80 00 08 	be  12a90 <__GI_memmove+0x440>
   12a74:	80 8a 20 02 	btst  2, %o0
   12a78:	ca 0a 7f ff 	ldub  [ %o1 + -1 ], %g5
   12a7c:	92 22 60 01 	dec  %o1
   12a80:	ca 2a 3f ff 	stb  %g5, [ %o0 + -1 ]
   12a84:	90 22 20 01 	dec  %o0
   12a88:	02 80 00 09 	be  12aac <__GI_memmove+0x45c>
   12a8c:	94 22 a0 01 	dec  %o2
   12a90:	ca 0a 7f ff 	ldub  [ %o1 + -1 ], %g5
   12a94:	92 22 60 02 	sub  %o1, 2, %o1
   12a98:	ca 2a 3f ff 	stb  %g5, [ %o0 + -1 ]
   12a9c:	90 22 20 02 	sub  %o0, 2, %o0
   12aa0:	ca 0a 40 00 	ldub  [ %o1 ], %g5
   12aa4:	94 22 a0 02 	sub  %o2, 2, %o2
   12aa8:	ca 2a 00 00 	stb  %g5, [ %o0 ]
   12aac:	84 0a 60 03 	and  %o1, 3, %g2
   12ab0:	92 0a 7f fc 	and  %o1, -4, %o1
   12ab4:	86 0a a0 0c 	and  %o2, 0xc, %g3
   12ab8:	92 02 60 04 	add  %o1, 4, %o1
   12abc:	80 a0 e0 04 	cmp  %g3, 4
   12ac0:	89 28 a0 03 	sll  %g2, 3, %g4
   12ac4:	84 10 20 20 	mov  0x20, %g2
   12ac8:	02 80 00 18 	be  12b28 <__GI_memmove+0x4d8>
   12acc:	8c 20 80 04 	sub  %g2, %g4, %g6
   12ad0:	0a 80 00 10 	bcs  12b10 <__GI_memmove+0x4c0>
   12ad4:	80 a0 e0 08 	cmp  %g3, 8
   12ad8:	02 80 00 08 	be  12af8 <__GI_memmove+0x4a8>
   12adc:	87 32 a0 02 	srl  %o2, 2, %g3
   12ae0:	d6 02 7f fc 	ld  [ %o1 + -4 ], %o3
   12ae4:	90 02 3f f8 	add  %o0, -8, %o0
   12ae8:	d8 02 7f f8 	ld  [ %o1 + -8 ], %o4
   12aec:	92 02 7f f0 	add  %o1, -16, %o1
   12af0:	10 80 00 1e 	b  12b68 <__GI_memmove+0x518>
   12af4:	86 00 e0 01 	inc  %g3
   12af8:	d8 02 7f fc 	ld  [ %o1 + -4 ], %o4
   12afc:	90 02 3f fc 	add  %o0, -4, %o0
   12b00:	c2 02 7f f8 	ld  [ %o1 + -8 ], %g1
   12b04:	92 02 7f f4 	add  %o1, -12, %o1
   12b08:	10 80 00 1d 	b  12b7c <__GI_memmove+0x52c>
   12b0c:	86 00 e0 02 	add  %g3, 2, %g3
   12b10:	da 02 7f fc 	ld  [ %o1 + -4 ], %o5
   12b14:	90 02 3f f4 	add  %o0, -12, %o0
   12b18:	d6 02 7f f8 	ld  [ %o1 + -8 ], %o3
   12b1c:	92 02 7f ec 	add  %o1, -20, %o1
   12b20:	10 80 00 0d 	b  12b54 <__GI_memmove+0x504>
   12b24:	87 32 a0 02 	srl  %o2, 2, %g3
   12b28:	c2 02 7f fc 	ld  [ %o1 + -4 ], %g1
   12b2c:	87 32 a0 02 	srl  %o2, 2, %g3
   12b30:	da 02 7f f8 	ld  [ %o1 + -8 ], %o5
   12b34:	92 02 7f e8 	add  %o1, -24, %o1
   12b38:	90 02 3f f0 	add  %o0, -16, %o0
   12b3c:	86 00 ff ff 	add  %g3, -1, %g3
   12b40:	d6 02 60 0c 	ld  [ %o1 + 0xc ], %o3
   12b44:	85 2b 40 04 	sll  %o5, %g4, %g2
   12b48:	8b 30 40 06 	srl  %g1, %g6, %g5
   12b4c:	84 10 80 05 	or  %g2, %g5, %g2
   12b50:	c4 22 20 0c 	st  %g2, [ %o0 + 0xc ]
   12b54:	d8 02 60 08 	ld  [ %o1 + 8 ], %o4
   12b58:	85 2a c0 04 	sll  %o3, %g4, %g2
   12b5c:	8b 33 40 06 	srl  %o5, %g6, %g5
   12b60:	84 10 80 05 	or  %g2, %g5, %g2
   12b64:	c4 22 20 08 	st  %g2, [ %o0 + 8 ]
   12b68:	c2 02 60 04 	ld  [ %o1 + 4 ], %g1
   12b6c:	85 2b 00 04 	sll  %o4, %g4, %g2
   12b70:	8b 32 c0 06 	srl  %o3, %g6, %g5
   12b74:	84 10 80 05 	or  %g2, %g5, %g2
   12b78:	c4 22 20 04 	st  %g2, [ %o0 + 4 ]
   12b7c:	da 02 40 00 	ld  [ %o1 ], %o5
   12b80:	85 28 40 04 	sll  %g1, %g4, %g2
   12b84:	8b 33 00 06 	srl  %o4, %g6, %g5
   12b88:	86 80 ff fc 	addcc  %g3, -4, %g3
   12b8c:	84 10 80 05 	or  %g2, %g5, %g2
   12b90:	92 02 7f f0 	add  %o1, -16, %o1
   12b94:	c4 22 00 00 	st  %g2, [ %o0 ]
   12b98:	90 02 3f f0 	add  %o0, -16, %o0
   12b9c:	32 bf ff ea 	bne,a   12b44 <__GI_memmove+0x4f4>
   12ba0:	d6 02 60 0c 	ld  [ %o1 + 0xc ], %o3
   12ba4:	85 2b 40 04 	sll  %o5, %g4, %g2
   12ba8:	8b 30 40 06 	srl  %g1, %g6, %g5
   12bac:	87 31 20 03 	srl  %g4, 3, %g3
   12bb0:	84 10 80 05 	or  %g2, %g5, %g2
   12bb4:	92 02 40 03 	add  %o1, %g3, %o1
   12bb8:	80 8a a0 02 	btst  2, %o2
   12bbc:	c4 22 20 0c 	st  %g2, [ %o0 + 0xc ]
   12bc0:	02 80 00 08 	be  12be0 <__GI_memmove+0x590>
   12bc4:	80 8a a0 01 	btst  1, %o2
   12bc8:	ca 0a 60 0f 	ldub  [ %o1 + 0xf ], %g5
   12bcc:	92 02 7f fe 	add  %o1, -2, %o1
   12bd0:	ca 2a 20 0b 	stb  %g5, [ %o0 + 0xb ]
   12bd4:	90 02 3f fe 	add  %o0, -2, %o0
   12bd8:	ca 0a 60 10 	ldub  [ %o1 + 0x10 ], %g5
   12bdc:	ca 2a 20 0c 	stb  %g5, [ %o0 + 0xc ]
   12be0:	02 80 00 04 	be  12bf0 <__GI_memmove+0x5a0>
   12be4:	01 00 00 00 	nop 
   12be8:	ca 0a 60 0f 	ldub  [ %o1 + 0xf ], %g5
   12bec:	ca 2a 20 0b 	stb  %g5, [ %o0 + 0xb ]
   12bf0:	81 c3 e0 08 	retl 
   12bf4:	d0 03 a0 40 	ld  [ %sp + 0x40 ], %o0
   12bf8:	80 8a 60 01 	btst  1, %o1
   12bfc:	02 80 00 08 	be  12c1c <__GI_memmove+0x5cc>
   12c00:	80 8a 60 02 	btst  2, %o1
   12c04:	c4 0a 40 00 	ldub  [ %o1 ], %g2
   12c08:	92 02 60 01 	inc  %o1
   12c0c:	c4 2a 00 00 	stb  %g2, [ %o0 ]
   12c10:	94 22 a0 01 	dec  %o2
   12c14:	12 80 00 10 	bne  12c54 <__GI_memcpy+0x20>
   12c18:	90 02 20 01 	inc  %o0
   12c1c:	c4 12 40 00 	lduh  [ %o1 ], %g2
   12c20:	92 02 60 02 	add  %o1, 2, %o1
   12c24:	c4 32 00 00 	sth  %g2, [ %o0 ]
   12c28:	94 22 a0 02 	sub  %o2, 2, %o2
   12c2c:	10 80 00 0a 	b  12c54 <__GI_memcpy+0x20>
   12c30:	90 02 20 02 	add  %o0, 2, %o0

00012c34 <__GI_memcpy>:
   12c34:	98 22 00 09 	sub  %o0, %o1, %o4
   12c38:	d0 23 a0 40 	st  %o0, [ %sp + 0x40 ]
   12c3c:	9a 8b 20 03 	andcc  %o4, 3, %o5
   12c40:	12 80 00 f4 	bne  13010 <__GI_memcpy+0x3dc>
   12c44:	80 a2 a0 0f 	cmp  %o2, 0xf
   12c48:	08 80 04 08 	bleu  13c68 <__GI_memcpy+0x1034>
   12c4c:	80 8a 60 03 	btst  3, %o1
   12c50:	12 bf ff ea 	bne  12bf8 <__GI_memmove+0x5a8>
   12c54:	80 8a 60 04 	btst  4, %o1
   12c58:	02 80 00 07 	be  12c74 <__GI_memcpy+0x40>
   12c5c:	82 10 00 0a 	mov  %o2, %g1
   12c60:	d8 02 40 00 	ld  [ %o1 ], %o4
   12c64:	82 20 60 04 	sub  %g1, 4, %g1
   12c68:	d8 22 00 00 	st  %o4, [ %o0 ]
   12c6c:	92 02 60 04 	add  %o1, 4, %o1
   12c70:	90 02 20 04 	add  %o0, 4, %o0
   12c74:	8c 88 7f 80 	andcc  %g1, -128, %g6
   12c78:	02 80 00 37 	be  12d54 <__GI_memcpy+0x120>
   12c7c:	80 8a 20 04 	btst  4, %o0
   12c80:	02 80 00 84 	be  12e90 <__GI_memcpy+0x25c>
   12c84:	d4 1a 60 00 	ldd  [ %o1 ], %o2
   12c88:	d8 1a 60 08 	ldd  [ %o1 + 8 ], %o4
   12c8c:	c4 1a 60 10 	ldd  [ %o1 + 0x10 ], %g2
   12c90:	c8 1a 60 18 	ldd  [ %o1 + 0x18 ], %g4
   12c94:	d4 22 20 00 	st  %o2, [ %o0 ]
   12c98:	d6 22 20 04 	st  %o3, [ %o0 + 4 ]
   12c9c:	d8 22 20 08 	st  %o4, [ %o0 + 8 ]
   12ca0:	da 22 20 0c 	st  %o5, [ %o0 + 0xc ]
   12ca4:	c4 22 20 10 	st  %g2, [ %o0 + 0x10 ]
   12ca8:	c6 22 20 14 	st  %g3, [ %o0 + 0x14 ]
   12cac:	c8 22 20 18 	st  %g4, [ %o0 + 0x18 ]
   12cb0:	ca 22 20 1c 	st  %g5, [ %o0 + 0x1c ]
   12cb4:	d4 1a 60 20 	ldd  [ %o1 + 0x20 ], %o2
   12cb8:	d8 1a 60 28 	ldd  [ %o1 + 0x28 ], %o4
   12cbc:	c4 1a 60 30 	ldd  [ %o1 + 0x30 ], %g2
   12cc0:	c8 1a 60 38 	ldd  [ %o1 + 0x38 ], %g4
   12cc4:	d4 22 20 20 	st  %o2, [ %o0 + 0x20 ]
   12cc8:	d6 22 20 24 	st  %o3, [ %o0 + 0x24 ]
   12ccc:	d8 22 20 28 	st  %o4, [ %o0 + 0x28 ]
   12cd0:	da 22 20 2c 	st  %o5, [ %o0 + 0x2c ]
   12cd4:	c4 22 20 30 	st  %g2, [ %o0 + 0x30 ]
   12cd8:	c6 22 20 34 	st  %g3, [ %o0 + 0x34 ]
   12cdc:	c8 22 20 38 	st  %g4, [ %o0 + 0x38 ]
   12ce0:	ca 22 20 3c 	st  %g5, [ %o0 + 0x3c ]
   12ce4:	d4 1a 60 40 	ldd  [ %o1 + 0x40 ], %o2
   12ce8:	d8 1a 60 48 	ldd  [ %o1 + 0x48 ], %o4
   12cec:	c4 1a 60 50 	ldd  [ %o1 + 0x50 ], %g2
   12cf0:	c8 1a 60 58 	ldd  [ %o1 + 0x58 ], %g4
   12cf4:	d4 22 20 40 	st  %o2, [ %o0 + 0x40 ]
   12cf8:	d6 22 20 44 	st  %o3, [ %o0 + 0x44 ]
   12cfc:	d8 22 20 48 	st  %o4, [ %o0 + 0x48 ]
   12d00:	da 22 20 4c 	st  %o5, [ %o0 + 0x4c ]
   12d04:	c4 22 20 50 	st  %g2, [ %o0 + 0x50 ]
   12d08:	c6 22 20 54 	st  %g3, [ %o0 + 0x54 ]
   12d0c:	c8 22 20 58 	st  %g4, [ %o0 + 0x58 ]
   12d10:	ca 22 20 5c 	st  %g5, [ %o0 + 0x5c ]
   12d14:	d4 1a 60 60 	ldd  [ %o1 + 0x60 ], %o2
   12d18:	d8 1a 60 68 	ldd  [ %o1 + 0x68 ], %o4
   12d1c:	c4 1a 60 70 	ldd  [ %o1 + 0x70 ], %g2
   12d20:	c8 1a 60 78 	ldd  [ %o1 + 0x78 ], %g4
   12d24:	d4 22 20 60 	st  %o2, [ %o0 + 0x60 ]
   12d28:	d6 22 20 64 	st  %o3, [ %o0 + 0x64 ]
   12d2c:	d8 22 20 68 	st  %o4, [ %o0 + 0x68 ]
   12d30:	da 22 20 6c 	st  %o5, [ %o0 + 0x6c ]
   12d34:	c4 22 20 70 	st  %g2, [ %o0 + 0x70 ]
   12d38:	c6 22 20 74 	st  %g3, [ %o0 + 0x74 ]
   12d3c:	c8 22 20 78 	st  %g4, [ %o0 + 0x78 ]
   12d40:	ca 22 20 7c 	st  %g5, [ %o0 + 0x7c ]
   12d44:	8c a1 a0 80 	subcc  %g6, 0x80, %g6
   12d48:	92 02 60 80 	add  %o1, 0x80, %o1
   12d4c:	12 bf ff ce 	bne  12c84 <__GI_memcpy+0x50>
   12d50:	90 02 20 80 	add  %o0, 0x80, %o0
   12d54:	8c 88 60 70 	andcc  %g1, 0x70, %g6
   12d58:	02 80 00 34 	be  12e28 <__GI_memcpy+0x1f4>
   12d5c:	80 88 60 08 	btst  8, %g1
   12d60:	99 31 a0 01 	srl  %g6, 1, %o4
   12d64:	84 10 00 0f 	mov  %o7, %g2
   12d68:	98 01 80 0c 	add  %g6, %o4, %o4
   12d6c:	92 02 40 06 	add  %o1, %g6, %o1
   12d70:	40 00 03 ca 	call  13c98 <__GI_memcpy+0x1064>
   12d74:	90 02 00 06 	add  %o0, %g6, %o0
   12d78:	81 c3 60 b8 	jmp  %o5 + 0xb8
   12d7c:	9e 10 00 02 	mov  %g2, %o7
   12d80:	c4 1a 7f 90 	ldd  [ %o1 + -112 ], %g2
   12d84:	c8 1a 7f 98 	ldd  [ %o1 + -104 ], %g4
   12d88:	c4 22 3f 90 	st  %g2, [ %o0 + -112 ]
   12d8c:	c6 22 3f 94 	st  %g3, [ %o0 + -108 ]
   12d90:	c8 22 3f 98 	st  %g4, [ %o0 + -104 ]
   12d94:	ca 22 3f 9c 	st  %g5, [ %o0 + -100 ]
   12d98:	c4 1a 7f a0 	ldd  [ %o1 + -96 ], %g2
   12d9c:	c8 1a 7f a8 	ldd  [ %o1 + -88 ], %g4
   12da0:	c4 22 3f a0 	st  %g2, [ %o0 + -96 ]
   12da4:	c6 22 3f a4 	st  %g3, [ %o0 + -92 ]
   12da8:	c8 22 3f a8 	st  %g4, [ %o0 + -88 ]
   12dac:	ca 22 3f ac 	st  %g5, [ %o0 + -84 ]
   12db0:	c4 1a 7f b0 	ldd  [ %o1 + -80 ], %g2
   12db4:	c8 1a 7f b8 	ldd  [ %o1 + -72 ], %g4
   12db8:	c4 22 3f b0 	st  %g2, [ %o0 + -80 ]
   12dbc:	c6 22 3f b4 	st  %g3, [ %o0 + -76 ]
   12dc0:	c8 22 3f b8 	st  %g4, [ %o0 + -72 ]
   12dc4:	ca 22 3f bc 	st  %g5, [ %o0 + -68 ]
   12dc8:	c4 1a 7f c0 	ldd  [ %o1 + -64 ], %g2
   12dcc:	c8 1a 7f c8 	ldd  [ %o1 + -56 ], %g4
   12dd0:	c4 22 3f c0 	st  %g2, [ %o0 + -64 ]
   12dd4:	c6 22 3f c4 	st  %g3, [ %o0 + -60 ]
   12dd8:	c8 22 3f c8 	st  %g4, [ %o0 + -56 ]
   12ddc:	ca 22 3f cc 	st  %g5, [ %o0 + -52 ]
   12de0:	c4 1a 7f d0 	ldd  [ %o1 + -48 ], %g2
   12de4:	c8 1a 7f d8 	ldd  [ %o1 + -40 ], %g4
   12de8:	c4 22 3f d0 	st  %g2, [ %o0 + -48 ]
   12dec:	c6 22 3f d4 	st  %g3, [ %o0 + -44 ]
   12df0:	c8 22 3f d8 	st  %g4, [ %o0 + -40 ]
   12df4:	ca 22 3f dc 	st  %g5, [ %o0 + -36 ]
   12df8:	c4 1a 7f e0 	ldd  [ %o1 + -32 ], %g2
   12dfc:	c8 1a 7f e8 	ldd  [ %o1 + -24 ], %g4
   12e00:	c4 22 3f e0 	st  %g2, [ %o0 + -32 ]
   12e04:	c6 22 3f e4 	st  %g3, [ %o0 + -28 ]
   12e08:	c8 22 3f e8 	st  %g4, [ %o0 + -24 ]
   12e0c:	ca 22 3f ec 	st  %g5, [ %o0 + -20 ]
   12e10:	c4 1a 7f f0 	ldd  [ %o1 + -16 ], %g2
   12e14:	c8 1a 7f f8 	ldd  [ %o1 + -8 ], %g4
   12e18:	c4 22 3f f0 	st  %g2, [ %o0 + -16 ]
   12e1c:	c6 22 3f f4 	st  %g3, [ %o0 + -12 ]
   12e20:	c8 22 3f f8 	st  %g4, [ %o0 + -8 ]
   12e24:	ca 22 3f fc 	st  %g5, [ %o0 + -4 ]
   12e28:	02 80 00 07 	be  12e44 <__GI_memcpy+0x210>
   12e2c:	80 88 60 04 	btst  4, %g1
   12e30:	c4 1a 40 00 	ldd  [ %o1 ], %g2
   12e34:	90 02 20 08 	add  %o0, 8, %o0
   12e38:	c4 22 3f f8 	st  %g2, [ %o0 + -8 ]
   12e3c:	92 02 60 08 	add  %o1, 8, %o1
   12e40:	c6 22 3f fc 	st  %g3, [ %o0 + -4 ]
   12e44:	02 80 00 06 	be  12e5c <__GI_memcpy+0x228>
   12e48:	80 88 60 02 	btst  2, %g1
   12e4c:	c4 02 40 00 	ld  [ %o1 ], %g2
   12e50:	92 02 60 04 	add  %o1, 4, %o1
   12e54:	c4 22 00 00 	st  %g2, [ %o0 ]
   12e58:	90 02 20 04 	add  %o0, 4, %o0
   12e5c:	02 80 00 06 	be  12e74 <__GI_memcpy+0x240>
   12e60:	80 88 60 01 	btst  1, %g1
   12e64:	c4 12 40 00 	lduh  [ %o1 ], %g2
   12e68:	92 02 60 02 	add  %o1, 2, %o1
   12e6c:	c4 32 00 00 	sth  %g2, [ %o0 ]
   12e70:	90 02 20 02 	add  %o0, 2, %o0
   12e74:	02 80 00 04 	be  12e84 <__GI_memcpy+0x250>
   12e78:	01 00 00 00 	nop 
   12e7c:	c4 0a 40 00 	ldub  [ %o1 ], %g2
   12e80:	c4 2a 00 00 	stb  %g2, [ %o0 ]
   12e84:	81 c3 e0 08 	retl 
   12e88:	d0 03 a0 40 	ld  [ %sp + 0x40 ], %o0
   12e8c:	d4 1a 60 00 	ldd  [ %o1 ], %o2
   12e90:	d8 1a 60 08 	ldd  [ %o1 + 8 ], %o4
   12e94:	c4 1a 60 10 	ldd  [ %o1 + 0x10 ], %g2
   12e98:	c8 1a 60 18 	ldd  [ %o1 + 0x18 ], %g4
   12e9c:	d4 3a 20 00 	std  %o2, [ %o0 ]
   12ea0:	d8 3a 20 08 	std  %o4, [ %o0 + 8 ]
   12ea4:	c4 3a 20 10 	std  %g2, [ %o0 + 0x10 ]
   12ea8:	c8 3a 20 18 	std  %g4, [ %o0 + 0x18 ]
   12eac:	d4 1a 60 20 	ldd  [ %o1 + 0x20 ], %o2
   12eb0:	d8 1a 60 28 	ldd  [ %o1 + 0x28 ], %o4
   12eb4:	c4 1a 60 30 	ldd  [ %o1 + 0x30 ], %g2
   12eb8:	c8 1a 60 38 	ldd  [ %o1 + 0x38 ], %g4
   12ebc:	d4 3a 20 20 	std  %o2, [ %o0 + 0x20 ]
   12ec0:	d8 3a 20 28 	std  %o4, [ %o0 + 0x28 ]
   12ec4:	c4 3a 20 30 	std  %g2, [ %o0 + 0x30 ]
   12ec8:	c8 3a 20 38 	std  %g4, [ %o0 + 0x38 ]
   12ecc:	d4 1a 60 40 	ldd  [ %o1 + 0x40 ], %o2
   12ed0:	d8 1a 60 48 	ldd  [ %o1 + 0x48 ], %o4
   12ed4:	c4 1a 60 50 	ldd  [ %o1 + 0x50 ], %g2
   12ed8:	c8 1a 60 58 	ldd  [ %o1 + 0x58 ], %g4
   12edc:	d4 3a 20 40 	std  %o2, [ %o0 + 0x40 ]
   12ee0:	d8 3a 20 48 	std  %o4, [ %o0 + 0x48 ]
   12ee4:	c4 3a 20 50 	std  %g2, [ %o0 + 0x50 ]
   12ee8:	c8 3a 20 58 	std  %g4, [ %o0 + 0x58 ]
   12eec:	d4 1a 60 60 	ldd  [ %o1 + 0x60 ], %o2
   12ef0:	d8 1a 60 68 	ldd  [ %o1 + 0x68 ], %o4
   12ef4:	c4 1a 60 70 	ldd  [ %o1 + 0x70 ], %g2
   12ef8:	c8 1a 60 78 	ldd  [ %o1 + 0x78 ], %g4
   12efc:	d4 3a 20 60 	std  %o2, [ %o0 + 0x60 ]
   12f00:	d8 3a 20 68 	std  %o4, [ %o0 + 0x68 ]
   12f04:	c4 3a 20 70 	std  %g2, [ %o0 + 0x70 ]
   12f08:	c8 3a 20 78 	std  %g4, [ %o0 + 0x78 ]
   12f0c:	8c a1 a0 80 	subcc  %g6, 0x80, %g6
   12f10:	92 02 60 80 	add  %o1, 0x80, %o1
   12f14:	12 bf ff de 	bne  12e8c <__GI_memcpy+0x258>
   12f18:	90 02 20 80 	add  %o0, 0x80, %o0
   12f1c:	8c 88 60 70 	andcc  %g1, 0x70, %g6
   12f20:	02 80 00 24 	be  12fb0 <__GI_memcpy+0x37c>
   12f24:	80 88 60 08 	btst  8, %g1
   12f28:	84 10 00 0f 	mov  %o7, %g2
   12f2c:	40 00 03 5d 	call  13ca0 <__GI_memcpy+0x106c>
   12f30:	92 02 40 06 	add  %o1, %g6, %o1
   12f34:	9e 10 00 02 	mov  %g2, %o7
   12f38:	81 c3 60 84 	jmp  %o5 + 0x84
   12f3c:	90 02 00 06 	add  %o0, %g6, %o0
   12f40:	c4 1a 7f 90 	ldd  [ %o1 + -112 ], %g2
   12f44:	c8 1a 7f 98 	ldd  [ %o1 + -104 ], %g4
   12f48:	c4 3a 3f 90 	std  %g2, [ %o0 + -112 ]
   12f4c:	c8 3a 3f 98 	std  %g4, [ %o0 + -104 ]
   12f50:	c4 1a 7f a0 	ldd  [ %o1 + -96 ], %g2
   12f54:	c8 1a 7f a8 	ldd  [ %o1 + -88 ], %g4
   12f58:	c4 3a 3f a0 	std  %g2, [ %o0 + -96 ]
   12f5c:	c8 3a 3f a8 	std  %g4, [ %o0 + -88 ]
   12f60:	c4 1a 7f b0 	ldd  [ %o1 + -80 ], %g2
   12f64:	c8 1a 7f b8 	ldd  [ %o1 + -72 ], %g4
   12f68:	c4 3a 3f b0 	std  %g2, [ %o0 + -80 ]
   12f6c:	c8 3a 3f b8 	std  %g4, [ %o0 + -72 ]
   12f70:	c4 1a 7f c0 	ldd  [ %o1 + -64 ], %g2
   12f74:	c8 1a 7f c8 	ldd  [ %o1 + -56 ], %g4
   12f78:	c4 3a 3f c0 	std  %g2, [ %o0 + -64 ]
   12f7c:	c8 3a 3f c8 	std  %g4, [ %o0 + -56 ]
   12f80:	c4 1a 7f d0 	ldd  [ %o1 + -48 ], %g2
   12f84:	c8 1a 7f d8 	ldd  [ %o1 + -40 ], %g4
   12f88:	c4 3a 3f d0 	std  %g2, [ %o0 + -48 ]
   12f8c:	c8 3a 3f d8 	std  %g4, [ %o0 + -40 ]
   12f90:	c4 1a 7f e0 	ldd  [ %o1 + -32 ], %g2
   12f94:	c8 1a 7f e8 	ldd  [ %o1 + -24 ], %g4
   12f98:	c4 3a 3f e0 	std  %g2, [ %o0 + -32 ]
   12f9c:	c8 3a 3f e8 	std  %g4, [ %o0 + -24 ]
   12fa0:	c4 1a 7f f0 	ldd  [ %o1 + -16 ], %g2
   12fa4:	c8 1a 7f f8 	ldd  [ %o1 + -8 ], %g4
   12fa8:	c4 3a 3f f0 	std  %g2, [ %o0 + -16 ]
   12fac:	c8 3a 3f f8 	std  %g4, [ %o0 + -8 ]
   12fb0:	02 80 00 06 	be  12fc8 <__GI_memcpy+0x394>
   12fb4:	80 88 60 04 	btst  4, %g1
   12fb8:	c4 1a 40 00 	ldd  [ %o1 ], %g2
   12fbc:	90 02 20 08 	add  %o0, 8, %o0
   12fc0:	c4 3a 3f f8 	std  %g2, [ %o0 + -8 ]
   12fc4:	92 02 60 08 	add  %o1, 8, %o1
   12fc8:	02 80 00 06 	be  12fe0 <__GI_memcpy+0x3ac>
   12fcc:	80 88 60 02 	btst  2, %g1
   12fd0:	c4 02 40 00 	ld  [ %o1 ], %g2
   12fd4:	92 02 60 04 	add  %o1, 4, %o1
   12fd8:	c4 22 00 00 	st  %g2, [ %o0 ]
   12fdc:	90 02 20 04 	add  %o0, 4, %o0
   12fe0:	02 80 00 06 	be  12ff8 <__GI_memcpy+0x3c4>
   12fe4:	80 88 60 01 	btst  1, %g1
   12fe8:	c4 12 40 00 	lduh  [ %o1 ], %g2
   12fec:	92 02 60 02 	add  %o1, 2, %o1
   12ff0:	c4 32 00 00 	sth  %g2, [ %o0 ]
   12ff4:	90 02 20 02 	add  %o0, 2, %o0
   12ff8:	02 80 00 04 	be  13008 <__GI_memcpy+0x3d4>
   12ffc:	01 00 00 00 	nop 
   13000:	c4 0a 40 00 	ldub  [ %o1 ], %g2
   13004:	c4 2a 00 00 	stb  %g2, [ %o0 ]
   13008:	81 c3 e0 08 	retl 
   1300c:	d0 03 a0 40 	ld  [ %sp + 0x40 ], %o0
   13010:	80 a2 a0 06 	cmp  %o2, 6
   13014:	08 80 02 ea 	bleu  13bbc <__GI_memcpy+0xf88>
   13018:	80 a2 a1 00 	cmp  %o2, 0x100
   1301c:	1a 80 00 65 	bcc  131b0 <__GI_memcpy+0x57c>
   13020:	80 8a 20 03 	btst  3, %o0
   13024:	02 80 00 11 	be  13068 <__GI_memcpy+0x434>
   13028:	80 8a 20 01 	btst  1, %o0
   1302c:	02 80 00 08 	be  1304c <__GI_memcpy+0x418>
   13030:	80 8a 20 02 	btst  2, %o0
   13034:	ca 0a 40 00 	ldub  [ %o1 ], %g5
   13038:	92 02 60 01 	inc  %o1
   1303c:	ca 2a 00 00 	stb  %g5, [ %o0 ]
   13040:	94 22 a0 01 	dec  %o2
   13044:	12 80 00 09 	bne  13068 <__GI_memcpy+0x434>
   13048:	90 02 20 01 	inc  %o0
   1304c:	c6 0a 40 00 	ldub  [ %o1 ], %g3
   13050:	92 02 60 02 	add  %o1, 2, %o1
   13054:	c6 2a 00 00 	stb  %g3, [ %o0 ]
   13058:	94 22 a0 02 	sub  %o2, 2, %o2
   1305c:	c6 0a 7f ff 	ldub  [ %o1 + -1 ], %g3
   13060:	90 02 20 02 	add  %o0, 2, %o0
   13064:	c6 2a 3f ff 	stb  %g3, [ %o0 + -1 ]
   13068:	84 0a 60 03 	and  %o1, 3, %g2
   1306c:	86 0a a0 0c 	and  %o2, 0xc, %g3
   13070:	92 0a 7f fc 	and  %o1, -4, %o1
   13074:	80 a0 e0 04 	cmp  %g3, 4
   13078:	89 28 a0 03 	sll  %g2, 3, %g4
   1307c:	84 10 20 20 	mov  0x20, %g2
   13080:	02 80 00 17 	be  130dc <__GI_memcpy+0x4a8>
   13084:	8c 20 80 04 	sub  %g2, %g4, %g6
   13088:	0a 80 00 0f 	bcs  130c4 <__GI_memcpy+0x490>
   1308c:	80 a0 e0 08 	cmp  %g3, 8
   13090:	02 80 00 07 	be  130ac <__GI_memcpy+0x478>
   13094:	87 32 a0 02 	srl  %o2, 2, %g3
   13098:	d6 02 40 00 	ld  [ %o1 ], %o3
   1309c:	90 02 3f f8 	add  %o0, -8, %o0
   130a0:	d8 02 60 04 	ld  [ %o1 + 4 ], %o4
   130a4:	10 80 00 1f 	b  13120 <__GI_memcpy+0x4ec>
   130a8:	86 00 e0 01 	inc  %g3
   130ac:	d8 02 40 00 	ld  [ %o1 ], %o4
   130b0:	90 02 3f f4 	add  %o0, -12, %o0
   130b4:	da 02 60 04 	ld  [ %o1 + 4 ], %o5
   130b8:	86 00 e0 02 	add  %g3, 2, %g3
   130bc:	10 80 00 1e 	b  13134 <__GI_memcpy+0x500>
   130c0:	92 02 7f fc 	add  %o1, -4, %o1
   130c4:	c2 02 40 00 	ld  [ %o1 ], %g1
   130c8:	90 02 3f fc 	add  %o0, -4, %o0
   130cc:	d6 02 60 04 	ld  [ %o1 + 4 ], %o3
   130d0:	87 32 a0 02 	srl  %o2, 2, %g3
   130d4:	10 80 00 0e 	b  1310c <__GI_memcpy+0x4d8>
   130d8:	92 02 60 04 	add  %o1, 4, %o1
   130dc:	da 02 40 00 	ld  [ %o1 ], %o5
   130e0:	80 a2 a0 07 	cmp  %o2, 7
   130e4:	c2 02 60 04 	ld  [ %o1 + 4 ], %g1
   130e8:	87 32 a0 02 	srl  %o2, 2, %g3
   130ec:	08 80 00 1c 	bleu  1315c <__GI_memcpy+0x528>
   130f0:	92 02 60 08 	add  %o1, 8, %o1
   130f4:	d6 02 40 00 	ld  [ %o1 ], %o3
   130f8:	86 00 ff ff 	add  %g3, -1, %g3
   130fc:	85 2b 40 04 	sll  %o5, %g4, %g2
   13100:	8b 30 40 06 	srl  %g1, %g6, %g5
   13104:	84 10 80 05 	or  %g2, %g5, %g2
   13108:	c4 22 00 00 	st  %g2, [ %o0 ]
   1310c:	d8 02 60 04 	ld  [ %o1 + 4 ], %o4
   13110:	85 28 40 04 	sll  %g1, %g4, %g2
   13114:	8b 32 c0 06 	srl  %o3, %g6, %g5
   13118:	84 10 80 05 	or  %g2, %g5, %g2
   1311c:	c4 22 20 04 	st  %g2, [ %o0 + 4 ]
   13120:	da 02 60 08 	ld  [ %o1 + 8 ], %o5
   13124:	85 2a c0 04 	sll  %o3, %g4, %g2
   13128:	8b 33 00 06 	srl  %o4, %g6, %g5
   1312c:	84 10 80 05 	or  %g2, %g5, %g2
   13130:	c4 22 20 08 	st  %g2, [ %o0 + 8 ]
   13134:	c2 02 60 0c 	ld  [ %o1 + 0xc ], %g1
   13138:	85 2b 00 04 	sll  %o4, %g4, %g2
   1313c:	8b 33 40 06 	srl  %o5, %g6, %g5
   13140:	86 80 ff fc 	addcc  %g3, -4, %g3
   13144:	84 10 80 05 	or  %g2, %g5, %g2
   13148:	92 02 60 10 	add  %o1, 0x10, %o1
   1314c:	c4 22 20 0c 	st  %g2, [ %o0 + 0xc ]
   13150:	90 02 20 10 	add  %o0, 0x10, %o0
   13154:	32 bf ff ea 	bne,a   130fc <__GI_memcpy+0x4c8>
   13158:	d6 02 40 00 	ld  [ %o1 ], %o3
   1315c:	85 2b 40 04 	sll  %o5, %g4, %g2
   13160:	8b 30 40 06 	srl  %g1, %g6, %g5
   13164:	87 31 a0 03 	srl  %g6, 3, %g3
   13168:	84 10 80 05 	or  %g2, %g5, %g2
   1316c:	92 22 40 03 	sub  %o1, %g3, %o1
   13170:	80 8a a0 02 	btst  2, %o2
   13174:	c4 22 00 00 	st  %g2, [ %o0 ]
   13178:	02 80 00 08 	be  13198 <__GI_memcpy+0x564>
   1317c:	80 8a a0 01 	btst  1, %o2
   13180:	c4 0a 40 00 	ldub  [ %o1 ], %g2
   13184:	92 02 60 02 	add  %o1, 2, %o1
   13188:	c4 2a 20 04 	stb  %g2, [ %o0 + 4 ]
   1318c:	90 02 20 02 	add  %o0, 2, %o0
   13190:	c4 0a 7f ff 	ldub  [ %o1 + -1 ], %g2
   13194:	c4 2a 20 03 	stb  %g2, [ %o0 + 3 ]
   13198:	02 80 00 04 	be  131a8 <__GI_memcpy+0x574>
   1319c:	01 00 00 00 	nop 
   131a0:	c4 0a 40 00 	ldub  [ %o1 ], %g2
   131a4:	c4 2a 20 04 	stb  %g2, [ %o0 + 4 ]
   131a8:	81 c3 e0 08 	retl 
   131ac:	d0 03 a0 40 	ld  [ %sp + 0x40 ], %o0
   131b0:	80 8a 60 03 	btst  3, %o1
   131b4:	02 80 00 11 	be  131f8 <__GI_memcpy+0x5c4>
   131b8:	80 8a 60 01 	btst  1, %o1
   131bc:	02 80 00 08 	be  131dc <__GI_memcpy+0x5a8>
   131c0:	80 8a 60 02 	btst  2, %o1
   131c4:	c4 0a 40 00 	ldub  [ %o1 ], %g2
   131c8:	92 02 60 01 	inc  %o1
   131cc:	c4 2a 00 00 	stb  %g2, [ %o0 ]
   131d0:	94 22 a0 01 	dec  %o2
   131d4:	12 80 00 09 	bne  131f8 <__GI_memcpy+0x5c4>
   131d8:	90 02 20 01 	inc  %o0
   131dc:	c4 12 40 00 	lduh  [ %o1 ], %g2
   131e0:	92 02 60 02 	add  %o1, 2, %o1
   131e4:	87 30 a0 08 	srl  %g2, 8, %g3
   131e8:	94 22 a0 02 	sub  %o2, 2, %o2
   131ec:	c6 2a 00 00 	stb  %g3, [ %o0 ]
   131f0:	90 02 20 02 	add  %o0, 2, %o0
   131f4:	c4 2a 3f ff 	stb  %g2, [ %o0 + -1 ]
   131f8:	80 8a 60 04 	btst  4, %o1
   131fc:	12 80 00 0d 	bne  13230 <__GI_memcpy+0x5fc>
   13200:	80 a3 60 01 	cmp  %o5, 1
   13204:	d8 02 40 00 	ld  [ %o1 ], %o4
   13208:	85 33 20 18 	srl  %o4, 0x18, %g2
   1320c:	c4 2a 00 00 	stb  %g2, [ %o0 ]
   13210:	87 33 20 10 	srl  %o4, 0x10, %g3
   13214:	c6 2a 20 01 	stb  %g3, [ %o0 + 1 ]
   13218:	85 33 20 08 	srl  %o4, 8, %g2
   1321c:	c4 2a 20 02 	stb  %g2, [ %o0 + 2 ]
   13220:	94 22 a0 04 	sub  %o2, 4, %o2
   13224:	d8 2a 20 03 	stb  %o4, [ %o0 + 3 ]
   13228:	92 02 60 04 	add  %o1, 4, %o1
   1322c:	90 02 20 04 	add  %o0, 4, %o0
   13230:	02 80 00 da 	be  13598 <__GI_memcpy+0x964>
   13234:	80 a3 60 02 	cmp  %o5, 2
   13238:	02 80 00 6e 	be  133f0 <__GI_memcpy+0x7bc>
   1323c:	94 22 a0 04 	sub  %o2, 4, %o2
   13240:	c4 02 40 00 	ld  [ %o1 ], %g2
   13244:	92 02 60 04 	add  %o1, 4, %o1
   13248:	87 30 a0 18 	srl  %g2, 0x18, %g3
   1324c:	8a 0a 20 07 	and  %o0, 7, %g5
   13250:	c6 2a 00 00 	stb  %g3, [ %o0 ]
   13254:	80 a1 60 07 	cmp  %g5, 7
   13258:	83 28 a0 08 	sll  %g2, 8, %g1
   1325c:	90 02 20 04 	add  %o0, 4, %o0
   13260:	02 80 01 3b 	be  1374c <__GI_memcpy+0xb18>
   13264:	96 0a bf c0 	and  %o2, -64, %o3
   13268:	d8 02 3f f9 	ld  [ %o0 + -7 ], %o4
   1326c:	c4 1a 60 00 	ldd  [ %o1 ], %g2
   13270:	c8 1a 60 08 	ldd  [ %o1 + 8 ], %g4
   13274:	9b 30 a0 18 	srl  %g2, 0x18, %o5
   13278:	8d 30 e0 18 	srl  %g3, 0x18, %g6
   1327c:	85 28 a0 08 	sll  %g2, 8, %g2
   13280:	9a 13 40 01 	or  %o5, %g1, %o5
   13284:	83 28 e0 08 	sll  %g3, 8, %g1
   13288:	84 11 80 02 	or  %g6, %g2, %g2
   1328c:	87 31 20 18 	srl  %g4, 0x18, %g3
   13290:	8d 31 60 18 	srl  %g5, 0x18, %g6
   13294:	89 29 20 08 	sll  %g4, 8, %g4
   13298:	86 10 c0 01 	or  %g3, %g1, %g3
   1329c:	d8 3a 3f f9 	std  %o4, [ %o0 + -7 ]
   132a0:	c4 3a 20 01 	std  %g2, [ %o0 + 1 ]
   132a4:	83 29 60 08 	sll  %g5, 8, %g1
   132a8:	98 11 80 04 	or  %g6, %g4, %o4
   132ac:	c4 1a 60 10 	ldd  [ %o1 + 0x10 ], %g2
   132b0:	c8 1a 60 18 	ldd  [ %o1 + 0x18 ], %g4
   132b4:	9b 30 a0 18 	srl  %g2, 0x18, %o5
   132b8:	8d 30 e0 18 	srl  %g3, 0x18, %g6
   132bc:	85 28 a0 08 	sll  %g2, 8, %g2
   132c0:	9a 13 40 01 	or  %o5, %g1, %o5
   132c4:	83 28 e0 08 	sll  %g3, 8, %g1
   132c8:	84 11 80 02 	or  %g6, %g2, %g2
   132cc:	87 31 20 18 	srl  %g4, 0x18, %g3
   132d0:	8d 31 60 18 	srl  %g5, 0x18, %g6
   132d4:	89 29 20 08 	sll  %g4, 8, %g4
   132d8:	86 10 c0 01 	or  %g3, %g1, %g3
   132dc:	d8 3a 20 09 	std  %o4, [ %o0 + 9 ]
   132e0:	c4 3a 20 11 	std  %g2, [ %o0 + 0x11 ]
   132e4:	83 29 60 08 	sll  %g5, 8, %g1
   132e8:	98 11 80 04 	or  %g6, %g4, %o4
   132ec:	c4 1a 60 20 	ldd  [ %o1 + 0x20 ], %g2
   132f0:	c8 1a 60 28 	ldd  [ %o1 + 0x28 ], %g4
   132f4:	9b 30 a0 18 	srl  %g2, 0x18, %o5
   132f8:	8d 30 e0 18 	srl  %g3, 0x18, %g6
   132fc:	85 28 a0 08 	sll  %g2, 8, %g2
   13300:	9a 13 40 01 	or  %o5, %g1, %o5
   13304:	83 28 e0 08 	sll  %g3, 8, %g1
   13308:	84 11 80 02 	or  %g6, %g2, %g2
   1330c:	87 31 20 18 	srl  %g4, 0x18, %g3
   13310:	8d 31 60 18 	srl  %g5, 0x18, %g6
   13314:	89 29 20 08 	sll  %g4, 8, %g4
   13318:	86 10 c0 01 	or  %g3, %g1, %g3
   1331c:	d8 3a 20 19 	std  %o4, [ %o0 + 0x19 ]
   13320:	c4 3a 20 21 	std  %g2, [ %o0 + 0x21 ]
   13324:	83 29 60 08 	sll  %g5, 8, %g1
   13328:	98 11 80 04 	or  %g6, %g4, %o4
   1332c:	c4 1a 60 30 	ldd  [ %o1 + 0x30 ], %g2
   13330:	c8 1a 60 38 	ldd  [ %o1 + 0x38 ], %g4
   13334:	9b 30 a0 18 	srl  %g2, 0x18, %o5
   13338:	8d 30 e0 18 	srl  %g3, 0x18, %g6
   1333c:	85 28 a0 08 	sll  %g2, 8, %g2
   13340:	9a 13 40 01 	or  %o5, %g1, %o5
   13344:	83 28 e0 08 	sll  %g3, 8, %g1
   13348:	84 11 80 02 	or  %g6, %g2, %g2
   1334c:	87 31 20 18 	srl  %g4, 0x18, %g3
   13350:	8d 31 60 18 	srl  %g5, 0x18, %g6
   13354:	89 29 20 08 	sll  %g4, 8, %g4
   13358:	86 10 c0 01 	or  %g3, %g1, %g3
   1335c:	d8 3a 20 29 	std  %o4, [ %o0 + 0x29 ]
   13360:	c4 3a 20 31 	std  %g2, [ %o0 + 0x31 ]
   13364:	83 29 60 08 	sll  %g5, 8, %g1
   13368:	98 11 80 04 	or  %g6, %g4, %o4
   1336c:	96 a2 e0 40 	subcc  %o3, 0x40, %o3
   13370:	92 02 60 40 	add  %o1, 0x40, %o1
   13374:	12 bf ff be 	bne  1326c <__GI_memcpy+0x638>
   13378:	90 02 20 40 	add  %o0, 0x40, %o0
   1337c:	96 8a a0 30 	andcc  %o2, 0x30, %o3
   13380:	22 80 00 17 	be,a   133dc <__GI_memcpy+0x7a8>
   13384:	85 30 60 10 	srl  %g1, 0x10, %g2
   13388:	c4 1a 60 00 	ldd  [ %o1 ], %g2
   1338c:	c8 1a 60 08 	ldd  [ %o1 + 8 ], %g4
   13390:	9b 30 a0 18 	srl  %g2, 0x18, %o5
   13394:	8d 30 e0 18 	srl  %g3, 0x18, %g6
   13398:	85 28 a0 08 	sll  %g2, 8, %g2
   1339c:	9a 13 40 01 	or  %o5, %g1, %o5
   133a0:	83 28 e0 08 	sll  %g3, 8, %g1
   133a4:	84 11 80 02 	or  %g6, %g2, %g2
   133a8:	87 31 20 18 	srl  %g4, 0x18, %g3
   133ac:	8d 31 60 18 	srl  %g5, 0x18, %g6
   133b0:	89 29 20 08 	sll  %g4, 8, %g4
   133b4:	86 10 c0 01 	or  %g3, %g1, %g3
   133b8:	d8 3a 3f f9 	std  %o4, [ %o0 + -7 ]
   133bc:	c4 3a 20 01 	std  %g2, [ %o0 + 1 ]
   133c0:	83 29 60 08 	sll  %g5, 8, %g1
   133c4:	98 11 80 04 	or  %g6, %g4, %o4
   133c8:	96 a2 e0 10 	subcc  %o3, 0x10, %o3
   133cc:	92 02 60 10 	add  %o1, 0x10, %o1
   133d0:	12 bf ff ee 	bne  13388 <__GI_memcpy+0x754>
   133d4:	90 02 20 10 	add  %o0, 0x10, %o0
   133d8:	85 30 60 10 	srl  %g1, 0x10, %g2
   133dc:	d8 22 3f f9 	st  %o4, [ %o0 + -7 ]
   133e0:	c4 32 3f fd 	sth  %g2, [ %o0 + -3 ]
   133e4:	89 30 60 08 	srl  %g1, 8, %g4
   133e8:	10 80 01 f5 	b  13bbc <__GI_memcpy+0xf88>
   133ec:	c8 2a 3f ff 	stb  %g4, [ %o0 + -1 ]
   133f0:	c4 02 40 00 	ld  [ %o1 ], %g2
   133f4:	92 02 60 04 	add  %o1, 4, %o1
   133f8:	87 30 a0 10 	srl  %g2, 0x10, %g3
   133fc:	8a 0a 20 07 	and  %o0, 7, %g5
   13400:	c6 32 00 00 	sth  %g3, [ %o0 ]
   13404:	80 a1 60 06 	cmp  %g5, 6
   13408:	83 28 a0 10 	sll  %g2, 0x10, %g1
   1340c:	90 02 20 04 	add  %o0, 4, %o0
   13410:	02 80 01 8e 	be  13a48 <__GI_memcpy+0xe14>
   13414:	96 0a bf c0 	and  %o2, -64, %o3
   13418:	d8 02 3f fa 	ld  [ %o0 + -6 ], %o4
   1341c:	c4 1a 60 00 	ldd  [ %o1 ], %g2
   13420:	c8 1a 60 08 	ldd  [ %o1 + 8 ], %g4
   13424:	9b 30 a0 10 	srl  %g2, 0x10, %o5
   13428:	8d 30 e0 10 	srl  %g3, 0x10, %g6
   1342c:	85 28 a0 10 	sll  %g2, 0x10, %g2
   13430:	9a 13 40 01 	or  %o5, %g1, %o5
   13434:	83 28 e0 10 	sll  %g3, 0x10, %g1
   13438:	84 11 80 02 	or  %g6, %g2, %g2
   1343c:	87 31 20 10 	srl  %g4, 0x10, %g3
   13440:	8d 31 60 10 	srl  %g5, 0x10, %g6
   13444:	89 29 20 10 	sll  %g4, 0x10, %g4
   13448:	86 10 c0 01 	or  %g3, %g1, %g3
   1344c:	d8 3a 3f fa 	std  %o4, [ %o0 + -6 ]
   13450:	c4 3a 20 02 	std  %g2, [ %o0 + 2 ]
   13454:	83 29 60 10 	sll  %g5, 0x10, %g1
   13458:	98 11 80 04 	or  %g6, %g4, %o4
   1345c:	c4 1a 60 10 	ldd  [ %o1 + 0x10 ], %g2
   13460:	c8 1a 60 18 	ldd  [ %o1 + 0x18 ], %g4
   13464:	9b 30 a0 10 	srl  %g2, 0x10, %o5
   13468:	8d 30 e0 10 	srl  %g3, 0x10, %g6
   1346c:	85 28 a0 10 	sll  %g2, 0x10, %g2
   13470:	9a 13 40 01 	or  %o5, %g1, %o5
   13474:	83 28 e0 10 	sll  %g3, 0x10, %g1
   13478:	84 11 80 02 	or  %g6, %g2, %g2
   1347c:	87 31 20 10 	srl  %g4, 0x10, %g3
   13480:	8d 31 60 10 	srl  %g5, 0x10, %g6
   13484:	89 29 20 10 	sll  %g4, 0x10, %g4
   13488:	86 10 c0 01 	or  %g3, %g1, %g3
   1348c:	d8 3a 20 0a 	std  %o4, [ %o0 + 0xa ]
   13490:	c4 3a 20 12 	std  %g2, [ %o0 + 0x12 ]
   13494:	83 29 60 10 	sll  %g5, 0x10, %g1
   13498:	98 11 80 04 	or  %g6, %g4, %o4
   1349c:	c4 1a 60 20 	ldd  [ %o1 + 0x20 ], %g2
   134a0:	c8 1a 60 28 	ldd  [ %o1 + 0x28 ], %g4
   134a4:	9b 30 a0 10 	srl  %g2, 0x10, %o5
   134a8:	8d 30 e0 10 	srl  %g3, 0x10, %g6
   134ac:	85 28 a0 10 	sll  %g2, 0x10, %g2
   134b0:	9a 13 40 01 	or  %o5, %g1, %o5
   134b4:	83 28 e0 10 	sll  %g3, 0x10, %g1
   134b8:	84 11 80 02 	or  %g6, %g2, %g2
   134bc:	87 31 20 10 	srl  %g4, 0x10, %g3
   134c0:	8d 31 60 10 	srl  %g5, 0x10, %g6
   134c4:	89 29 20 10 	sll  %g4, 0x10, %g4
   134c8:	86 10 c0 01 	or  %g3, %g1, %g3
   134cc:	d8 3a 20 1a 	std  %o4, [ %o0 + 0x1a ]
   134d0:	c4 3a 20 22 	std  %g2, [ %o0 + 0x22 ]
   134d4:	83 29 60 10 	sll  %g5, 0x10, %g1
   134d8:	98 11 80 04 	or  %g6, %g4, %o4
   134dc:	c4 1a 60 30 	ldd  [ %o1 + 0x30 ], %g2
   134e0:	c8 1a 60 38 	ldd  [ %o1 + 0x38 ], %g4
   134e4:	9b 30 a0 10 	srl  %g2, 0x10, %o5
   134e8:	8d 30 e0 10 	srl  %g3, 0x10, %g6
   134ec:	85 28 a0 10 	sll  %g2, 0x10, %g2
   134f0:	9a 13 40 01 	or  %o5, %g1, %o5
   134f4:	83 28 e0 10 	sll  %g3, 0x10, %g1
   134f8:	84 11 80 02 	or  %g6, %g2, %g2
   134fc:	87 31 20 10 	srl  %g4, 0x10, %g3
   13500:	8d 31 60 10 	srl  %g5, 0x10, %g6
   13504:	89 29 20 10 	sll  %g4, 0x10, %g4
   13508:	86 10 c0 01 	or  %g3, %g1, %g3
   1350c:	d8 3a 20 2a 	std  %o4, [ %o0 + 0x2a ]
   13510:	c4 3a 20 32 	std  %g2, [ %o0 + 0x32 ]
   13514:	83 29 60 10 	sll  %g5, 0x10, %g1
   13518:	98 11 80 04 	or  %g6, %g4, %o4
   1351c:	96 a2 e0 40 	subcc  %o3, 0x40, %o3
   13520:	92 02 60 40 	add  %o1, 0x40, %o1
   13524:	12 bf ff be 	bne  1341c <__GI_memcpy+0x7e8>
   13528:	90 02 20 40 	add  %o0, 0x40, %o0
   1352c:	96 8a a0 30 	andcc  %o2, 0x30, %o3
   13530:	22 80 00 17 	be,a   1358c <__GI_memcpy+0x958>
   13534:	85 30 60 10 	srl  %g1, 0x10, %g2
   13538:	c4 1a 60 00 	ldd  [ %o1 ], %g2
   1353c:	c8 1a 60 08 	ldd  [ %o1 + 8 ], %g4
   13540:	9b 30 a0 10 	srl  %g2, 0x10, %o5
   13544:	8d 30 e0 10 	srl  %g3, 0x10, %g6
   13548:	85 28 a0 10 	sll  %g2, 0x10, %g2
   1354c:	9a 13 40 01 	or  %o5, %g1, %o5
   13550:	83 28 e0 10 	sll  %g3, 0x10, %g1
   13554:	84 11 80 02 	or  %g6, %g2, %g2
   13558:	87 31 20 10 	srl  %g4, 0x10, %g3
   1355c:	8d 31 60 10 	srl  %g5, 0x10, %g6
   13560:	89 29 20 10 	sll  %g4, 0x10, %g4
   13564:	86 10 c0 01 	or  %g3, %g1, %g3
   13568:	d8 3a 3f fa 	std  %o4, [ %o0 + -6 ]
   1356c:	c4 3a 20 02 	std  %g2, [ %o0 + 2 ]
   13570:	83 29 60 10 	sll  %g5, 0x10, %g1
   13574:	98 11 80 04 	or  %g6, %g4, %o4
   13578:	96 a2 e0 10 	subcc  %o3, 0x10, %o3
   1357c:	92 02 60 10 	add  %o1, 0x10, %o1
   13580:	12 bf ff ee 	bne  13538 <__GI_memcpy+0x904>
   13584:	90 02 20 10 	add  %o0, 0x10, %o0
   13588:	85 30 60 10 	srl  %g1, 0x10, %g2
   1358c:	d8 22 3f fa 	st  %o4, [ %o0 + -6 ]
   13590:	10 80 01 8b 	b  13bbc <__GI_memcpy+0xf88>
   13594:	c4 32 3f fe 	sth  %g2, [ %o0 + -2 ]
   13598:	c4 02 40 00 	ld  [ %o1 ], %g2
   1359c:	94 22 a0 04 	sub  %o2, 4, %o2
   135a0:	87 30 a0 18 	srl  %g2, 0x18, %g3
   135a4:	8a 0a 20 07 	and  %o0, 7, %g5
   135a8:	c6 2a 00 00 	stb  %g3, [ %o0 ]
   135ac:	80 a1 60 05 	cmp  %g5, 5
   135b0:	89 30 a0 08 	srl  %g2, 8, %g4
   135b4:	83 28 a0 18 	sll  %g2, 0x18, %g1
   135b8:	c8 32 20 01 	sth  %g4, [ %o0 + 1 ]
   135bc:	92 02 60 04 	add  %o1, 4, %o1
   135c0:	02 80 00 c3 	be  138cc <__GI_memcpy+0xc98>
   135c4:	96 0a bf c0 	and  %o2, -64, %o3
   135c8:	d8 02 3f ff 	ld  [ %o0 + -1 ], %o4
   135cc:	90 02 20 04 	add  %o0, 4, %o0
   135d0:	c4 1a 60 00 	ldd  [ %o1 ], %g2
   135d4:	c8 1a 60 08 	ldd  [ %o1 + 8 ], %g4
   135d8:	9b 30 a0 08 	srl  %g2, 8, %o5
   135dc:	8d 30 e0 08 	srl  %g3, 8, %g6
   135e0:	85 28 a0 18 	sll  %g2, 0x18, %g2
   135e4:	9a 13 40 01 	or  %o5, %g1, %o5
   135e8:	83 28 e0 18 	sll  %g3, 0x18, %g1
   135ec:	84 11 80 02 	or  %g6, %g2, %g2
   135f0:	87 31 20 08 	srl  %g4, 8, %g3
   135f4:	8d 31 60 08 	srl  %g5, 8, %g6
   135f8:	89 29 20 18 	sll  %g4, 0x18, %g4
   135fc:	86 10 c0 01 	or  %g3, %g1, %g3
   13600:	d8 3a 3f fb 	std  %o4, [ %o0 + -5 ]
   13604:	c4 3a 20 03 	std  %g2, [ %o0 + 3 ]
   13608:	83 29 60 18 	sll  %g5, 0x18, %g1
   1360c:	98 11 80 04 	or  %g6, %g4, %o4
   13610:	c4 1a 60 10 	ldd  [ %o1 + 0x10 ], %g2
   13614:	c8 1a 60 18 	ldd  [ %o1 + 0x18 ], %g4
   13618:	9b 30 a0 08 	srl  %g2, 8, %o5
   1361c:	8d 30 e0 08 	srl  %g3, 8, %g6
   13620:	85 28 a0 18 	sll  %g2, 0x18, %g2
   13624:	9a 13 40 01 	or  %o5, %g1, %o5
   13628:	83 28 e0 18 	sll  %g3, 0x18, %g1
   1362c:	84 11 80 02 	or  %g6, %g2, %g2
   13630:	87 31 20 08 	srl  %g4, 8, %g3
   13634:	8d 31 60 08 	srl  %g5, 8, %g6
   13638:	89 29 20 18 	sll  %g4, 0x18, %g4
   1363c:	86 10 c0 01 	or  %g3, %g1, %g3
   13640:	d8 3a 20 0b 	std  %o4, [ %o0 + 0xb ]
   13644:	c4 3a 20 13 	std  %g2, [ %o0 + 0x13 ]
   13648:	83 29 60 18 	sll  %g5, 0x18, %g1
   1364c:	98 11 80 04 	or  %g6, %g4, %o4
   13650:	c4 1a 60 20 	ldd  [ %o1 + 0x20 ], %g2
   13654:	c8 1a 60 28 	ldd  [ %o1 + 0x28 ], %g4
   13658:	9b 30 a0 08 	srl  %g2, 8, %o5
   1365c:	8d 30 e0 08 	srl  %g3, 8, %g6
   13660:	85 28 a0 18 	sll  %g2, 0x18, %g2
   13664:	9a 13 40 01 	or  %o5, %g1, %o5
   13668:	83 28 e0 18 	sll  %g3, 0x18, %g1
   1366c:	84 11 80 02 	or  %g6, %g2, %g2
   13670:	87 31 20 08 	srl  %g4, 8, %g3
   13674:	8d 31 60 08 	srl  %g5, 8, %g6
   13678:	89 29 20 18 	sll  %g4, 0x18, %g4
   1367c:	86 10 c0 01 	or  %g3, %g1, %g3
   13680:	d8 3a 20 1b 	std  %o4, [ %o0 + 0x1b ]
   13684:	c4 3a 20 23 	std  %g2, [ %o0 + 0x23 ]
   13688:	83 29 60 18 	sll  %g5, 0x18, %g1
   1368c:	98 11 80 04 	or  %g6, %g4, %o4
   13690:	c4 1a 60 30 	ldd  [ %o1 + 0x30 ], %g2
   13694:	c8 1a 60 38 	ldd  [ %o1 + 0x38 ], %g4
   13698:	9b 30 a0 08 	srl  %g2, 8, %o5
   1369c:	8d 30 e0 08 	srl  %g3, 8, %g6
   136a0:	85 28 a0 18 	sll  %g2, 0x18, %g2
   136a4:	9a 13 40 01 	or  %o5, %g1, %o5
   136a8:	83 28 e0 18 	sll  %g3, 0x18, %g1
   136ac:	84 11 80 02 	or  %g6, %g2, %g2
   136b0:	87 31 20 08 	srl  %g4, 8, %g3
   136b4:	8d 31 60 08 	srl  %g5, 8, %g6
   136b8:	89 29 20 18 	sll  %g4, 0x18, %g4
   136bc:	86 10 c0 01 	or  %g3, %g1, %g3
   136c0:	d8 3a 20 2b 	std  %o4, [ %o0 + 0x2b ]
   136c4:	c4 3a 20 33 	std  %g2, [ %o0 + 0x33 ]
   136c8:	83 29 60 18 	sll  %g5, 0x18, %g1
   136cc:	98 11 80 04 	or  %g6, %g4, %o4
   136d0:	96 a2 e0 40 	subcc  %o3, 0x40, %o3
   136d4:	92 02 60 40 	add  %o1, 0x40, %o1
   136d8:	12 bf ff be 	bne  135d0 <__GI_memcpy+0x99c>
   136dc:	90 02 20 40 	add  %o0, 0x40, %o0
   136e0:	96 8a a0 30 	andcc  %o2, 0x30, %o3
   136e4:	22 80 00 17 	be,a   13740 <__GI_memcpy+0xb0c>
   136e8:	85 30 60 18 	srl  %g1, 0x18, %g2
   136ec:	c4 1a 60 00 	ldd  [ %o1 ], %g2
   136f0:	c8 1a 60 08 	ldd  [ %o1 + 8 ], %g4
   136f4:	9b 30 a0 08 	srl  %g2, 8, %o5
   136f8:	8d 30 e0 08 	srl  %g3, 8, %g6
   136fc:	85 28 a0 18 	sll  %g2, 0x18, %g2
   13700:	9a 13 40 01 	or  %o5, %g1, %o5
   13704:	83 28 e0 18 	sll  %g3, 0x18, %g1
   13708:	84 11 80 02 	or  %g6, %g2, %g2
   1370c:	87 31 20 08 	srl  %g4, 8, %g3
   13710:	8d 31 60 08 	srl  %g5, 8, %g6
   13714:	89 29 20 18 	sll  %g4, 0x18, %g4
   13718:	86 10 c0 01 	or  %g3, %g1, %g3
   1371c:	d8 3a 3f fb 	std  %o4, [ %o0 + -5 ]
   13720:	c4 3a 20 03 	std  %g2, [ %o0 + 3 ]
   13724:	83 29 60 18 	sll  %g5, 0x18, %g1
   13728:	98 11 80 04 	or  %g6, %g4, %o4
   1372c:	96 a2 e0 10 	subcc  %o3, 0x10, %o3
   13730:	92 02 60 10 	add  %o1, 0x10, %o1
   13734:	12 bf ff ee 	bne  136ec <__GI_memcpy+0xab8>
   13738:	90 02 20 10 	add  %o0, 0x10, %o0
   1373c:	85 30 60 18 	srl  %g1, 0x18, %g2
   13740:	d8 22 3f fb 	st  %o4, [ %o0 + -5 ]
   13744:	10 80 01 1e 	b  13bbc <__GI_memcpy+0xf88>
   13748:	c4 2a 3f ff 	stb  %g2, [ %o0 + -1 ]
   1374c:	c4 1a 60 00 	ldd  [ %o1 ], %g2
   13750:	c8 1a 60 08 	ldd  [ %o1 + 8 ], %g4
   13754:	99 30 a0 18 	srl  %g2, 0x18, %o4
   13758:	9b 30 e0 18 	srl  %g3, 0x18, %o5
   1375c:	8d 28 a0 08 	sll  %g2, 8, %g6
   13760:	84 13 00 01 	or  %o4, %g1, %g2
   13764:	83 28 e0 08 	sll  %g3, 8, %g1
   13768:	86 13 40 06 	or  %o5, %g6, %g3
   1376c:	99 31 20 18 	srl  %g4, 0x18, %o4
   13770:	9b 31 60 18 	srl  %g5, 0x18, %o5
   13774:	8d 29 20 08 	sll  %g4, 8, %g6
   13778:	88 13 00 01 	or  %o4, %g1, %g4
   1377c:	83 29 60 08 	sll  %g5, 8, %g1
   13780:	8a 13 40 06 	or  %o5, %g6, %g5
   13784:	c4 3a 3f fd 	std  %g2, [ %o0 + -3 ]
   13788:	c8 3a 20 05 	std  %g4, [ %o0 + 5 ]
   1378c:	c4 1a 60 10 	ldd  [ %o1 + 0x10 ], %g2
   13790:	c8 1a 60 18 	ldd  [ %o1 + 0x18 ], %g4
   13794:	99 30 a0 18 	srl  %g2, 0x18, %o4
   13798:	9b 30 e0 18 	srl  %g3, 0x18, %o5
   1379c:	8d 28 a0 08 	sll  %g2, 8, %g6
   137a0:	84 13 00 01 	or  %o4, %g1, %g2
   137a4:	83 28 e0 08 	sll  %g3, 8, %g1
   137a8:	86 13 40 06 	or  %o5, %g6, %g3
   137ac:	99 31 20 18 	srl  %g4, 0x18, %o4
   137b0:	9b 31 60 18 	srl  %g5, 0x18, %o5
   137b4:	8d 29 20 08 	sll  %g4, 8, %g6
   137b8:	88 13 00 01 	or  %o4, %g1, %g4
   137bc:	83 29 60 08 	sll  %g5, 8, %g1
   137c0:	8a 13 40 06 	or  %o5, %g6, %g5
   137c4:	c4 3a 20 0d 	std  %g2, [ %o0 + 0xd ]
   137c8:	c8 3a 20 15 	std  %g4, [ %o0 + 0x15 ]
   137cc:	c4 1a 60 20 	ldd  [ %o1 + 0x20 ], %g2
   137d0:	c8 1a 60 28 	ldd  [ %o1 + 0x28 ], %g4
   137d4:	99 30 a0 18 	srl  %g2, 0x18, %o4
   137d8:	9b 30 e0 18 	srl  %g3, 0x18, %o5
   137dc:	8d 28 a0 08 	sll  %g2, 8, %g6
   137e0:	84 13 00 01 	or  %o4, %g1, %g2
   137e4:	83 28 e0 08 	sll  %g3, 8, %g1
   137e8:	86 13 40 06 	or  %o5, %g6, %g3
   137ec:	99 31 20 18 	srl  %g4, 0x18, %o4
   137f0:	9b 31 60 18 	srl  %g5, 0x18, %o5
   137f4:	8d 29 20 08 	sll  %g4, 8, %g6
   137f8:	88 13 00 01 	or  %o4, %g1, %g4
   137fc:	83 29 60 08 	sll  %g5, 8, %g1
   13800:	8a 13 40 06 	or  %o5, %g6, %g5
   13804:	c4 3a 20 1d 	std  %g2, [ %o0 + 0x1d ]
   13808:	c8 3a 20 25 	std  %g4, [ %o0 + 0x25 ]
   1380c:	c4 1a 60 30 	ldd  [ %o1 + 0x30 ], %g2
   13810:	c8 1a 60 38 	ldd  [ %o1 + 0x38 ], %g4
   13814:	99 30 a0 18 	srl  %g2, 0x18, %o4
   13818:	9b 30 e0 18 	srl  %g3, 0x18, %o5
   1381c:	8d 28 a0 08 	sll  %g2, 8, %g6
   13820:	84 13 00 01 	or  %o4, %g1, %g2
   13824:	83 28 e0 08 	sll  %g3, 8, %g1
   13828:	86 13 40 06 	or  %o5, %g6, %g3
   1382c:	99 31 20 18 	srl  %g4, 0x18, %o4
   13830:	9b 31 60 18 	srl  %g5, 0x18, %o5
   13834:	8d 29 20 08 	sll  %g4, 8, %g6
   13838:	88 13 00 01 	or  %o4, %g1, %g4
   1383c:	83 29 60 08 	sll  %g5, 8, %g1
   13840:	8a 13 40 06 	or  %o5, %g6, %g5
   13844:	c4 3a 20 2d 	std  %g2, [ %o0 + 0x2d ]
   13848:	c8 3a 20 35 	std  %g4, [ %o0 + 0x35 ]
   1384c:	96 a2 e0 40 	subcc  %o3, 0x40, %o3
   13850:	92 02 60 40 	add  %o1, 0x40, %o1
   13854:	12 bf ff be 	bne  1374c <__GI_memcpy+0xb18>
   13858:	90 02 20 40 	add  %o0, 0x40, %o0
   1385c:	96 8a a0 30 	andcc  %o2, 0x30, %o3
   13860:	22 80 00 17 	be,a   138bc <__GI_memcpy+0xc88>
   13864:	85 30 60 10 	srl  %g1, 0x10, %g2
   13868:	c4 1a 60 00 	ldd  [ %o1 ], %g2
   1386c:	c8 1a 60 08 	ldd  [ %o1 + 8 ], %g4
   13870:	99 30 a0 18 	srl  %g2, 0x18, %o4
   13874:	9b 30 e0 18 	srl  %g3, 0x18, %o5
   13878:	8d 28 a0 08 	sll  %g2, 8, %g6
   1387c:	84 13 00 01 	or  %o4, %g1, %g2
   13880:	83 28 e0 08 	sll  %g3, 8, %g1
   13884:	86 13 40 06 	or  %o5, %g6, %g3
   13888:	99 31 20 18 	srl  %g4, 0x18, %o4
   1388c:	9b 31 60 18 	srl  %g5, 0x18, %o5
   13890:	8d 29 20 08 	sll  %g4, 8, %g6
   13894:	88 13 00 01 	or  %o4, %g1, %g4
   13898:	83 29 60 08 	sll  %g5, 8, %g1
   1389c:	8a 13 40 06 	or  %o5, %g6, %g5
   138a0:	c4 3a 3f fd 	std  %g2, [ %o0 + -3 ]
   138a4:	c8 3a 20 05 	std  %g4, [ %o0 + 5 ]
   138a8:	96 a2 e0 10 	subcc  %o3, 0x10, %o3
   138ac:	92 02 60 10 	add  %o1, 0x10, %o1
   138b0:	12 bf ff ee 	bne  13868 <__GI_memcpy+0xc34>
   138b4:	90 02 20 10 	add  %o0, 0x10, %o0
   138b8:	85 30 60 10 	srl  %g1, 0x10, %g2
   138bc:	c4 32 3f fd 	sth  %g2, [ %o0 + -3 ]
   138c0:	89 30 60 08 	srl  %g1, 8, %g4
   138c4:	10 80 00 be 	b  13bbc <__GI_memcpy+0xf88>
   138c8:	c8 2a 3f ff 	stb  %g4, [ %o0 + -1 ]
   138cc:	c4 1a 60 00 	ldd  [ %o1 ], %g2
   138d0:	c8 1a 60 08 	ldd  [ %o1 + 8 ], %g4
   138d4:	99 30 a0 08 	srl  %g2, 8, %o4
   138d8:	9b 30 e0 08 	srl  %g3, 8, %o5
   138dc:	8d 28 a0 18 	sll  %g2, 0x18, %g6
   138e0:	84 13 00 01 	or  %o4, %g1, %g2
   138e4:	83 28 e0 18 	sll  %g3, 0x18, %g1
   138e8:	86 13 40 06 	or  %o5, %g6, %g3
   138ec:	99 31 20 08 	srl  %g4, 8, %o4
   138f0:	9b 31 60 08 	srl  %g5, 8, %o5
   138f4:	8d 29 20 18 	sll  %g4, 0x18, %g6
   138f8:	88 13 00 01 	or  %o4, %g1, %g4
   138fc:	83 29 60 18 	sll  %g5, 0x18, %g1
   13900:	8a 13 40 06 	or  %o5, %g6, %g5
   13904:	c4 3a 20 03 	std  %g2, [ %o0 + 3 ]
   13908:	c8 3a 20 0b 	std  %g4, [ %o0 + 0xb ]
   1390c:	c4 1a 60 10 	ldd  [ %o1 + 0x10 ], %g2
   13910:	c8 1a 60 18 	ldd  [ %o1 + 0x18 ], %g4
   13914:	99 30 a0 08 	srl  %g2, 8, %o4
   13918:	9b 30 e0 08 	srl  %g3, 8, %o5
   1391c:	8d 28 a0 18 	sll  %g2, 0x18, %g6
   13920:	84 13 00 01 	or  %o4, %g1, %g2
   13924:	83 28 e0 18 	sll  %g3, 0x18, %g1
   13928:	86 13 40 06 	or  %o5, %g6, %g3
   1392c:	99 31 20 08 	srl  %g4, 8, %o4
   13930:	9b 31 60 08 	srl  %g5, 8, %o5
   13934:	8d 29 20 18 	sll  %g4, 0x18, %g6
   13938:	88 13 00 01 	or  %o4, %g1, %g4
   1393c:	83 29 60 18 	sll  %g5, 0x18, %g1
   13940:	8a 13 40 06 	or  %o5, %g6, %g5
   13944:	c4 3a 20 13 	std  %g2, [ %o0 + 0x13 ]
   13948:	c8 3a 20 1b 	std  %g4, [ %o0 + 0x1b ]
   1394c:	c4 1a 60 20 	ldd  [ %o1 + 0x20 ], %g2
   13950:	c8 1a 60 28 	ldd  [ %o1 + 0x28 ], %g4
   13954:	99 30 a0 08 	srl  %g2, 8, %o4
   13958:	9b 30 e0 08 	srl  %g3, 8, %o5
   1395c:	8d 28 a0 18 	sll  %g2, 0x18, %g6
   13960:	84 13 00 01 	or  %o4, %g1, %g2
   13964:	83 28 e0 18 	sll  %g3, 0x18, %g1
   13968:	86 13 40 06 	or  %o5, %g6, %g3
   1396c:	99 31 20 08 	srl  %g4, 8, %o4
   13970:	9b 31 60 08 	srl  %g5, 8, %o5
   13974:	8d 29 20 18 	sll  %g4, 0x18, %g6
   13978:	88 13 00 01 	or  %o4, %g1, %g4
   1397c:	83 29 60 18 	sll  %g5, 0x18, %g1
   13980:	8a 13 40 06 	or  %o5, %g6, %g5
   13984:	c4 3a 20 23 	std  %g2, [ %o0 + 0x23 ]
   13988:	c8 3a 20 2b 	std  %g4, [ %o0 + 0x2b ]
   1398c:	c4 1a 60 30 	ldd  [ %o1 + 0x30 ], %g2
   13990:	c8 1a 60 38 	ldd  [ %o1 + 0x38 ], %g4
   13994:	99 30 a0 08 	srl  %g2, 8, %o4
   13998:	9b 30 e0 08 	srl  %g3, 8, %o5
   1399c:	8d 28 a0 18 	sll  %g2, 0x18, %g6
   139a0:	84 13 00 01 	or  %o4, %g1, %g2
   139a4:	83 28 e0 18 	sll  %g3, 0x18, %g1
   139a8:	86 13 40 06 	or  %o5, %g6, %g3
   139ac:	99 31 20 08 	srl  %g4, 8, %o4
   139b0:	9b 31 60 08 	srl  %g5, 8, %o5
   139b4:	8d 29 20 18 	sll  %g4, 0x18, %g6
   139b8:	88 13 00 01 	or  %o4, %g1, %g4
   139bc:	83 29 60 18 	sll  %g5, 0x18, %g1
   139c0:	8a 13 40 06 	or  %o5, %g6, %g5
   139c4:	c4 3a 20 33 	std  %g2, [ %o0 + 0x33 ]
   139c8:	c8 3a 20 3b 	std  %g4, [ %o0 + 0x3b ]
   139cc:	96 a2 e0 40 	subcc  %o3, 0x40, %o3
   139d0:	92 02 60 40 	add  %o1, 0x40, %o1
   139d4:	12 bf ff be 	bne  138cc <__GI_memcpy+0xc98>
   139d8:	90 02 20 40 	add  %o0, 0x40, %o0
   139dc:	96 8a a0 30 	andcc  %o2, 0x30, %o3
   139e0:	22 80 00 17 	be,a   13a3c <__GI_memcpy+0xe08>
   139e4:	85 30 60 18 	srl  %g1, 0x18, %g2
   139e8:	c4 1a 60 00 	ldd  [ %o1 ], %g2
   139ec:	c8 1a 60 08 	ldd  [ %o1 + 8 ], %g4
   139f0:	99 30 a0 08 	srl  %g2, 8, %o4
   139f4:	9b 30 e0 08 	srl  %g3, 8, %o5
   139f8:	8d 28 a0 18 	sll  %g2, 0x18, %g6
   139fc:	84 13 00 01 	or  %o4, %g1, %g2
   13a00:	83 28 e0 18 	sll  %g3, 0x18, %g1
   13a04:	86 13 40 06 	or  %o5, %g6, %g3
   13a08:	99 31 20 08 	srl  %g4, 8, %o4
   13a0c:	9b 31 60 08 	srl  %g5, 8, %o5
   13a10:	8d 29 20 18 	sll  %g4, 0x18, %g6
   13a14:	88 13 00 01 	or  %o4, %g1, %g4
   13a18:	83 29 60 18 	sll  %g5, 0x18, %g1
   13a1c:	8a 13 40 06 	or  %o5, %g6, %g5
   13a20:	c4 3a 20 03 	std  %g2, [ %o0 + 3 ]
   13a24:	c8 3a 20 0b 	std  %g4, [ %o0 + 0xb ]
   13a28:	96 a2 e0 10 	subcc  %o3, 0x10, %o3
   13a2c:	92 02 60 10 	add  %o1, 0x10, %o1
   13a30:	12 bf ff ee 	bne  139e8 <__GI_memcpy+0xdb4>
   13a34:	90 02 20 10 	add  %o0, 0x10, %o0
   13a38:	85 30 60 18 	srl  %g1, 0x18, %g2
   13a3c:	c4 2a 20 03 	stb  %g2, [ %o0 + 3 ]
   13a40:	10 80 00 5f 	b  13bbc <__GI_memcpy+0xf88>
   13a44:	90 02 20 04 	add  %o0, 4, %o0
   13a48:	c4 1a 60 00 	ldd  [ %o1 ], %g2
   13a4c:	c8 1a 60 08 	ldd  [ %o1 + 8 ], %g4
   13a50:	99 30 a0 10 	srl  %g2, 0x10, %o4
   13a54:	9b 30 e0 10 	srl  %g3, 0x10, %o5
   13a58:	8d 28 a0 10 	sll  %g2, 0x10, %g6
   13a5c:	84 13 00 01 	or  %o4, %g1, %g2
   13a60:	83 28 e0 10 	sll  %g3, 0x10, %g1
   13a64:	86 13 40 06 	or  %o5, %g6, %g3
   13a68:	99 31 20 10 	srl  %g4, 0x10, %o4
   13a6c:	9b 31 60 10 	srl  %g5, 0x10, %o5
   13a70:	8d 29 20 10 	sll  %g4, 0x10, %g6
   13a74:	88 13 00 01 	or  %o4, %g1, %g4
   13a78:	83 29 60 10 	sll  %g5, 0x10, %g1
   13a7c:	8a 13 40 06 	or  %o5, %g6, %g5
   13a80:	c4 3a 3f fe 	std  %g2, [ %o0 + -2 ]
   13a84:	c8 3a 20 06 	std  %g4, [ %o0 + 6 ]
   13a88:	c4 1a 60 10 	ldd  [ %o1 + 0x10 ], %g2
   13a8c:	c8 1a 60 18 	ldd  [ %o1 + 0x18 ], %g4
   13a90:	99 30 a0 10 	srl  %g2, 0x10, %o4
   13a94:	9b 30 e0 10 	srl  %g3, 0x10, %o5
   13a98:	8d 28 a0 10 	sll  %g2, 0x10, %g6
   13a9c:	84 13 00 01 	or  %o4, %g1, %g2
   13aa0:	83 28 e0 10 	sll  %g3, 0x10, %g1
   13aa4:	86 13 40 06 	or  %o5, %g6, %g3
   13aa8:	99 31 20 10 	srl  %g4, 0x10, %o4
   13aac:	9b 31 60 10 	srl  %g5, 0x10, %o5
   13ab0:	8d 29 20 10 	sll  %g4, 0x10, %g6
   13ab4:	88 13 00 01 	or  %o4, %g1, %g4
   13ab8:	83 29 60 10 	sll  %g5, 0x10, %g1
   13abc:	8a 13 40 06 	or  %o5, %g6, %g5
   13ac0:	c4 3a 20 0e 	std  %g2, [ %o0 + 0xe ]
   13ac4:	c8 3a 20 16 	std  %g4, [ %o0 + 0x16 ]
   13ac8:	c4 1a 60 20 	ldd  [ %o1 + 0x20 ], %g2
   13acc:	c8 1a 60 28 	ldd  [ %o1 + 0x28 ], %g4
   13ad0:	99 30 a0 10 	srl  %g2, 0x10, %o4
   13ad4:	9b 30 e0 10 	srl  %g3, 0x10, %o5
   13ad8:	8d 28 a0 10 	sll  %g2, 0x10, %g6
   13adc:	84 13 00 01 	or  %o4, %g1, %g2
   13ae0:	83 28 e0 10 	sll  %g3, 0x10, %g1
   13ae4:	86 13 40 06 	or  %o5, %g6, %g3
   13ae8:	99 31 20 10 	srl  %g4, 0x10, %o4
   13aec:	9b 31 60 10 	srl  %g5, 0x10, %o5
   13af0:	8d 29 20 10 	sll  %g4, 0x10, %g6
   13af4:	88 13 00 01 	or  %o4, %g1, %g4
   13af8:	83 29 60 10 	sll  %g5, 0x10, %g1
   13afc:	8a 13 40 06 	or  %o5, %g6, %g5
   13b00:	c4 3a 20 1e 	std  %g2, [ %o0 + 0x1e ]
   13b04:	c8 3a 20 26 	std  %g4, [ %o0 + 0x26 ]
   13b08:	c4 1a 60 30 	ldd  [ %o1 + 0x30 ], %g2
   13b0c:	c8 1a 60 38 	ldd  [ %o1 + 0x38 ], %g4
   13b10:	99 30 a0 10 	srl  %g2, 0x10, %o4
   13b14:	9b 30 e0 10 	srl  %g3, 0x10, %o5
   13b18:	8d 28 a0 10 	sll  %g2, 0x10, %g6
   13b1c:	84 13 00 01 	or  %o4, %g1, %g2
   13b20:	83 28 e0 10 	sll  %g3, 0x10, %g1
   13b24:	86 13 40 06 	or  %o5, %g6, %g3
   13b28:	99 31 20 10 	srl  %g4, 0x10, %o4
   13b2c:	9b 31 60 10 	srl  %g5, 0x10, %o5
   13b30:	8d 29 20 10 	sll  %g4, 0x10, %g6
   13b34:	88 13 00 01 	or  %o4, %g1, %g4
   13b38:	83 29 60 10 	sll  %g5, 0x10, %g1
   13b3c:	8a 13 40 06 	or  %o5, %g6, %g5
   13b40:	c4 3a 20 2e 	std  %g2, [ %o0 + 0x2e ]
   13b44:	c8 3a 20 36 	std  %g4, [ %o0 + 0x36 ]
   13b48:	96 a2 e0 40 	subcc  %o3, 0x40, %o3
   13b4c:	92 02 60 40 	add  %o1, 0x40, %o1
   13b50:	12 bf ff be 	bne  13a48 <__GI_memcpy+0xe14>
   13b54:	90 02 20 40 	add  %o0, 0x40, %o0
   13b58:	96 8a a0 30 	andcc  %o2, 0x30, %o3
   13b5c:	22 80 00 17 	be,a   13bb8 <__GI_memcpy+0xf84>
   13b60:	85 30 60 10 	srl  %g1, 0x10, %g2
   13b64:	c4 1a 60 00 	ldd  [ %o1 ], %g2
   13b68:	c8 1a 60 08 	ldd  [ %o1 + 8 ], %g4
   13b6c:	99 30 a0 10 	srl  %g2, 0x10, %o4
   13b70:	9b 30 e0 10 	srl  %g3, 0x10, %o5
   13b74:	8d 28 a0 10 	sll  %g2, 0x10, %g6
   13b78:	84 13 00 01 	or  %o4, %g1, %g2
   13b7c:	83 28 e0 10 	sll  %g3, 0x10, %g1
   13b80:	86 13 40 06 	or  %o5, %g6, %g3
   13b84:	99 31 20 10 	srl  %g4, 0x10, %o4
   13b88:	9b 31 60 10 	srl  %g5, 0x10, %o5
   13b8c:	8d 29 20 10 	sll  %g4, 0x10, %g6
   13b90:	88 13 00 01 	or  %o4, %g1, %g4
   13b94:	83 29 60 10 	sll  %g5, 0x10, %g1
   13b98:	8a 13 40 06 	or  %o5, %g6, %g5
   13b9c:	c4 3a 3f fe 	std  %g2, [ %o0 + -2 ]
   13ba0:	c8 3a 20 06 	std  %g4, [ %o0 + 6 ]
   13ba4:	96 a2 e0 10 	subcc  %o3, 0x10, %o3
   13ba8:	92 02 60 10 	add  %o1, 0x10, %o1
   13bac:	12 bf ff ee 	bne  13b64 <__GI_memcpy+0xf30>
   13bb0:	90 02 20 10 	add  %o0, 0x10, %o0
   13bb4:	85 30 60 10 	srl  %g1, 0x10, %g2
   13bb8:	c4 32 3f fe 	sth  %g2, [ %o0 + -2 ]
   13bbc:	96 0a a0 0e 	and  %o2, 0xe, %o3
   13bc0:	84 10 00 0f 	mov  %o7, %g2
   13bc4:	99 2a e0 03 	sll  %o3, 3, %o4
   13bc8:	90 02 00 0b 	add  %o0, %o3, %o0
   13bcc:	40 00 00 33 	call  13c98 <__GI_memcpy+0x1064>
   13bd0:	92 02 40 0b 	add  %o1, %o3, %o1
   13bd4:	9e 10 00 02 	mov  %g2, %o7
   13bd8:	81 c3 60 84 	jmp  %o5 + 0x84
   13bdc:	80 8a a0 01 	btst  1, %o2
   13be0:	c4 0a 7f f2 	ldub  [ %o1 + -14 ], %g2
   13be4:	c6 0a 7f f3 	ldub  [ %o1 + -13 ], %g3
   13be8:	c4 2a 3f f2 	stb  %g2, [ %o0 + -14 ]
   13bec:	c6 2a 3f f3 	stb  %g3, [ %o0 + -13 ]
   13bf0:	c4 0a 7f f4 	ldub  [ %o1 + -12 ], %g2
   13bf4:	c6 0a 7f f5 	ldub  [ %o1 + -11 ], %g3
   13bf8:	c4 2a 3f f4 	stb  %g2, [ %o0 + -12 ]
   13bfc:	c6 2a 3f f5 	stb  %g3, [ %o0 + -11 ]
   13c00:	c4 0a 7f f6 	ldub  [ %o1 + -10 ], %g2
   13c04:	c6 0a 7f f7 	ldub  [ %o1 + -9 ], %g3
   13c08:	c4 2a 3f f6 	stb  %g2, [ %o0 + -10 ]
   13c0c:	c6 2a 3f f7 	stb  %g3, [ %o0 + -9 ]
   13c10:	c4 0a 7f f8 	ldub  [ %o1 + -8 ], %g2
   13c14:	c6 0a 7f f9 	ldub  [ %o1 + -7 ], %g3
   13c18:	c4 2a 3f f8 	stb  %g2, [ %o0 + -8 ]
   13c1c:	c6 2a 3f f9 	stb  %g3, [ %o0 + -7 ]
   13c20:	c4 0a 7f fa 	ldub  [ %o1 + -6 ], %g2
   13c24:	c6 0a 7f fb 	ldub  [ %o1 + -5 ], %g3
   13c28:	c4 2a 3f fa 	stb  %g2, [ %o0 + -6 ]
   13c2c:	c6 2a 3f fb 	stb  %g3, [ %o0 + -5 ]
   13c30:	c4 0a 7f fc 	ldub  [ %o1 + -4 ], %g2
   13c34:	c6 0a 7f fd 	ldub  [ %o1 + -3 ], %g3
   13c38:	c4 2a 3f fc 	stb  %g2, [ %o0 + -4 ]
   13c3c:	c6 2a 3f fd 	stb  %g3, [ %o0 + -3 ]
   13c40:	c4 0a 7f fe 	ldub  [ %o1 + -2 ], %g2
   13c44:	c6 0a 7f ff 	ldub  [ %o1 + -1 ], %g3
   13c48:	c4 2a 3f fe 	stb  %g2, [ %o0 + -2 ]
   13c4c:	c6 2a 3f ff 	stb  %g3, [ %o0 + -1 ]
   13c50:	02 80 00 04 	be  13c60 <__GI_memcpy+0x102c>
   13c54:	01 00 00 00 	nop 
   13c58:	c4 0a 40 00 	ldub  [ %o1 ], %g2
   13c5c:	c4 2a 00 00 	stb  %g2, [ %o0 ]
   13c60:	81 c3 e0 08 	retl 
   13c64:	d0 03 a0 40 	ld  [ %sp + 0x40 ], %o0
   13c68:	12 bf ff d5 	bne  13bbc <__GI_memcpy+0xf88>
   13c6c:	80 8a a0 08 	btst  8, %o2
   13c70:	02 80 00 08 	be  13c90 <__GI_memcpy+0x105c>
   13c74:	80 8a a0 04 	btst  4, %o2
   13c78:	c4 02 60 00 	ld  [ %o1 ], %g2
   13c7c:	c6 02 60 04 	ld  [ %o1 + 4 ], %g3
   13c80:	92 02 60 08 	add  %o1, 8, %o1
   13c84:	c4 22 20 00 	st  %g2, [ %o0 ]
   13c88:	c6 22 20 04 	st  %g3, [ %o0 + 4 ]
   13c8c:	90 02 20 08 	add  %o0, 8, %o0
   13c90:	10 bf fc 6d 	b  12e44 <__GI_memcpy+0x210>
   13c94:	82 10 00 0a 	mov  %o2, %g1
   13c98:	81 c3 e0 08 	retl 
   13c9c:	9a 23 c0 0c 	sub  %o7, %o4, %o5
   13ca0:	81 c3 e0 08 	retl 
   13ca4:	9a 23 c0 06 	sub  %o7, %g6, %o5

00013ca8 <bzero>:
   13ca8:	10 80 00 13 	b  13cf4 <__GI_memset+0x18>
   13cac:	86 10 00 00 	mov  %g0, %g3
   13cb0:	80 a2 a0 03 	cmp  %o2, 3
   13cb4:	02 80 00 06 	be  13ccc <bzero+0x24>
   13cb8:	c6 2a 00 00 	stb  %g3, [ %o0 ]
   13cbc:	80 a2 a0 02 	cmp  %o2, 2
   13cc0:	02 80 00 03 	be  13ccc <bzero+0x24>
   13cc4:	c6 2a 20 01 	stb  %g3, [ %o0 + 1 ]
   13cc8:	c6 2a 20 02 	stb  %g3, [ %o0 + 2 ]
   13ccc:	94 22 a0 04 	sub  %o2, 4, %o2
   13cd0:	92 02 40 0a 	add  %o1, %o2, %o1
   13cd4:	10 80 00 0d 	b  13d08 <__GI_memset+0x2c>
   13cd8:	90 22 00 0a 	sub  %o0, %o2, %o0

00013cdc <__GI_memset>:
   13cdc:	86 0a 60 ff 	and  %o1, 0xff, %g3
   13ce0:	85 28 e0 08 	sll  %g3, 8, %g2
   13ce4:	86 10 c0 02 	or  %g3, %g2, %g3
   13ce8:	85 28 e0 10 	sll  %g3, 0x10, %g2
   13cec:	86 10 c0 02 	or  %g3, %g2, %g3
   13cf0:	92 92 80 00 	orcc  %o2, %g0, %o1
   13cf4:	80 a2 60 07 	cmp  %o1, 7
   13cf8:	08 80 00 49 	bleu  13e1c <__GI_memset+0x140>
   13cfc:	82 10 00 08 	mov  %o0, %g1
   13d00:	94 8a 20 03 	andcc  %o0, 3, %o2
   13d04:	12 bf ff eb 	bne  13cb0 <bzero+0x8>
   13d08:	80 8a 20 04 	btst  4, %o0
   13d0c:	02 80 00 05 	be  13d20 <__GI_memset+0x44>
   13d10:	84 10 00 03 	mov  %g3, %g2
   13d14:	c6 22 00 00 	st  %g3, [ %o0 ]
   13d18:	92 22 60 04 	sub  %o1, 4, %o1
   13d1c:	90 02 20 04 	add  %o0, 4, %o0
   13d20:	96 8a 7f 80 	andcc  %o1, -128, %o3
   13d24:	02 80 00 16 	be  13d7c <__GI_memset+0xa0>
   13d28:	94 8a 60 78 	andcc  %o1, 0x78, %o2
   13d2c:	c4 3a 20 00 	std  %g2, [ %o0 ]
   13d30:	c4 3a 20 08 	std  %g2, [ %o0 + 8 ]
   13d34:	c4 3a 20 10 	std  %g2, [ %o0 + 0x10 ]
   13d38:	c4 3a 20 18 	std  %g2, [ %o0 + 0x18 ]
   13d3c:	c4 3a 20 20 	std  %g2, [ %o0 + 0x20 ]
   13d40:	c4 3a 20 28 	std  %g2, [ %o0 + 0x28 ]
   13d44:	c4 3a 20 30 	std  %g2, [ %o0 + 0x30 ]
   13d48:	c4 3a 20 38 	std  %g2, [ %o0 + 0x38 ]
   13d4c:	96 a2 e0 80 	subcc  %o3, 0x80, %o3
   13d50:	c4 3a 20 40 	std  %g2, [ %o0 + 0x40 ]
   13d54:	c4 3a 20 48 	std  %g2, [ %o0 + 0x48 ]
   13d58:	c4 3a 20 50 	std  %g2, [ %o0 + 0x50 ]
   13d5c:	c4 3a 20 58 	std  %g2, [ %o0 + 0x58 ]
   13d60:	c4 3a 20 60 	std  %g2, [ %o0 + 0x60 ]
   13d64:	c4 3a 20 68 	std  %g2, [ %o0 + 0x68 ]
   13d68:	c4 3a 20 70 	std  %g2, [ %o0 + 0x70 ]
   13d6c:	c4 3a 20 78 	std  %g2, [ %o0 + 0x78 ]
   13d70:	12 bf ff ef 	bne  13d2c <__GI_memset+0x50>
   13d74:	90 02 20 80 	add  %o0, 0x80, %o0
   13d78:	80 92 80 00 	tst  %o2
   13d7c:	02 80 00 1a 	be  13de4 <__GI_memset+0x108>
   13d80:	92 8a 60 07 	andcc  %o1, 7, %o1
   13d84:	88 10 00 0f 	mov  %o7, %g4
   13d88:	40 00 00 05 	call  13d9c <__GI_memset+0xc0>
   13d8c:	97 32 a0 01 	srl  %o2, 1, %o3
   13d90:	9e 10 00 04 	mov  %g4, %o7
   13d94:	81 c3 20 5c 	jmp  %o4 + 0x5c
   13d98:	90 02 00 0a 	add  %o0, %o2, %o0
   13d9c:	81 c3 e0 08 	retl 
   13da0:	98 23 c0 0b 	sub  %o7, %o3, %o4
   13da4:	c4 3a 3f 80 	std  %g2, [ %o0 + -128 ]
   13da8:	c4 3a 3f 88 	std  %g2, [ %o0 + -120 ]
   13dac:	c4 3a 3f 90 	std  %g2, [ %o0 + -112 ]
   13db0:	c4 3a 3f 98 	std  %g2, [ %o0 + -104 ]
   13db4:	c4 3a 3f a0 	std  %g2, [ %o0 + -96 ]
   13db8:	c4 3a 3f a8 	std  %g2, [ %o0 + -88 ]
   13dbc:	c4 3a 3f b0 	std  %g2, [ %o0 + -80 ]
   13dc0:	c4 3a 3f b8 	std  %g2, [ %o0 + -72 ]
   13dc4:	c4 3a 3f c0 	std  %g2, [ %o0 + -64 ]
   13dc8:	c4 3a 3f c8 	std  %g2, [ %o0 + -56 ]
   13dcc:	c4 3a 3f d0 	std  %g2, [ %o0 + -48 ]
   13dd0:	c4 3a 3f d8 	std  %g2, [ %o0 + -40 ]
   13dd4:	c4 3a 3f e0 	std  %g2, [ %o0 + -32 ]
   13dd8:	c4 3a 3f e8 	std  %g2, [ %o0 + -24 ]
   13ddc:	c4 3a 3f f0 	std  %g2, [ %o0 + -16 ]
   13de0:	c4 3a 3f f8 	std  %g2, [ %o0 + -8 ]
   13de4:	02 80 00 0c 	be  13e14 <__GI_memset+0x138>
   13de8:	80 8a 60 04 	btst  4, %o1
   13dec:	02 80 00 04 	be  13dfc <__GI_memset+0x120>
   13df0:	80 8a 60 02 	btst  2, %o1
   13df4:	c6 22 00 00 	st  %g3, [ %o0 ]
   13df8:	90 02 20 04 	add  %o0, 4, %o0
   13dfc:	02 80 00 04 	be  13e0c <__GI_memset+0x130>
   13e00:	80 8a 60 01 	btst  1, %o1
   13e04:	c6 32 00 00 	sth  %g3, [ %o0 ]
   13e08:	90 02 20 02 	add  %o0, 2, %o0
   13e0c:	32 80 00 02 	bne,a   13e14 <__GI_memset+0x138>
   13e10:	c6 2a 00 00 	stb  %g3, [ %o0 ]
   13e14:	81 c3 e0 08 	retl 
   13e18:	90 10 00 01 	mov  %g1, %o0
   13e1c:	80 92 60 00 	tst  %o1
   13e20:	02 80 00 15 	be  13e74 <__GI_memset+0x198>
   13e24:	92 a2 60 01 	deccc  %o1
   13e28:	c6 2a 00 00 	stb  %g3, [ %o0 ]
   13e2c:	02 80 00 12 	be  13e74 <__GI_memset+0x198>
   13e30:	92 a2 60 01 	deccc  %o1
   13e34:	c6 2a 20 01 	stb  %g3, [ %o0 + 1 ]
   13e38:	02 80 00 0f 	be  13e74 <__GI_memset+0x198>
   13e3c:	92 a2 60 01 	deccc  %o1
   13e40:	c6 2a 20 02 	stb  %g3, [ %o0 + 2 ]
   13e44:	02 80 00 0c 	be  13e74 <__GI_memset+0x198>
   13e48:	92 a2 60 01 	deccc  %o1
   13e4c:	c6 2a 20 03 	stb  %g3, [ %o0 + 3 ]
   13e50:	02 80 00 09 	be  13e74 <__GI_memset+0x198>
   13e54:	92 a2 60 01 	deccc  %o1
   13e58:	c6 2a 20 04 	stb  %g3, [ %o0 + 4 ]
   13e5c:	02 80 00 06 	be  13e74 <__GI_memset+0x198>
   13e60:	92 a2 60 01 	deccc  %o1
   13e64:	c6 2a 20 05 	stb  %g3, [ %o0 + 5 ]
   13e68:	02 80 00 03 	be  13e74 <__GI_memset+0x198>
   13e6c:	92 a2 60 01 	deccc  %o1
   13e70:	c6 2a 20 06 	stb  %g3, [ %o0 + 6 ]
   13e74:	81 c3 e0 08 	retl 
   13e78:	01 00 00 00 	nop 
   13e7c:	d8 0a 00 00 	ldub  [ %o0 ], %o4
   13e80:	90 02 20 01 	inc  %o0
   13e84:	da 0a 40 00 	ldub  [ %o1 ], %o5
   13e88:	80 a3 20 00 	cmp  %o4, 0
   13e8c:	92 02 60 01 	inc  %o1
   13e90:	02 80 00 1e 	be  13f08 <__GI_memset+0x22c>
   13e94:	98 a3 00 0d 	subcc  %o4, %o5, %o4
   13e98:	12 80 00 1c 	bne  13f08 <__GI_memset+0x22c>
   13e9c:	80 8a 20 03 	btst  3, %o0
   13ea0:	02 80 00 20 	be  13f20 <__GI_strcmp+0x10>
   13ea4:	96 10 60 80 	or  %g1, 0x80, %o3
   13ea8:	d8 0a 00 00 	ldub  [ %o0 ], %o4
   13eac:	90 02 20 01 	inc  %o0
   13eb0:	da 0a 40 00 	ldub  [ %o1 ], %o5
   13eb4:	80 a3 20 00 	cmp  %o4, 0
   13eb8:	92 02 60 01 	inc  %o1
   13ebc:	02 80 00 13 	be  13f08 <__GI_memset+0x22c>
   13ec0:	98 a3 00 0d 	subcc  %o4, %o5, %o4
   13ec4:	12 80 00 11 	bne  13f08 <__GI_memset+0x22c>
   13ec8:	80 8a 20 03 	btst  3, %o0
   13ecc:	02 80 00 16 	be  13f24 <__GI_strcmp+0x14>
   13ed0:	03 00 40 40 	sethi  %hi(0x1010000), %g1
   13ed4:	d8 0a 00 00 	ldub  [ %o0 ], %o4
   13ed8:	90 02 20 01 	inc  %o0
   13edc:	da 0a 40 00 	ldub  [ %o1 ], %o5
   13ee0:	80 a3 20 00 	cmp  %o4, 0
   13ee4:	92 02 60 01 	inc  %o1
   13ee8:	02 80 00 08 	be  13f08 <__GI_memset+0x22c>
   13eec:	98 a3 00 0d 	subcc  %o4, %o5, %o4
   13ef0:	12 80 00 06 	bne  13f08 <__GI_memset+0x22c>
   13ef4:	84 8a 60 03 	andcc  %o1, 3, %g2
   13ef8:	12 80 00 3c 	bne  13fe8 <__GI_strcmp+0xd8>
   13efc:	94 10 61 01 	or  %g1, 0x101, %o2
   13f00:	10 80 00 0d 	b  13f34 <__GI_strcmp+0x24>
   13f04:	d8 02 00 00 	ld  [ %o0 ], %o4
   13f08:	81 c3 e0 08 	retl 
   13f0c:	90 10 00 0c 	mov  %o4, %o0

00013f10 <__GI_strcmp>:
   13f10:	80 8a 20 03 	btst  3, %o0
   13f14:	12 bf ff da 	bne  13e7c <__GI_memset+0x1a0>
   13f18:	03 20 20 20 	sethi  %hi(0x80808000), %g1
   13f1c:	96 10 60 80 	or  %g1, 0x80, %o3	! 80808080 <_end+0x807c48e0>
   13f20:	03 00 40 40 	sethi  %hi(0x1010000), %g1
   13f24:	84 8a 60 03 	andcc  %o1, 3, %g2
   13f28:	12 80 00 30 	bne  13fe8 <__GI_strcmp+0xd8>
   13f2c:	94 10 61 01 	or  %g1, 0x101, %o2
   13f30:	d8 02 00 00 	ld  [ %o0 ], %o4
   13f34:	da 02 40 00 	ld  [ %o1 ], %o5
   13f38:	82 23 00 0a 	sub  %o4, %o2, %g1
   13f3c:	90 02 20 04 	add  %o0, 4, %o0
   13f40:	80 a3 00 0d 	cmp  %o4, %o5
   13f44:	12 80 00 12 	bne  13f8c <__GI_strcmp+0x7c>
   13f48:	80 88 40 0b 	btst  %g1, %o3
   13f4c:	02 bf ff f9 	be  13f30 <__GI_strcmp+0x20>
   13f50:	92 02 60 04 	add  %o1, 4, %o1
   13f54:	89 33 20 18 	srl  %o4, 0x18, %g4
   13f58:	80 89 20 ff 	btst  0xff, %g4
   13f5c:	02 80 00 0a 	be  13f84 <__GI_strcmp+0x74>
   13f60:	89 33 20 10 	srl  %o4, 0x10, %g4
   13f64:	80 89 20 ff 	btst  0xff, %g4
   13f68:	02 80 00 07 	be  13f84 <__GI_strcmp+0x74>
   13f6c:	89 33 20 08 	srl  %o4, 8, %g4
   13f70:	80 89 20 ff 	btst  0xff, %g4
   13f74:	02 80 00 04 	be  13f84 <__GI_strcmp+0x74>
   13f78:	80 8b 20 ff 	btst  0xff, %o4
   13f7c:	32 bf ff ee 	bne,a   13f34 <__GI_strcmp+0x24>
   13f80:	d8 02 00 00 	ld  [ %o0 ], %o4
   13f84:	81 c3 e0 08 	retl 
   13f88:	90 10 00 00 	mov  %g0, %o0
   13f8c:	89 33 20 18 	srl  %o4, 0x18, %g4
   13f90:	8b 33 60 18 	srl  %o5, 0x18, %g5
   13f94:	80 89 20 ff 	btst  0xff, %g4
   13f98:	02 80 00 12 	be  13fe0 <__GI_strcmp+0xd0>
   13f9c:	88 a1 00 05 	subcc  %g4, %g5, %g4
   13fa0:	12 80 00 10 	bne  13fe0 <__GI_strcmp+0xd0>
   13fa4:	8b 33 60 10 	srl  %o5, 0x10, %g5
   13fa8:	89 33 20 10 	srl  %o4, 0x10, %g4
   13fac:	80 89 20 ff 	btst  0xff, %g4
   13fb0:	02 80 00 0c 	be  13fe0 <__GI_strcmp+0xd0>
   13fb4:	88 a1 00 05 	subcc  %g4, %g5, %g4
   13fb8:	12 80 00 0a 	bne  13fe0 <__GI_strcmp+0xd0>
   13fbc:	8b 33 60 08 	srl  %o5, 8, %g5
   13fc0:	89 33 20 08 	srl  %o4, 8, %g4
   13fc4:	80 89 20 ff 	btst  0xff, %g4
   13fc8:	02 80 00 06 	be  13fe0 <__GI_strcmp+0xd0>
   13fcc:	88 a1 00 05 	subcc  %g4, %g5, %g4
   13fd0:	12 80 00 04 	bne  13fe0 <__GI_strcmp+0xd0>
   13fd4:	98 a3 00 0d 	subcc  %o4, %o5, %o4
   13fd8:	81 c3 e0 08 	retl 
   13fdc:	90 10 00 0c 	mov  %o4, %o0
   13fe0:	81 c3 e0 08 	retl 
   13fe4:	90 10 00 04 	mov  %g4, %o0
   13fe8:	9d e3 bf c0 	save  %sp, -64, %sp
   13fec:	f8 06 00 00 	ld  [ %i0 ], %i4
   13ff0:	87 28 a0 03 	sll  %g2, 3, %g3
   13ff4:	b2 2e 60 03 	andn  %i1, 3, %i1
   13ff8:	a2 10 20 20 	mov  0x20, %l1
   13ffc:	e4 06 40 00 	ld  [ %i1 ], %l2
   14000:	8c 10 3f ff 	mov  -1, %g6
   14004:	b2 06 60 04 	add  %i1, 4, %i1
   14008:	a2 24 40 03 	sub  %l1, %g3, %l1
   1400c:	8d 29 80 03 	sll  %g6, %g3, %g6
   14010:	8b 2c 80 03 	sll  %l2, %g3, %g5
   14014:	a6 0f 00 06 	and  %i4, %g6, %l3
   14018:	82 27 00 1a 	sub  %i4, %i2, %g1
   1401c:	82 88 40 1b 	andcc  %g1, %i3, %g1
   14020:	12 80 00 14 	bne  14070 <__GI_strcmp+0x160>
   14024:	80 a1 40 13 	cmp  %g5, %l3
   14028:	12 80 00 0c 	bne  14058 <__GI_strcmp+0x148>
   1402c:	b0 06 20 04 	add  %i0, 4, %i0
   14030:	e4 06 40 00 	ld  [ %i1 ], %l2
   14034:	b2 06 60 04 	add  %i1, 4, %i1
   14038:	a9 34 80 11 	srl  %l2, %l1, %l4
   1403c:	a8 15 00 05 	or  %l4, %g5, %l4
   14040:	80 a5 00 1c 	cmp  %l4, %i4
   14044:	22 bf ff f3 	be,a   14010 <__GI_strcmp+0x100>
   14048:	f8 06 00 00 	ld  [ %i0 ], %i4
   1404c:	97 ed 00 00 	restore  %l4, %g0, %o3
   14050:	81 c3 e0 08 	retl 
   14054:	90 23 00 0b 	sub  %o4, %o3, %o0
   14058:	b5 2c 80 03 	sll  %l2, %g3, %i2
   1405c:	b7 37 00 03 	srl  %i4, %g3, %i3
   14060:	b5 36 80 03 	srl  %i2, %g3, %i2
   14064:	81 e8 00 00 	restore 
   14068:	81 c3 e0 08 	retl 
   1406c:	90 22 c0 0a 	sub  %o3, %o2, %o0
   14070:	89 37 20 18 	srl  %i4, 0x18, %g4
   14074:	ad 31 60 18 	srl  %g5, 0x18, %l6
   14078:	80 89 20 ff 	btst  0xff, %g4
   1407c:	02 80 00 1c 	be  140ec <__GI_strcmp+0x1dc>
   14080:	88 a1 00 16 	subcc  %g4, %l6, %g4
   14084:	12 80 00 1a 	bne  140ec <__GI_strcmp+0x1dc>
   14088:	80 a0 a0 03 	cmp  %g2, 3
   1408c:	02 80 00 2b 	be  14138 <__GI_strcmp+0x228>
   14090:	89 37 20 10 	srl  %i4, 0x10, %g4
   14094:	ad 31 60 10 	srl  %g5, 0x10, %l6
   14098:	80 89 20 ff 	btst  0xff, %g4
   1409c:	02 80 00 14 	be  140ec <__GI_strcmp+0x1dc>
   140a0:	88 a1 00 16 	subcc  %g4, %l6, %g4
   140a4:	12 80 00 12 	bne  140ec <__GI_strcmp+0x1dc>
   140a8:	80 a0 a0 02 	cmp  %g2, 2
   140ac:	02 80 00 12 	be  140f4 <__GI_strcmp+0x1e4>
   140b0:	89 37 20 08 	srl  %i4, 8, %g4
   140b4:	ad 31 60 08 	srl  %g5, 8, %l6
   140b8:	80 89 20 ff 	btst  0xff, %g4
   140bc:	02 80 00 0c 	be  140ec <__GI_strcmp+0x1dc>
   140c0:	88 a1 00 16 	subcc  %g4, %l6, %g4
   140c4:	12 80 00 0a 	bne  140ec <__GI_strcmp+0x1dc>
   140c8:	b0 06 20 04 	add  %i0, 4, %i0
   140cc:	e4 06 40 00 	ld  [ %i1 ], %l2
   140d0:	b2 06 60 04 	add  %i1, 4, %i1
   140d4:	8b 34 a0 18 	srl  %l2, 0x18, %g5
   140d8:	88 8f 20 ff 	andcc  %i4, 0xff, %g4
   140dc:	02 80 00 04 	be  140ec <__GI_strcmp+0x1dc>
   140e0:	88 a1 00 05 	subcc  %g4, %g5, %g4
   140e4:	22 bf ff cb 	be,a   14010 <__GI_strcmp+0x100>
   140e8:	f8 06 00 00 	ld  [ %i0 ], %i4
   140ec:	81 c7 e0 08 	ret 
   140f0:	91 e9 00 00 	restore  %g4, %g0, %o0
   140f4:	e4 06 40 00 	ld  [ %i1 ], %l2
   140f8:	b2 06 60 04 	add  %i1, 4, %i1
   140fc:	b0 06 20 04 	add  %i0, 4, %i0
   14100:	ad 34 a0 18 	srl  %l2, 0x18, %l6
   14104:	88 89 20 ff 	andcc  %g4, 0xff, %g4
   14108:	02 bf ff f9 	be  140ec <__GI_strcmp+0x1dc>
   1410c:	88 a1 00 16 	subcc  %g4, %l6, %g4
   14110:	12 bf ff f7 	bne  140ec <__GI_strcmp+0x1dc>
   14114:	ad 34 a0 10 	srl  %l2, 0x10, %l6
   14118:	88 8f 20 ff 	andcc  %i4, 0xff, %g4
   1411c:	ac 0d a0 ff 	and  %l6, 0xff, %l6
   14120:	02 bf ff f3 	be  140ec <__GI_strcmp+0x1dc>
   14124:	88 a1 00 16 	subcc  %g4, %l6, %g4
   14128:	22 bf ff ba 	be,a   14010 <__GI_strcmp+0x100>
   1412c:	f8 06 00 00 	ld  [ %i0 ], %i4
   14130:	81 c7 e0 08 	ret 
   14134:	91 e9 00 00 	restore  %g4, %g0, %o0
   14138:	e4 06 40 00 	ld  [ %i1 ], %l2
   1413c:	b2 06 60 04 	add  %i1, 4, %i1
   14140:	b0 06 20 04 	add  %i0, 4, %i0
   14144:	ad 34 a0 18 	srl  %l2, 0x18, %l6
   14148:	88 89 20 ff 	andcc  %g4, 0xff, %g4
   1414c:	02 bf ff e8 	be  140ec <__GI_strcmp+0x1dc>
   14150:	88 a1 00 16 	subcc  %g4, %l6, %g4
   14154:	12 bf ff e6 	bne  140ec <__GI_strcmp+0x1dc>
   14158:	ad 34 a0 10 	srl  %l2, 0x10, %l6
   1415c:	89 37 20 08 	srl  %i4, 8, %g4
   14160:	ac 0d a0 ff 	and  %l6, 0xff, %l6
   14164:	88 89 20 ff 	andcc  %g4, 0xff, %g4
   14168:	02 bf ff e1 	be  140ec <__GI_strcmp+0x1dc>
   1416c:	88 a1 00 16 	subcc  %g4, %l6, %g4
   14170:	12 bf ff df 	bne  140ec <__GI_strcmp+0x1dc>
   14174:	ad 34 a0 08 	srl  %l2, 8, %l6
   14178:	88 8f 20 ff 	andcc  %i4, 0xff, %g4
   1417c:	ac 0d a0 ff 	and  %l6, 0xff, %l6
   14180:	02 bf ff db 	be  140ec <__GI_strcmp+0x1dc>
   14184:	88 a1 00 16 	subcc  %g4, %l6, %g4
   14188:	22 bf ff a2 	be,a   14010 <__GI_strcmp+0x100>
   1418c:	f8 06 00 00 	ld  [ %i0 ], %i4
   14190:	81 c7 e0 08 	ret 
   14194:	91 e9 00 00 	restore  %g4, %g0, %o0
   14198:	da 0a 00 00 	ldub  [ %o0 ], %o5
   1419c:	80 a3 60 00 	cmp  %o5, 0
   141a0:	02 80 00 12 	be  141e8 <__GI_strcmp+0x2d8>
   141a4:	90 02 20 01 	inc  %o0
   141a8:	80 8a 20 03 	btst  3, %o0
   141ac:	02 80 00 1a 	be  14214 <__GI_strlen+0x14>
   141b0:	96 13 20 80 	or  %o4, 0x80, %o3
   141b4:	da 0a 00 00 	ldub  [ %o0 ], %o5
   141b8:	80 a3 60 00 	cmp  %o5, 0
   141bc:	02 80 00 0d 	be  141f0 <__GI_strcmp+0x2e0>
   141c0:	90 02 20 01 	inc  %o0
   141c4:	80 8a 20 03 	btst  3, %o0
   141c8:	02 80 00 14 	be  14218 <__GI_strlen+0x18>
   141cc:	19 00 40 40 	sethi  %hi(0x1010000), %o4
   141d0:	da 0a 00 00 	ldub  [ %o0 ], %o5
   141d4:	80 a3 60 00 	cmp  %o5, 0
   141d8:	02 80 00 08 	be  141f8 <__GI_strcmp+0x2e8>
   141dc:	90 02 20 01 	inc  %o0
   141e0:	10 80 00 0f 	b  1421c <__GI_strlen+0x1c>
   141e4:	94 13 21 01 	or  %o4, 0x101, %o2
   141e8:	81 c3 e0 08 	retl 
   141ec:	90 10 20 00 	clr  %o0
   141f0:	81 c3 e0 08 	retl 
   141f4:	90 10 20 01 	mov  1, %o0
   141f8:	81 c3 e0 08 	retl 
   141fc:	90 10 20 02 	mov  2, %o0

00014200 <__GI_strlen>:
   14200:	92 10 00 08 	mov  %o0, %o1
   14204:	80 8a 20 03 	btst  3, %o0
   14208:	12 bf ff e4 	bne  14198 <__GI_strcmp+0x288>
   1420c:	19 20 20 20 	sethi  %hi(0x80808000), %o4
   14210:	96 13 20 80 	or  %o4, 0x80, %o3	! 80808080 <_end+0x807c48e0>
   14214:	19 00 40 40 	sethi  %hi(0x1010000), %o4
   14218:	94 13 21 01 	or  %o4, 0x101, %o2	! 1010101 <_end+0xfcc961>
   1421c:	da 02 00 00 	ld  [ %o0 ], %o5
   14220:	98 23 40 0a 	sub  %o5, %o2, %o4
   14224:	80 8b 00 0b 	btst  %o4, %o3
   14228:	02 bf ff fd 	be  1421c <__GI_strlen+0x1c>
   1422c:	90 02 20 04 	add  %o0, 4, %o0
   14230:	8b 33 60 18 	srl  %o5, 0x18, %g5
   14234:	80 89 60 ff 	btst  0xff, %g5
   14238:	02 80 00 0e 	be  14270 <__GI_strlen+0x70>
   1423c:	98 02 3f fc 	add  %o0, -4, %o4
   14240:	8b 33 60 10 	srl  %o5, 0x10, %g5
   14244:	80 89 60 ff 	btst  0xff, %g5
   14248:	02 80 00 0a 	be  14270 <__GI_strlen+0x70>
   1424c:	98 03 20 01 	inc  %o4
   14250:	8b 33 60 08 	srl  %o5, 8, %g5
   14254:	80 89 60 ff 	btst  0xff, %g5
   14258:	02 80 00 06 	be  14270 <__GI_strlen+0x70>
   1425c:	98 03 20 01 	inc  %o4
   14260:	80 8b 60 ff 	btst  0xff, %o5
   14264:	32 bf ff ef 	bne,a   14220 <__GI_strlen+0x20>
   14268:	da 02 00 00 	ld  [ %o0 ], %o5
   1426c:	98 03 20 01 	inc  %o4
   14270:	81 c3 e0 08 	retl 
   14274:	90 23 00 09 	sub  %o4, %o1, %o0

00014278 <__GI_strnlen>:
   14278:	9d e3 bf a0 	save  %sp, -96, %sp
   1427c:	80 a6 60 00 	cmp  %i1, 0
   14280:	02 80 00 28 	be  14320 <__GI_strnlen+0xa8>
   14284:	01 00 00 00 	nop 
   14288:	b2 06 00 19 	add  %i0, %i1, %i1
   1428c:	80 a6 00 19 	cmp  %i0, %i1
   14290:	38 80 00 02 	bgu,a   14298 <__GI_strnlen+0x20>
   14294:	b2 10 3f ff 	mov  -1, %i1
   14298:	82 10 00 18 	mov  %i0, %g1
   1429c:	80 88 60 03 	btst  3, %g1
   142a0:	32 80 00 19 	bne,a   14304 <__GI_strnlen+0x8c>
   142a4:	c4 08 40 00 	ldub  [ %g1 ], %g2
   142a8:	09 3f bf bf 	sethi  %hi(0xfefefc00), %g4
   142ac:	3b 20 20 20 	sethi  %hi(0x80808000), %i5
   142b0:	84 10 00 01 	mov  %g1, %g2
   142b4:	88 11 22 ff 	or  %g4, 0x2ff, %g4
   142b8:	ba 17 60 80 	or  %i5, 0x80, %i5
   142bc:	80 a0 80 19 	cmp  %g2, %i1
   142c0:	1a 80 00 14 	bcc  14310 <__GI_strnlen+0x98>
   142c4:	86 00 a0 04 	add  %g2, 4, %g3
   142c8:	c2 00 ff fc 	ld  [ %g3 + -4 ], %g1
   142cc:	82 00 40 04 	add  %g1, %g4, %g1
   142d0:	80 88 40 1d 	btst  %g1, %i5
   142d4:	02 80 00 1f 	be  14350 <__GI_strnlen+0xd8>
   142d8:	82 10 00 19 	mov  %i1, %g1
   142dc:	c2 08 ff fc 	ldub  [ %g3 + -4 ], %g1
   142e0:	80 a0 60 00 	cmp  %g1, 0
   142e4:	02 80 00 0b 	be  14310 <__GI_strnlen+0x98>
   142e8:	82 10 00 02 	mov  %g2, %g1
   142ec:	c2 08 ff fd 	ldub  [ %g3 + -3 ], %g1
   142f0:	80 a0 60 00 	cmp  %g1, 0
   142f4:	32 80 00 0d 	bne,a   14328 <__GI_strnlen+0xb0>
   142f8:	c2 08 ff fe 	ldub  [ %g3 + -2 ], %g1
   142fc:	10 80 00 05 	b  14310 <__GI_strnlen+0x98>
   14300:	82 00 a0 01 	add  %g2, 1, %g1
   14304:	80 a0 a0 00 	cmp  %g2, 0
   14308:	32 bf ff e5 	bne,a   1429c <__GI_strnlen+0x24>
   1430c:	82 00 60 01 	inc  %g1
   14310:	80 a0 40 19 	cmp  %g1, %i1
   14314:	2a 80 00 02 	bcs,a   1431c <__GI_strnlen+0xa4>
   14318:	b2 10 00 01 	mov  %g1, %i1
   1431c:	b2 26 40 18 	sub  %i1, %i0, %i1
   14320:	81 c7 e0 08 	ret 
   14324:	91 e8 00 19 	restore  %g0, %i1, %o0
   14328:	80 a0 60 00 	cmp  %g1, 0
   1432c:	32 80 00 04 	bne,a   1433c <__GI_strnlen+0xc4>
   14330:	c2 08 ff ff 	ldub  [ %g3 + -1 ], %g1
   14334:	10 bf ff f7 	b  14310 <__GI_strnlen+0x98>
   14338:	82 00 a0 02 	add  %g2, 2, %g1
   1433c:	80 a0 60 00 	cmp  %g1, 0
   14340:	32 80 00 04 	bne,a   14350 <__GI_strnlen+0xd8>
   14344:	82 10 00 19 	mov  %i1, %g1
   14348:	10 bf ff f2 	b  14310 <__GI_strnlen+0x98>
   1434c:	82 00 a0 03 	add  %g2, 3, %g1
   14350:	10 bf ff db 	b  142bc <__GI_strnlen+0x44>
   14354:	84 10 00 03 	mov  %g3, %g2

00014358 <__GI___glibc_strerror_r>:
   14358:	9d e3 bf a0 	save  %sp, -96, %sp
   1435c:	94 10 00 1a 	mov  %i2, %o2
   14360:	92 10 00 19 	mov  %i1, %o1
   14364:	90 10 00 18 	mov  %i0, %o0
   14368:	40 00 00 04 	call  14378 <__GI___xpg_strerror_r>
   1436c:	b0 10 00 19 	mov  %i1, %i0
   14370:	81 c7 e0 08 	ret 
   14374:	81 e8 00 00 	restore 

00014378 <__GI___xpg_strerror_r>:
   14378:	9d e3 bf 68 	save  %sp, -152, %sp
   1437c:	2f 00 00 ae 	sethi  %hi(0x2b800), %l7
   14380:	7f ff f1 29 	call  10824 <__sparc_get_pc_thunk.l7>
   14384:	ae 05 e3 4c 	add  %l7, 0x34c, %l7	! 2bb4c <__FRAME_END__+0x3454>
   14388:	ba 10 20 00 	clr  %i5
   1438c:	03 00 00 81 	sethi  %hi(0x20400), %g1
   14390:	82 18 7f ac 	xor  %g1, -84, %g1
   14394:	82 05 c0 01 	add  %l7, %g1, %g1
   14398:	c2 08 40 1d 	ldub  [ %g1 + %i5 ], %g1
   1439c:	80 a0 40 18 	cmp  %g1, %i0
   143a0:	02 80 00 31 	be  14464 <__GI___xpg_strerror_r+0xec>
   143a4:	39 00 00 80 	sethi  %hi(0x20000), %i4
   143a8:	ba 07 60 01 	inc  %i5
   143ac:	80 a7 60 7e 	cmp  %i5, 0x7e
   143b0:	12 bf ff f8 	bne  14390 <__GI___xpg_strerror_r+0x18>
   143b4:	03 00 00 81 	sethi  %hi(0x20400), %g1
   143b8:	98 10 20 00 	clr  %o4
   143bc:	96 10 3f f6 	mov  -10, %o3
   143c0:	93 3e 20 1f 	sra  %i0, 0x1f, %o1
   143c4:	94 10 00 18 	mov  %i0, %o2
   143c8:	40 00 19 ce 	call  1ab00 <_uintmaxtostr>
   143cc:	90 07 bf f9 	add  %fp, -7, %o0
   143d0:	94 10 20 0e 	mov  0xe, %o2
   143d4:	b8 02 3f f2 	add  %o0, -14, %i4
   143d8:	13 00 00 82 	sethi  %hi(0x20800), %o1
   143dc:	90 10 00 1c 	mov  %i4, %o0
   143e0:	92 1a 7f 8c 	xor  %o1, -116, %o1
   143e4:	ba 10 20 16 	mov  0x16, %i5
   143e8:	7f ff fa 13 	call  12c34 <__GI_memcpy>
   143ec:	92 05 c0 09 	add  %l7, %o1, %o1
   143f0:	10 80 00 0d 	b  14424 <__GI___xpg_strerror_r+0xac>
   143f4:	80 a6 60 00 	cmp  %i1, 0
   143f8:	80 a0 60 00 	cmp  %g1, 0
   143fc:	22 80 00 02 	be,a   14404 <__GI___xpg_strerror_r+0x8c>
   14400:	ba 07 7f ff 	add  %i5, -1, %i5
   14404:	b8 07 20 01 	inc  %i4
   14408:	80 a7 60 00 	cmp  %i5, 0
   1440c:	12 bf ff fb 	bne  143f8 <__GI___xpg_strerror_r+0x80>
   14410:	c2 0f 00 00 	ldub  [ %i4 ], %g1
   14414:	80 a0 60 00 	cmp  %g1, 0
   14418:	02 bf ff e9 	be  143bc <__GI___xpg_strerror_r+0x44>
   1441c:	98 10 20 00 	clr  %o4
   14420:	80 a6 60 00 	cmp  %i1, 0
   14424:	22 80 00 02 	be,a   1442c <__GI___xpg_strerror_r+0xb4>
   14428:	b4 10 20 00 	clr  %i2
   1442c:	7f ff ff 75 	call  14200 <__GI_strlen>
   14430:	90 10 00 1c 	mov  %i4, %o0
   14434:	94 02 20 01 	add  %o0, 1, %o2
   14438:	80 a2 80 1a 	cmp  %o2, %i2
   1443c:	28 80 00 0d 	bleu,a   14470 <__GI___xpg_strerror_r+0xf8>
   14440:	b4 92 a0 00 	orcc  %o2, 0, %i2
   14444:	80 a6 a0 00 	cmp  %i2, 0
   14448:	12 80 00 0c 	bne  14478 <__GI___xpg_strerror_r+0x100>
   1444c:	ba 10 20 22 	mov  0x22, %i5
   14450:	03 00 00 00 	sethi  %hi(0), %g1
   14454:	82 18 7f f8 	xor  %g1, -8, %g1
   14458:	ae 10 00 01 	mov  %g1, %l7
   1445c:	10 80 00 10 	b  1449c <__GI___xpg_strerror_r+0x124>
   14460:	fa 21 c0 17 	st  %i5, [ %g7 + %l7 ]
   14464:	b8 1f 3c fc 	xor  %i4, -772, %i4
   14468:	10 bf ff e8 	b  14408 <__GI___xpg_strerror_r+0x90>
   1446c:	b8 05 c0 1c 	add  %l7, %i4, %i4
   14470:	02 80 00 09 	be  14494 <__GI___xpg_strerror_r+0x11c>
   14474:	80 a7 60 00 	cmp  %i5, 0
   14478:	90 10 00 19 	mov  %i1, %o0
   1447c:	94 10 00 1a 	mov  %i2, %o2
   14480:	92 10 00 1c 	mov  %i4, %o1
   14484:	7f ff f9 ec 	call  12c34 <__GI_memcpy>
   14488:	b2 06 40 1a 	add  %i1, %i2, %i1
   1448c:	c0 2e 7f ff 	clrb  [ %i1 + -1 ]
   14490:	80 a7 60 00 	cmp  %i5, 0
   14494:	12 bf ff f0 	bne  14454 <__GI___xpg_strerror_r+0xdc>
   14498:	03 00 00 00 	sethi  %hi(0), %g1
   1449c:	81 c7 e0 08 	ret 
   144a0:	91 e8 00 1d 	restore  %g0, %i5, %o0

000144a4 <__malloc_trim.constprop.0>:
   144a4:	9d e3 bf a0 	save  %sp, -96, %sp
   144a8:	03 00 00 0a 	sethi  %hi(0x2800), %g1
   144ac:	82 18 60 00 	xor  %g1, 0, %g1
   144b0:	2f 00 00 ae 	sethi  %hi(0x2b800), %l7
   144b4:	7f ff f0 dc 	call  10824 <__sparc_get_pc_thunk.l7>
   144b8:	ae 05 e2 18 	add  %l7, 0x218, %l7	! 2ba18 <__FRAME_END__+0x3320>
   144bc:	ae 05 c0 01 	add  %l7, %g1, %l7
   144c0:	c2 05 e0 2c 	ld  [ %l7 + 0x2c ], %g1
   144c4:	c4 05 e3 5c 	ld  [ %l7 + 0x35c ], %g2
   144c8:	fa 00 60 04 	ld  [ %g1 + 4 ], %i5
   144cc:	82 00 bf ef 	add  %g2, -17, %g1
   144d0:	ba 0f 7f fc 	and  %i5, -4, %i5
   144d4:	82 00 40 1d 	add  %g1, %i5, %g1
   144d8:	b0 20 40 18 	sub  %g1, %i0, %i0
   144dc:	81 80 20 00 	wr  %g0, %y
   144e0:	01 00 00 00 	nop 
   144e4:	01 00 00 00 	nop 
   144e8:	01 00 00 00 	nop 
   144ec:	b0 76 00 02 	udiv  %i0, %g2, %i0
   144f0:	b0 06 3f ff 	add  %i0, -1, %i0
   144f4:	b0 de 00 02 	smulcc  %i0, %g2, %i0
   144f8:	14 80 00 04 	bg  14508 <__malloc_trim.constprop.0+0x64>
   144fc:	01 00 00 00 	nop 
   14500:	81 c7 e0 08 	ret 
   14504:	91 e8 20 00 	restore  %g0, 0, %o0
   14508:	40 00 16 54 	call  19e58 <__GI_sbrk>
   1450c:	90 10 20 00 	clr  %o0
   14510:	c2 05 e0 2c 	ld  [ %l7 + 0x2c ], %g1
   14514:	82 00 40 1d 	add  %g1, %i5, %g1
   14518:	80 a2 00 01 	cmp  %o0, %g1
   1451c:	12 bf ff f9 	bne  14500 <__malloc_trim.constprop.0+0x5c>
   14520:	b8 10 00 08 	mov  %o0, %i4
   14524:	40 00 16 4d 	call  19e58 <__GI_sbrk>
   14528:	90 20 00 18 	neg  %i0, %o0
   1452c:	40 00 16 4b 	call  19e58 <__GI_sbrk>
   14530:	90 10 20 00 	clr  %o0
   14534:	80 a2 3f ff 	cmp  %o0, -1
   14538:	02 bf ff f2 	be  14500 <__malloc_trim.constprop.0+0x5c>
   1453c:	b8 a7 00 08 	subcc  %i4, %o0, %i4
   14540:	02 bf ff f0 	be  14500 <__malloc_trim.constprop.0+0x5c>
   14544:	ba 27 40 1c 	sub  %i5, %i4, %i5
   14548:	c2 05 e3 68 	ld  [ %l7 + 0x368 ], %g1
   1454c:	82 20 40 1c 	sub  %g1, %i4, %g1
   14550:	c2 25 e3 68 	st  %g1, [ %l7 + 0x368 ]
   14554:	c2 05 e0 2c 	ld  [ %l7 + 0x2c ], %g1
   14558:	ba 17 60 01 	or  %i5, 1, %i5
   1455c:	fa 20 60 04 	st  %i5, [ %g1 + 4 ]
   14560:	81 c7 e0 08 	ret 
   14564:	91 e8 20 01 	restore  %g0, 1, %o0

00014568 <__malloc_consolidate>:
   14568:	9d e3 bf a0 	save  %sp, -96, %sp
   1456c:	c2 06 00 00 	ld  [ %i0 ], %g1
   14570:	80 a0 60 00 	cmp  %g1, 0
   14574:	02 80 00 56 	be  146cc <__malloc_consolidate+0x164>
   14578:	b4 06 20 34 	add  %i0, 0x34, %i2
   1457c:	82 08 7f fd 	and  %g1, -3, %g1
   14580:	b8 10 00 18 	mov  %i0, %i4
   14584:	87 30 60 03 	srl  %g1, 3, %g3
   14588:	c2 26 00 00 	st  %g1, [ %i0 ]
   1458c:	86 00 ff ff 	add  %g3, -1, %g3
   14590:	87 28 e0 02 	sll  %g3, 2, %g3
   14594:	86 06 00 03 	add  %i0, %g3, %g3
   14598:	c2 07 20 04 	ld  [ %i4 + 4 ], %g1
   1459c:	80 a0 60 00 	cmp  %g1, 0
   145a0:	32 80 00 08 	bne,a   145c0 <__malloc_consolidate+0x58>
   145a4:	c0 27 20 04 	clr  [ %i4 + 4 ]
   145a8:	b8 07 20 04 	add  %i4, 4, %i4
   145ac:	80 a0 c0 1c 	cmp  %g3, %i4
   145b0:	32 bf ff fb 	bne,a   1459c <__malloc_consolidate+0x34>
   145b4:	c2 07 20 04 	ld  [ %i4 + 4 ], %g1
   145b8:	81 c7 e0 08 	ret 
   145bc:	81 e8 00 00 	restore 
   145c0:	80 88 60 07 	btst  7, %g1
   145c4:	22 80 00 04 	be,a   145d4 <__malloc_consolidate+0x6c>
   145c8:	f2 00 60 04 	ld  [ %g1 + 4 ], %i1
   145cc:	40 00 03 3e 	call  152c4 <__GI_abort>
   145d0:	01 00 00 00 	nop 
   145d4:	b6 00 60 08 	add  %g1, 8, %i3
   145d8:	da 00 60 08 	ld  [ %g1 + 8 ], %o5
   145dc:	b7 36 e0 0c 	srl  %i3, 0xc, %i3
   145e0:	84 0e 7f fe 	and  %i1, -2, %g2
   145e4:	98 1e c0 0d 	xor  %i3, %o5, %o4
   145e8:	88 00 40 02 	add  %g1, %g2, %g4
   145ec:	80 8e 60 01 	btst  1, %i1
   145f0:	fa 01 20 04 	ld  [ %g4 + 4 ], %i5
   145f4:	12 80 00 10 	bne  14634 <__malloc_consolidate+0xcc>
   145f8:	ba 0f 7f fc 	and  %i5, -4, %i5
   145fc:	f2 00 40 00 	ld  [ %g1 ], %i1
   14600:	82 20 40 19 	sub  %g1, %i1, %g1
   14604:	84 00 80 19 	add  %g2, %i1, %g2
   14608:	de 00 60 08 	ld  [ %g1 + 8 ], %o7
   1460c:	d6 03 e0 0c 	ld  [ %o7 + 0xc ], %o3
   14610:	80 a2 c0 01 	cmp  %o3, %g1
   14614:	12 bf ff ee 	bne  145cc <__malloc_consolidate+0x64>
   14618:	f2 00 60 0c 	ld  [ %g1 + 0xc ], %i1
   1461c:	d6 06 60 08 	ld  [ %i1 + 8 ], %o3
   14620:	80 a2 c0 01 	cmp  %o3, %g1
   14624:	12 bf ff ea 	bne  145cc <__malloc_consolidate+0x64>
   14628:	01 00 00 00 	nop 
   1462c:	f2 23 e0 0c 	st  %i1, [ %o7 + 0xc ]
   14630:	de 26 60 08 	st  %o7, [ %i1 + 8 ]
   14634:	f2 06 20 2c 	ld  [ %i0 + 0x2c ], %i1
   14638:	80 a6 40 04 	cmp  %i1, %g4
   1463c:	02 80 00 1f 	be  146b8 <__malloc_consolidate+0x150>
   14640:	b2 01 00 1d 	add  %g4, %i5, %i1
   14644:	f2 06 60 04 	ld  [ %i1 + 4 ], %i1
   14648:	80 8e 60 01 	btst  1, %i1
   1464c:	12 80 00 0e 	bne  14684 <__malloc_consolidate+0x11c>
   14650:	fa 21 20 04 	st  %i5, [ %g4 + 4 ]
   14654:	84 00 80 1d 	add  %g2, %i5, %g2
   14658:	f2 01 20 08 	ld  [ %g4 + 8 ], %i1
   1465c:	de 06 60 0c 	ld  [ %i1 + 0xc ], %o7
   14660:	80 a3 c0 04 	cmp  %o7, %g4
   14664:	12 bf ff da 	bne  145cc <__malloc_consolidate+0x64>
   14668:	fa 01 20 0c 	ld  [ %g4 + 0xc ], %i5
   1466c:	de 07 60 08 	ld  [ %i5 + 8 ], %o7
   14670:	80 a3 c0 04 	cmp  %o7, %g4
   14674:	12 bf ff d6 	bne  145cc <__malloc_consolidate+0x64>
   14678:	01 00 00 00 	nop 
   1467c:	fa 26 60 0c 	st  %i5, [ %i1 + 0xc ]
   14680:	f2 27 60 08 	st  %i1, [ %i5 + 8 ]
   14684:	c8 06 20 3c 	ld  [ %i0 + 0x3c ], %g4
   14688:	c2 26 20 3c 	st  %g1, [ %i0 + 0x3c ]
   1468c:	c2 21 20 0c 	st  %g1, [ %g4 + 0xc ]
   14690:	ba 10 a0 01 	or  %g2, 1, %i5
   14694:	f4 20 60 0c 	st  %i2, [ %g1 + 0xc ]
   14698:	fa 20 60 04 	st  %i5, [ %g1 + 4 ]
   1469c:	c8 20 60 08 	st  %g4, [ %g1 + 8 ]
   146a0:	c4 20 40 02 	st  %g2, [ %g1 + %g2 ]
   146a4:	80 a6 c0 0d 	cmp  %i3, %o5
   146a8:	22 bf ff c1 	be,a   145ac <__malloc_consolidate+0x44>
   146ac:	b8 07 20 04 	add  %i4, 4, %i4
   146b0:	10 bf ff c4 	b  145c0 <__malloc_consolidate+0x58>
   146b4:	82 10 00 0c 	mov  %o4, %g1
   146b8:	84 00 80 1d 	add  %g2, %i5, %g2
   146bc:	84 10 a0 01 	or  %g2, 1, %g2
   146c0:	c4 20 60 04 	st  %g2, [ %g1 + 4 ]
   146c4:	10 bf ff f8 	b  146a4 <__malloc_consolidate+0x13c>
   146c8:	c2 26 20 2c 	st  %g1, [ %i0 + 0x2c ]
   146cc:	82 10 00 1a 	mov  %i2, %g1
   146d0:	84 06 23 2c 	add  %i0, 0x32c, %g2
   146d4:	c2 20 60 0c 	st  %g1, [ %g1 + 0xc ]
   146d8:	c2 20 60 08 	st  %g1, [ %g1 + 8 ]
   146dc:	82 00 60 08 	add  %g1, 8, %g1
   146e0:	80 a0 40 02 	cmp  %g1, %g2
   146e4:	32 bf ff fd 	bne,a   146d8 <__malloc_consolidate+0x170>
   146e8:	c2 20 60 0c 	st  %g1, [ %g1 + 0xc ]
   146ec:	03 00 00 40 	sethi  %hi(0x10000), %g1
   146f0:	c2 26 23 54 	st  %g1, [ %i0 + 0x354 ]
   146f4:	03 00 01 00 	sethi  %hi(0x40000), %g1
   146f8:	c2 26 23 4c 	st  %g1, [ %i0 + 0x34c ]
   146fc:	c2 26 23 44 	st  %g1, [ %i0 + 0x344 ]
   14700:	c2 06 23 60 	ld  [ %i0 + 0x360 ], %g1
   14704:	82 10 60 01 	or  %g1, 1, %g1
   14708:	c2 26 23 60 	st  %g1, [ %i0 + 0x360 ]
   1470c:	82 10 20 48 	mov  0x48, %g1
   14710:	c0 26 23 48 	clr  [ %i0 + 0x348 ]
   14714:	c2 26 00 00 	st  %g1, [ %i0 ]
   14718:	40 00 15 be 	call  19e10 <__GI_getpagesize>
   1471c:	f4 26 20 2c 	st  %i2, [ %i0 + 0x2c ]
   14720:	d0 26 23 5c 	st  %o0, [ %i0 + 0x35c ]
   14724:	81 c7 e0 08 	ret 
   14728:	81 e8 00 00 	restore 

0001472c <malloc_trim>:
   1472c:	9d e3 bf 90 	save  %sp, -112, %sp
   14730:	15 00 00 00 	sethi  %hi(0), %o2
   14734:	94 1a a1 58 	xor  %o2, 0x158, %o2
   14738:	2f 00 00 ad 	sethi  %hi(0x2b400), %l7
   1473c:	7f ff f0 3a 	call  10824 <__sparc_get_pc_thunk.l7>
   14740:	ae 05 e3 90 	add  %l7, 0x390, %l7	! 2b790 <__FRAME_END__+0x3098>
   14744:	b8 07 bf f0 	add  %fp, -16, %i4
   14748:	ba 05 c0 0a 	add  %l7, %o2, %i5
   1474c:	90 10 00 1c 	mov  %i4, %o0
   14750:	94 10 00 1d 	mov  %i5, %o2
   14754:	13 00 00 a8 	sethi  %hi(0x2a000), %o1
   14758:	92 1a 7c bc 	xor  %o1, -836, %o1
   1475c:	40 00 05 11 	call  15ba0 <_pthread_cleanup_push_defer>
   14760:	92 05 c0 09 	add  %l7, %o1, %o1
   14764:	40 00 05 09 	call  15b88 <__pthread_mutex_lock>
   14768:	90 10 00 1d 	mov  %i5, %o0
   1476c:	11 00 00 0a 	sethi  %hi(0x2800), %o0
   14770:	90 1a 20 00 	xor  %o0, 0, %o0
   14774:	7f ff ff 7d 	call  14568 <__malloc_consolidate>
   14778:	90 05 c0 08 	add  %l7, %o0, %o0
   1477c:	7f ff ff 4a 	call  144a4 <__malloc_trim.constprop.0>
   14780:	90 10 00 18 	mov  %i0, %o0
   14784:	92 10 20 01 	mov  1, %o1
   14788:	b0 10 00 08 	mov  %o0, %i0
   1478c:	40 00 05 0a 	call  15bb4 <_pthread_cleanup_pop_restore>
   14790:	90 10 00 1c 	mov  %i4, %o0
   14794:	81 c7 e0 08 	ret 
   14798:	81 e8 00 00 	restore 

0001479c <free>:
   1479c:	9d e3 bf 90 	save  %sp, -112, %sp
   147a0:	2f 00 00 ad 	sethi  %hi(0x2b400), %l7
   147a4:	7f ff f0 20 	call  10824 <__sparc_get_pc_thunk.l7>
   147a8:	ae 05 e3 28 	add  %l7, 0x328, %l7	! 2b728 <__FRAME_END__+0x3030>
   147ac:	80 a6 20 00 	cmp  %i0, 0
   147b0:	02 80 00 24 	be  14840 <free+0xa4>
   147b4:	15 00 00 00 	sethi  %hi(0), %o2
   147b8:	94 1a a1 58 	xor  %o2, 0x158, %o2
   147bc:	b8 07 bf f0 	add  %fp, -16, %i4
   147c0:	b6 05 c0 0a 	add  %l7, %o2, %i3
   147c4:	90 10 00 1c 	mov  %i4, %o0
   147c8:	94 10 00 1b 	mov  %i3, %o2
   147cc:	13 00 00 a8 	sethi  %hi(0x2a000), %o1
   147d0:	92 1a 7c bc 	xor  %o1, -836, %o1
   147d4:	40 00 04 f3 	call  15ba0 <_pthread_cleanup_push_defer>
   147d8:	92 05 c0 09 	add  %l7, %o1, %o1
   147dc:	40 00 04 eb 	call  15b88 <__pthread_mutex_lock>
   147e0:	90 10 00 1b 	mov  %i3, %o0
   147e4:	03 00 00 0a 	sethi  %hi(0x2800), %g1
   147e8:	f6 06 3f fc 	ld  [ %i0 + -4 ], %i3
   147ec:	82 18 60 00 	xor  %g1, 0, %g1
   147f0:	92 0e ff fc 	and  %i3, -4, %o1
   147f4:	ba 05 c0 01 	add  %l7, %g1, %i5
   147f8:	c6 07 40 00 	ld  [ %i5 ], %g3
   147fc:	80 a2 40 03 	cmp  %o1, %g3
   14800:	18 80 00 12 	bgu  14848 <free+0xac>
   14804:	84 06 3f f8 	add  %i0, -8, %g2
   14808:	86 10 e0 03 	or  %g3, 3, %g3
   1480c:	c6 27 40 00 	st  %g3, [ %i5 ]
   14810:	af 32 60 03 	srl  %o1, 3, %l7
   14814:	87 36 20 0c 	srl  %i0, 0xc, %g3
   14818:	ae 05 ff fe 	add  %l7, -2, %l7
   1481c:	af 2d e0 02 	sll  %l7, 2, %l7
   14820:	ae 07 40 17 	add  %i5, %l7, %l7
   14824:	c2 05 e0 04 	ld  [ %l7 + 4 ], %g1
   14828:	82 18 40 03 	xor  %g1, %g3, %g1
   1482c:	c2 26 00 00 	st  %g1, [ %i0 ]
   14830:	c4 25 e0 04 	st  %g2, [ %l7 + 4 ]
   14834:	92 10 20 01 	mov  1, %o1
   14838:	40 00 04 df 	call  15bb4 <_pthread_cleanup_pop_restore>
   1483c:	90 10 00 1c 	mov  %i4, %o0
   14840:	81 c7 e0 08 	ret 
   14844:	81 e8 00 00 	restore 
   14848:	80 8e e0 02 	btst  2, %i3
   1484c:	12 80 00 4e 	bne  14984 <free+0x1e8>
   14850:	82 10 e0 01 	or  %g3, 1, %g1
   14854:	c2 27 40 00 	st  %g1, [ %i5 ]
   14858:	80 8e e0 01 	btst  1, %i3
   1485c:	82 00 80 09 	add  %g2, %o1, %g1
   14860:	c8 00 60 04 	ld  [ %g1 + 4 ], %g4
   14864:	12 80 00 12 	bne  148ac <free+0x110>
   14868:	88 09 3f fc 	and  %g4, -4, %g4
   1486c:	f6 06 3f f8 	ld  [ %i0 + -8 ], %i3
   14870:	84 20 80 1b 	sub  %g2, %i3, %g2
   14874:	92 02 40 1b 	add  %o1, %i3, %o1
   14878:	f4 00 a0 08 	ld  [ %g2 + 8 ], %i2
   1487c:	f2 06 a0 0c 	ld  [ %i2 + 0xc ], %i1
   14880:	80 a0 80 19 	cmp  %g2, %i1
   14884:	02 80 00 04 	be  14894 <free+0xf8>
   14888:	f6 00 a0 0c 	ld  [ %g2 + 0xc ], %i3
   1488c:	40 00 02 8e 	call  152c4 <__GI_abort>
   14890:	01 00 00 00 	nop 
   14894:	f2 06 e0 08 	ld  [ %i3 + 8 ], %i1
   14898:	80 a0 80 19 	cmp  %g2, %i1
   1489c:	12 bf ff fc 	bne  1488c <free+0xf0>
   148a0:	01 00 00 00 	nop 
   148a4:	f6 26 a0 0c 	st  %i3, [ %i2 + 0xc ]
   148a8:	f4 26 e0 08 	st  %i2, [ %i3 + 8 ]
   148ac:	f6 07 60 2c 	ld  [ %i5 + 0x2c ], %i3
   148b0:	80 a0 40 1b 	cmp  %g1, %i3
   148b4:	02 80 00 2f 	be  14970 <free+0x1d4>
   148b8:	b6 00 40 04 	add  %g1, %g4, %i3
   148bc:	f6 06 e0 04 	ld  [ %i3 + 4 ], %i3
   148c0:	80 8e e0 01 	btst  1, %i3
   148c4:	12 80 00 0d 	bne  148f8 <free+0x15c>
   148c8:	c8 20 60 04 	st  %g4, [ %g1 + 4 ]
   148cc:	f4 00 60 08 	ld  [ %g1 + 8 ], %i2
   148d0:	f2 06 a0 0c 	ld  [ %i2 + 0xc ], %i1
   148d4:	80 a0 40 19 	cmp  %g1, %i1
   148d8:	12 bf ff ed 	bne  1488c <free+0xf0>
   148dc:	f6 00 60 0c 	ld  [ %g1 + 0xc ], %i3
   148e0:	f2 06 e0 08 	ld  [ %i3 + 8 ], %i1
   148e4:	80 a0 40 19 	cmp  %g1, %i1
   148e8:	12 bf ff e9 	bne  1488c <free+0xf0>
   148ec:	92 02 40 04 	add  %o1, %g4, %o1
   148f0:	f6 26 a0 0c 	st  %i3, [ %i2 + 0xc ]
   148f4:	f4 26 e0 08 	st  %i2, [ %i3 + 8 ]
   148f8:	c2 07 60 3c 	ld  [ %i5 + 0x3c ], %g1
   148fc:	88 07 60 34 	add  %i5, 0x34, %g4
   14900:	c2 20 a0 08 	st  %g1, [ %g2 + 8 ]
   14904:	c8 20 a0 0c 	st  %g4, [ %g2 + 0xc ]
   14908:	c4 27 60 3c 	st  %g2, [ %i5 + 0x3c ]
   1490c:	c4 20 60 0c 	st  %g2, [ %g1 + 0xc ]
   14910:	82 12 60 01 	or  %o1, 1, %g1
   14914:	c2 20 a0 04 	st  %g1, [ %g2 + 4 ]
   14918:	d2 20 80 09 	st  %o1, [ %g2 + %o1 ]
   1491c:	03 00 00 7f 	sethi  %hi(0x1fc00), %g1
   14920:	82 10 63 ff 	or  %g1, 0x3ff, %g1	! 1ffff <_string_syserrmsgs+0x437>
   14924:	80 a2 40 01 	cmp  %o1, %g1
   14928:	08 bf ff c4 	bleu  14838 <free+0x9c>
   1492c:	92 10 20 01 	mov  1, %o1
   14930:	80 88 e0 02 	btst  2, %g3
   14934:	22 80 00 05 	be,a   14948 <free+0x1ac>
   14938:	c2 07 60 2c 	ld  [ %i5 + 0x2c ], %g1
   1493c:	7f ff ff 0b 	call  14568 <__malloc_consolidate>
   14940:	90 10 00 1d 	mov  %i5, %o0
   14944:	c2 07 60 2c 	ld  [ %i5 + 0x2c ], %g1
   14948:	c4 07 63 44 	ld  [ %i5 + 0x344 ], %g2
   1494c:	c2 00 60 04 	ld  [ %g1 + 4 ], %g1
   14950:	82 08 7f fc 	and  %g1, -4, %g1
   14954:	80 a0 40 02 	cmp  %g1, %g2
   14958:	2a bf ff b8 	bcs,a   14838 <free+0x9c>
   1495c:	92 10 20 01 	mov  1, %o1
   14960:	7f ff fe d1 	call  144a4 <__malloc_trim.constprop.0>
   14964:	d0 07 63 48 	ld  [ %i5 + 0x348 ], %o0
   14968:	10 bf ff b4 	b  14838 <free+0x9c>
   1496c:	92 10 20 01 	mov  1, %o1
   14970:	92 02 40 04 	add  %o1, %g4, %o1
   14974:	82 12 60 01 	or  %o1, 1, %g1
   14978:	c2 20 a0 04 	st  %g1, [ %g2 + 4 ]
   1497c:	10 bf ff e8 	b  1491c <free+0x180>
   14980:	c4 27 60 2c 	st  %g2, [ %i5 + 0x2c ]
   14984:	c2 07 63 50 	ld  [ %i5 + 0x350 ], %g1
   14988:	82 00 7f ff 	add  %g1, -1, %g1
   1498c:	d0 06 3f f8 	ld  [ %i0 + -8 ], %o0
   14990:	c2 27 63 50 	st  %g1, [ %i5 + 0x350 ]
   14994:	92 02 40 08 	add  %o1, %o0, %o1
   14998:	c2 07 63 64 	ld  [ %i5 + 0x364 ], %g1
   1499c:	82 20 40 09 	sub  %g1, %o1, %g1
   149a0:	90 20 80 08 	sub  %g2, %o0, %o0
   149a4:	7f ff ef d0 	call  108e4 <__GI_munmap>
   149a8:	c2 27 63 64 	st  %g1, [ %i5 + 0x364 ]
   149ac:	10 bf ff a3 	b  14838 <free+0x9c>
   149b0:	92 10 20 01 	mov  1, %o1

000149b4 <__malloc_largebin_index>:
   149b4:	9d e3 bf a0 	save  %sp, -96, %sp
   149b8:	07 00 00 3f 	sethi  %hi(0xfc00), %g3
   149bc:	83 36 20 08 	srl  %i0, 8, %g1
   149c0:	86 10 e3 ff 	or  %g3, 0x3ff, %g3
   149c4:	80 a0 40 03 	cmp  %g1, %g3
   149c8:	18 80 00 1b 	bgu  14a34 <__malloc_largebin_index+0x80>
   149cc:	84 10 20 5f 	mov  0x5f, %g2
   149d0:	86 00 7f 00 	add  %g1, -256, %g3
   149d4:	09 3f ff f0 	sethi  %hi(0xffffc000), %g4
   149d8:	87 30 e0 10 	srl  %g3, 0x10, %g3
   149dc:	86 08 e0 08 	and  %g3, 8, %g3
   149e0:	83 28 40 03 	sll  %g1, %g3, %g1
   149e4:	ba 00 70 00 	add  %g1, -4096, %i5
   149e8:	bb 37 60 10 	srl  %i5, 0x10, %i5
   149ec:	ba 0f 60 04 	and  %i5, 4, %i5
   149f0:	83 28 40 1d 	sll  %g1, %i5, %g1
   149f4:	88 00 40 04 	add  %g1, %g4, %g4
   149f8:	89 31 20 10 	srl  %g4, 0x10, %g4
   149fc:	88 09 20 02 	and  %g4, 2, %g4
   14a00:	83 28 40 04 	sll  %g1, %g4, %g1
   14a04:	85 30 60 0f 	srl  %g1, 0xf, %g2
   14a08:	83 30 60 0e 	srl  %g1, 0xe, %g1
   14a0c:	86 10 c0 1d 	or  %g3, %i5, %g3
   14a10:	84 28 40 02 	andn  %g1, %g2, %g2
   14a14:	86 00 c0 04 	add  %g3, %g4, %g3
   14a18:	84 20 80 03 	sub  %g2, %g3, %g2
   14a1c:	82 00 a0 13 	add  %g2, 0x13, %g1
   14a20:	85 28 a0 02 	sll  %g2, 2, %g2
   14a24:	b1 36 00 01 	srl  %i0, %g1, %i0
   14a28:	84 00 a0 54 	add  %g2, 0x54, %g2
   14a2c:	b0 0e 20 03 	and  %i0, 3, %i0
   14a30:	84 06 00 02 	add  %i0, %g2, %g2
   14a34:	81 c7 e0 08 	ret 
   14a38:	91 e8 00 02 	restore  %g0, %g2, %o0

00014a3c <malloc>:
   14a3c:	9d e3 bf 90 	save  %sp, -112, %sp
   14a40:	2f 00 00 ad 	sethi  %hi(0x2b400), %l7
   14a44:	7f ff ef 78 	call  10824 <__sparc_get_pc_thunk.l7>
   14a48:	ae 05 e0 88 	add  %l7, 0x88, %l7	! 2b488 <__FRAME_END__+0x2d90>
   14a4c:	80 a6 3f df 	cmp  %i0, -33
   14a50:	28 80 00 09 	bleu,a   14a74 <malloc+0x38>
   14a54:	b0 06 20 0b 	add  %i0, 0xb, %i0
   14a58:	84 10 20 0c 	mov  0xc, %g2
   14a5c:	03 00 00 00 	sethi  %hi(0), %g1
   14a60:	82 18 7f f8 	xor  %g1, -8, %g1
   14a64:	01 00 00 00 	nop 
   14a68:	c4 21 c0 01 	st  %g2, [ %g7 + %g1 ]
   14a6c:	81 c7 e0 08 	ret 
   14a70:	91 e8 20 00 	restore  %g0, 0, %o0
   14a74:	80 a6 20 0f 	cmp  %i0, 0xf
   14a78:	08 80 00 03 	bleu  14a84 <malloc+0x48>
   14a7c:	b8 10 20 10 	mov  0x10, %i4
   14a80:	b8 0e 3f f8 	and  %i0, -8, %i4
   14a84:	15 00 00 00 	sethi  %hi(0), %o2
   14a88:	94 1a a1 58 	xor  %o2, 0x158, %o2
   14a8c:	b4 07 bf f0 	add  %fp, -16, %i2
   14a90:	ba 05 c0 0a 	add  %l7, %o2, %i5
   14a94:	90 10 00 1a 	mov  %i2, %o0
   14a98:	94 10 00 1d 	mov  %i5, %o2
   14a9c:	13 00 00 a8 	sethi  %hi(0x2a000), %o1
   14aa0:	92 1a 7c bc 	xor  %o1, -836, %o1
   14aa4:	40 00 04 3f 	call  15ba0 <_pthread_cleanup_push_defer>
   14aa8:	92 05 c0 09 	add  %l7, %o1, %o1
   14aac:	40 00 04 37 	call  15b88 <__pthread_mutex_lock>
   14ab0:	90 10 00 1d 	mov  %i5, %o0
   14ab4:	3b 00 00 0a 	sethi  %hi(0x2800), %i5
   14ab8:	ba 1f 60 00 	xor  %i5, 0, %i5
   14abc:	ba 05 c0 1d 	add  %l7, %i5, %i5
   14ac0:	c4 07 40 00 	ld  [ %i5 ], %g2
   14ac4:	b2 88 a0 01 	andcc  %g2, 1, %i1
   14ac8:	12 80 00 14 	bne  14b18 <malloc+0xdc>
   14acc:	80 a0 80 1c 	cmp  %g2, %i4
   14ad0:	80 a0 a0 00 	cmp  %g2, 0
   14ad4:	32 80 00 05 	bne,a   14ae8 <malloc+0xac>
   14ad8:	f0 07 60 2c 	ld  [ %i5 + 0x2c ], %i0
   14adc:	7f ff fe a3 	call  14568 <__malloc_consolidate>
   14ae0:	90 10 00 1d 	mov  %i5, %o0
   14ae4:	f0 07 60 2c 	ld  [ %i5 + 0x2c ], %i0
   14ae8:	a0 07 20 10 	add  %i4, 0x10, %l0
   14aec:	c2 06 20 04 	ld  [ %i0 + 4 ], %g1
   14af0:	82 08 7f fc 	and  %g1, -4, %g1
   14af4:	80 a4 00 01 	cmp  %l0, %g1
   14af8:	38 80 01 04 	bgu,a   14f08 <malloc+0x4cc>
   14afc:	f6 07 63 5c 	ld  [ %i5 + 0x35c ], %i3
   14b00:	84 06 00 1c 	add  %i0, %i4, %g2
   14b04:	c4 27 60 2c 	st  %g2, [ %i5 + 0x2c ]
   14b08:	86 17 20 01 	or  %i4, 1, %g3
   14b0c:	82 20 40 1c 	sub  %g1, %i4, %g1
   14b10:	10 80 00 d1 	b  14e54 <malloc+0x418>
   14b14:	c6 26 20 04 	st  %g3, [ %i0 + 4 ]
   14b18:	0a 80 00 17 	bcs  14b74 <malloc+0x138>
   14b1c:	80 a7 20 ff 	cmp  %i4, 0xff
   14b20:	83 37 20 01 	srl  %i4, 1, %g1
   14b24:	82 00 7f f8 	add  %g1, -8, %g1
   14b28:	82 07 40 01 	add  %i5, %g1, %g1
   14b2c:	c6 00 60 04 	ld  [ %g1 + 4 ], %g3
   14b30:	80 a0 e0 00 	cmp  %g3, 0
   14b34:	02 80 00 0f 	be  14b70 <malloc+0x134>
   14b38:	80 88 e0 07 	btst  7, %g3
   14b3c:	22 80 00 04 	be,a   14b4c <malloc+0x110>
   14b40:	c4 00 e0 08 	ld  [ %g3 + 8 ], %g2
   14b44:	40 00 01 e0 	call  152c4 <__GI_abort>
   14b48:	01 00 00 00 	nop 
   14b4c:	b0 00 e0 08 	add  %g3, 8, %i0
   14b50:	89 36 20 0c 	srl  %i0, 0xc, %g4
   14b54:	84 18 80 04 	xor  %g2, %g4, %g2
   14b58:	c4 20 60 04 	st  %g2, [ %g1 + 4 ]
   14b5c:	92 10 20 01 	mov  1, %o1
   14b60:	40 00 04 15 	call  15bb4 <_pthread_cleanup_pop_restore>
   14b64:	90 10 00 1a 	mov  %i2, %o0
   14b68:	81 c7 e0 08 	ret 
   14b6c:	81 e8 00 00 	restore 
   14b70:	80 a7 20 ff 	cmp  %i4, 0xff
   14b74:	18 80 00 12 	bgu  14bbc <malloc+0x180>
   14b78:	80 88 a0 02 	btst  2, %g2
   14b7c:	82 07 20 34 	add  %i4, 0x34, %g1
   14b80:	82 07 40 01 	add  %i5, %g1, %g1
   14b84:	88 00 7f f8 	add  %g1, -8, %g4
   14b88:	f0 00 60 04 	ld  [ %g1 + 4 ], %i0
   14b8c:	80 a1 00 18 	cmp  %g4, %i0
   14b90:	02 80 00 12 	be  14bd8 <malloc+0x19c>
   14b94:	a3 37 20 03 	srl  %i4, 3, %l1
   14b98:	c6 06 20 0c 	ld  [ %i0 + 0xc ], %g3
   14b9c:	b8 06 00 1c 	add  %i0, %i4, %i4
   14ba0:	c4 07 20 04 	ld  [ %i4 + 4 ], %g2
   14ba4:	84 10 a0 01 	or  %g2, 1, %g2
   14ba8:	c4 27 20 04 	st  %g2, [ %i4 + 4 ]
   14bac:	c6 20 60 04 	st  %g3, [ %g1 + 4 ]
   14bb0:	c8 20 e0 08 	st  %g4, [ %g3 + 8 ]
   14bb4:	10 bf ff ea 	b  14b5c <malloc+0x120>
   14bb8:	b0 06 20 08 	add  %i0, 8, %i0
   14bbc:	02 80 00 04 	be  14bcc <malloc+0x190>
   14bc0:	01 00 00 00 	nop 
   14bc4:	7f ff fe 69 	call  14568 <__malloc_consolidate>
   14bc8:	90 10 00 1d 	mov  %i5, %o0
   14bcc:	7f ff ff 7a 	call  149b4 <__malloc_largebin_index>
   14bd0:	90 10 00 1c 	mov  %i4, %o0
   14bd4:	a2 10 00 08 	mov  %o0, %l1
   14bd8:	e4 07 60 30 	ld  [ %i5 + 0x30 ], %l2
   14bdc:	a0 07 60 34 	add  %i5, 0x34, %l0
   14be0:	10 80 00 3b 	b  14ccc <malloc+0x290>
   14be4:	a6 10 20 01 	mov  1, %l3
   14be8:	c2 06 20 0c 	ld  [ %i0 + 0xc ], %g1
   14bec:	80 a7 20 ff 	cmp  %i4, 0xff
   14bf0:	18 80 00 1a 	bgu  14c58 <malloc+0x21c>
   14bf4:	b6 0e ff fc 	and  %i3, -4, %i3
   14bf8:	80 a0 40 10 	cmp  %g1, %l0
   14bfc:	32 80 00 18 	bne,a   14c5c <malloc+0x220>
   14c00:	c2 27 60 40 	st  %g1, [ %i5 + 0x40 ]
   14c04:	80 a4 80 18 	cmp  %l2, %i0
   14c08:	32 80 00 15 	bne,a   14c5c <malloc+0x220>
   14c0c:	c2 27 60 40 	st  %g1, [ %i5 + 0x40 ]
   14c10:	84 07 20 10 	add  %i4, 0x10, %g2
   14c14:	80 a0 80 1b 	cmp  %g2, %i3
   14c18:	3a 80 00 11 	bcc,a   14c5c <malloc+0x220>
   14c1c:	c2 27 60 40 	st  %g1, [ %i5 + 0x40 ]
   14c20:	82 04 80 1c 	add  %l2, %i4, %g1
   14c24:	c2 27 60 3c 	st  %g1, [ %i5 + 0x3c ]
   14c28:	c2 27 60 40 	st  %g1, [ %i5 + 0x40 ]
   14c2c:	c2 27 60 30 	st  %g1, [ %i5 + 0x30 ]
   14c30:	e0 20 60 08 	st  %l0, [ %g1 + 8 ]
   14c34:	e0 20 60 0c 	st  %l0, [ %g1 + 0xc ]
   14c38:	84 26 c0 1c 	sub  %i3, %i4, %g2
   14c3c:	b8 17 20 01 	or  %i4, 1, %i4
   14c40:	f8 24 a0 04 	st  %i4, [ %l2 + 4 ]
   14c44:	86 10 a0 01 	or  %g2, 1, %g3
   14c48:	c6 20 60 04 	st  %g3, [ %g1 + 4 ]
   14c4c:	c4 24 80 1b 	st  %g2, [ %l2 + %i3 ]
   14c50:	10 bf ff c3 	b  14b5c <malloc+0x120>
   14c54:	b0 04 a0 08 	add  %l2, 8, %i0
   14c58:	c2 27 60 40 	st  %g1, [ %i5 + 0x40 ]
   14c5c:	80 a7 00 1b 	cmp  %i4, %i3
   14c60:	12 80 00 07 	bne  14c7c <malloc+0x240>
   14c64:	e0 20 60 08 	st  %l0, [ %g1 + 8 ]
   14c68:	b8 06 00 1c 	add  %i0, %i4, %i4
   14c6c:	c2 07 20 04 	ld  [ %i4 + 4 ], %g1
   14c70:	82 10 60 01 	or  %g1, 1, %g1
   14c74:	10 bf ff d0 	b  14bb4 <malloc+0x178>
   14c78:	c2 27 20 04 	st  %g1, [ %i4 + 4 ]
   14c7c:	80 a6 e0 ff 	cmp  %i3, 0xff
   14c80:	18 80 00 4c 	bgu  14db0 <malloc+0x374>
   14c84:	87 36 e0 03 	srl  %i3, 3, %g3
   14c88:	b6 0e ff f8 	and  %i3, -8, %i3
   14c8c:	b6 06 e0 34 	add  %i3, 0x34, %i3
   14c90:	82 07 40 1b 	add  %i5, %i3, %g1
   14c94:	c8 07 40 1b 	ld  [ %i5 + %i3 ], %g4
   14c98:	82 00 7f f8 	add  %g1, -8, %g1
   14c9c:	85 38 e0 05 	sra  %g3, 5, %g2
   14ca0:	87 2c c0 03 	sll  %l3, %g3, %g3
   14ca4:	84 00 a0 cc 	add  %g2, 0xcc, %g2
   14ca8:	85 28 a0 02 	sll  %g2, 2, %g2
   14cac:	84 07 40 02 	add  %i5, %g2, %g2
   14cb0:	f6 00 a0 04 	ld  [ %g2 + 4 ], %i3
   14cb4:	86 10 c0 1b 	or  %g3, %i3, %g3
   14cb8:	c6 20 a0 04 	st  %g3, [ %g2 + 4 ]
   14cbc:	c2 26 20 0c 	st  %g1, [ %i0 + 0xc ]
   14cc0:	c8 26 20 08 	st  %g4, [ %i0 + 8 ]
   14cc4:	f0 21 20 0c 	st  %i0, [ %g4 + 0xc ]
   14cc8:	f0 20 60 08 	st  %i0, [ %g1 + 8 ]
   14ccc:	f0 07 60 40 	ld  [ %i5 + 0x40 ], %i0
   14cd0:	80 a6 00 10 	cmp  %i0, %l0
   14cd4:	32 bf ff c5 	bne,a   14be8 <malloc+0x1ac>
   14cd8:	f6 06 20 04 	ld  [ %i0 + 4 ], %i3
   14cdc:	80 a7 20 ff 	cmp  %i4, 0xff
   14ce0:	28 80 00 0b 	bleu,a   14d0c <malloc+0x2d0>
   14ce4:	a2 04 60 01 	inc  %l1
   14ce8:	83 2c 60 03 	sll  %l1, 3, %g1
   14cec:	82 00 60 34 	add  %g1, 0x34, %g1
   14cf0:	82 07 40 01 	add  %i5, %g1, %g1
   14cf4:	86 00 7f f8 	add  %g1, -8, %g3
   14cf8:	f0 00 60 04 	ld  [ %g1 + 4 ], %i0
   14cfc:	80 a6 00 03 	cmp  %i0, %g3
   14d00:	32 80 00 43 	bne,a   14e0c <malloc+0x3d0>
   14d04:	c2 06 20 04 	ld  [ %i0 + 4 ], %g1
   14d08:	a2 04 60 01 	inc  %l1
   14d0c:	90 10 20 01 	mov  1, %o0
   14d10:	83 2c 60 03 	sll  %l1, 3, %g1
   14d14:	87 34 60 05 	srl  %l1, 5, %g3
   14d18:	82 00 60 2c 	add  %g1, 0x2c, %g1
   14d1c:	84 00 e0 cc 	add  %g3, 0xcc, %g2
   14d20:	82 07 40 01 	add  %i5, %g1, %g1
   14d24:	85 28 a0 02 	sll  %g2, 2, %g2
   14d28:	91 2a 00 11 	sll  %o0, %l1, %o0
   14d2c:	84 07 40 02 	add  %i5, %g2, %g2
   14d30:	b6 07 63 34 	add  %i5, 0x334, %i3
   14d34:	c4 00 a0 04 	ld  [ %g2 + 4 ], %g2
   14d38:	88 02 3f ff 	add  %o0, -1, %g4
   14d3c:	80 a0 80 04 	cmp  %g2, %g4
   14d40:	18 80 00 0f 	bgu  14d7c <malloc+0x340>
   14d44:	80 8a 00 02 	btst  %o0, %g2
   14d48:	86 00 e0 01 	inc  %g3
   14d4c:	80 a0 e0 02 	cmp  %g3, 2
   14d50:	18 bf ff 65 	bgu  14ae4 <malloc+0xa8>
   14d54:	83 28 e0 02 	sll  %g3, 2, %g1
   14d58:	c4 06 c0 01 	ld  [ %i3 + %g1 ], %g2
   14d5c:	80 a0 a0 00 	cmp  %g2, 0
   14d60:	22 bf ff fb 	be,a   14d4c <malloc+0x310>
   14d64:	86 00 e0 01 	inc  %g3
   14d68:	83 28 e0 08 	sll  %g3, 8, %g1
   14d6c:	90 10 00 19 	mov  %i1, %o0
   14d70:	82 00 60 2c 	add  %g1, 0x2c, %g1
   14d74:	82 07 40 01 	add  %i5, %g1, %g1
   14d78:	80 8a 00 02 	btst  %o0, %g2
   14d7c:	22 80 00 46 	be,a   14e94 <malloc+0x458>
   14d80:	82 00 60 08 	add  %g1, 8, %g1
   14d84:	f0 00 60 0c 	ld  [ %g1 + 0xc ], %i0
   14d88:	80 a0 40 18 	cmp  %g1, %i0
   14d8c:	12 80 00 44 	bne  14e9c <malloc+0x460>
   14d90:	84 28 80 08 	andn  %g2, %o0, %g2
   14d94:	88 00 e0 cc 	add  %g3, 0xcc, %g4
   14d98:	82 00 60 08 	add  %g1, 8, %g1
   14d9c:	89 29 20 02 	sll  %g4, 2, %g4
   14da0:	90 02 00 08 	add  %o0, %o0, %o0
   14da4:	88 07 40 04 	add  %i5, %g4, %g4
   14da8:	10 bf ff e4 	b  14d38 <malloc+0x2fc>
   14dac:	c4 21 20 04 	st  %g2, [ %g4 + 4 ]
   14db0:	7f ff ff 01 	call  149b4 <__malloc_largebin_index>
   14db4:	90 10 00 1b 	mov  %i3, %o0
   14db8:	83 2a 20 03 	sll  %o0, 3, %g1
   14dbc:	82 00 60 34 	add  %g1, 0x34, %g1
   14dc0:	86 10 00 08 	mov  %o0, %g3
   14dc4:	9e 07 40 01 	add  %i5, %g1, %o7
   14dc8:	c8 07 40 01 	ld  [ %i5 + %g1 ], %g4
   14dcc:	84 03 ff f8 	add  %o7, -8, %g2
   14dd0:	80 a0 80 04 	cmp  %g2, %g4
   14dd4:	02 bf ff b2 	be  14c9c <malloc+0x260>
   14dd8:	82 10 00 04 	mov  %g4, %g1
   14ddc:	c2 03 e0 04 	ld  [ %o7 + 4 ], %g1
   14de0:	de 00 60 04 	ld  [ %g1 + 4 ], %o7
   14de4:	80 a3 c0 1b 	cmp  %o7, %i3
   14de8:	38 bf ff ad 	bgu,a   14c9c <malloc+0x260>
   14dec:	88 10 00 02 	mov  %g2, %g4
   14df0:	b6 16 e0 01 	or  %i3, 1, %i3
   14df4:	c2 01 20 04 	ld  [ %g4 + 4 ], %g1
   14df8:	80 a0 40 1b 	cmp  %g1, %i3
   14dfc:	38 bf ff fe 	bgu,a   14df4 <malloc+0x3b8>
   14e00:	c8 01 20 08 	ld  [ %g4 + 8 ], %g4
   14e04:	10 bf ff a6 	b  14c9c <malloc+0x260>
   14e08:	c2 01 20 0c 	ld  [ %g4 + 0xc ], %g1
   14e0c:	82 08 7f fc 	and  %g1, -4, %g1
   14e10:	80 a7 00 01 	cmp  %i4, %g1
   14e14:	18 80 00 1e 	bgu  14e8c <malloc+0x450>
   14e18:	c4 06 20 0c 	ld  [ %i0 + 0xc ], %g2
   14e1c:	c8 06 20 08 	ld  [ %i0 + 8 ], %g4
   14e20:	f6 01 20 0c 	ld  [ %g4 + 0xc ], %i3
   14e24:	80 a6 c0 18 	cmp  %i3, %i0
   14e28:	12 bf ff 47 	bne  14b44 <malloc+0x108>
   14e2c:	86 20 40 1c 	sub  %g1, %i4, %g3
   14e30:	f6 00 a0 08 	ld  [ %g2 + 8 ], %i3
   14e34:	80 a6 c0 18 	cmp  %i3, %i0
   14e38:	12 bf ff 43 	bne  14b44 <malloc+0x108>
   14e3c:	80 a0 e0 0f 	cmp  %g3, 0xf
   14e40:	c4 21 20 0c 	st  %g2, [ %g4 + 0xc ]
   14e44:	c8 20 a0 08 	st  %g4, [ %g2 + 8 ]
   14e48:	18 80 00 06 	bgu  14e60 <malloc+0x424>
   14e4c:	84 06 00 01 	add  %i0, %g1, %g2
   14e50:	c2 00 a0 04 	ld  [ %g2 + 4 ], %g1
   14e54:	82 10 60 01 	or  %g1, 1, %g1
   14e58:	10 bf ff 57 	b  14bb4 <malloc+0x178>
   14e5c:	c2 20 a0 04 	st  %g1, [ %g2 + 4 ]
   14e60:	84 06 00 1c 	add  %i0, %i4, %g2
   14e64:	c4 27 60 3c 	st  %g2, [ %i5 + 0x3c ]
   14e68:	c4 27 60 40 	st  %g2, [ %i5 + 0x40 ]
   14e6c:	e0 20 a0 08 	st  %l0, [ %g2 + 8 ]
   14e70:	e0 20 a0 0c 	st  %l0, [ %g2 + 0xc ]
   14e74:	b8 17 20 01 	or  %i4, 1, %i4
   14e78:	f8 26 20 04 	st  %i4, [ %i0 + 4 ]
   14e7c:	88 10 e0 01 	or  %g3, 1, %g4
   14e80:	c8 20 a0 04 	st  %g4, [ %g2 + 4 ]
   14e84:	10 bf ff 4c 	b  14bb4 <malloc+0x178>
   14e88:	c6 26 00 01 	st  %g3, [ %i0 + %g1 ]
   14e8c:	10 bf ff 9c 	b  14cfc <malloc+0x2c0>
   14e90:	b0 10 00 02 	mov  %g2, %i0
   14e94:	10 bf ff b9 	b  14d78 <malloc+0x33c>
   14e98:	90 02 00 08 	add  %o0, %o0, %o0
   14e9c:	c4 06 20 04 	ld  [ %i0 + 4 ], %g2
   14ea0:	c8 06 20 0c 	ld  [ %i0 + 0xc ], %g4
   14ea4:	c8 20 60 0c 	st  %g4, [ %g1 + 0xc ]
   14ea8:	c2 21 20 08 	st  %g1, [ %g4 + 8 ]
   14eac:	84 08 bf fc 	and  %g2, -4, %g2
   14eb0:	86 20 80 1c 	sub  %g2, %i4, %g3
   14eb4:	80 a0 e0 0f 	cmp  %g3, 0xf
   14eb8:	18 80 00 06 	bgu  14ed0 <malloc+0x494>
   14ebc:	88 06 00 02 	add  %i0, %g2, %g4
   14ec0:	c2 01 20 04 	ld  [ %g4 + 4 ], %g1
   14ec4:	82 10 60 01 	or  %g1, 1, %g1
   14ec8:	10 bf ff 3b 	b  14bb4 <malloc+0x178>
   14ecc:	c2 21 20 04 	st  %g1, [ %g4 + 4 ]
   14ed0:	82 06 00 1c 	add  %i0, %i4, %g1
   14ed4:	c2 27 60 3c 	st  %g1, [ %i5 + 0x3c ]
   14ed8:	c2 27 60 40 	st  %g1, [ %i5 + 0x40 ]
   14edc:	e0 20 60 08 	st  %l0, [ %g1 + 8 ]
   14ee0:	80 a7 20 ff 	cmp  %i4, 0xff
   14ee4:	18 80 00 03 	bgu  14ef0 <malloc+0x4b4>
   14ee8:	e0 20 60 0c 	st  %l0, [ %g1 + 0xc ]
   14eec:	c2 27 60 30 	st  %g1, [ %i5 + 0x30 ]
   14ef0:	b8 17 20 01 	or  %i4, 1, %i4
   14ef4:	f8 26 20 04 	st  %i4, [ %i0 + 4 ]
   14ef8:	88 10 e0 01 	or  %g3, 1, %g4
   14efc:	c8 20 60 04 	st  %g4, [ %g1 + 4 ]
   14f00:	10 bf ff 2d 	b  14bb4 <malloc+0x178>
   14f04:	c6 26 00 02 	st  %g3, [ %i0 + %g2 ]
   14f08:	c2 07 40 00 	ld  [ %i5 ], %g1
   14f0c:	80 88 60 02 	btst  2, %g1
   14f10:	02 80 00 08 	be  14f30 <malloc+0x4f4>
   14f14:	b2 06 ff ff 	add  %i3, -1, %i1
   14f18:	7f ff fd 94 	call  14568 <__malloc_consolidate>
   14f1c:	90 10 00 1d 	mov  %i5, %o0
   14f20:	7f ff fe c7 	call  14a3c <malloc>
   14f24:	90 07 3f f9 	add  %i4, -7, %o0
   14f28:	10 bf ff 0d 	b  14b5c <malloc+0x120>
   14f2c:	b0 10 00 08 	mov  %o0, %i0
   14f30:	c2 07 63 4c 	ld  [ %i5 + 0x34c ], %g1
   14f34:	80 a7 00 01 	cmp  %i4, %g1
   14f38:	0a 80 00 38 	bcs  15018 <malloc+0x5dc>
   14f3c:	b0 20 00 1b 	neg  %i3, %i0
   14f40:	c4 07 63 50 	ld  [ %i5 + 0x350 ], %g2
   14f44:	c2 07 63 54 	ld  [ %i5 + 0x354 ], %g1
   14f48:	80 a0 80 01 	cmp  %g2, %g1
   14f4c:	36 80 00 34 	bge,a   1501c <malloc+0x5e0>
   14f50:	e2 07 60 2c 	ld  [ %i5 + 0x2c ], %l1
   14f54:	b6 06 e0 0a 	add  %i3, 0xa, %i3
   14f58:	b6 06 c0 1c 	add  %i3, %i4, %i3
   14f5c:	b6 0e c0 18 	and  %i3, %i0, %i3
   14f60:	80 a7 00 1b 	cmp  %i4, %i3
   14f64:	3a 80 00 2e 	bcc,a   1501c <malloc+0x5e0>
   14f68:	e2 07 60 2c 	ld  [ %i5 + 0x2c ], %l1
   14f6c:	9a 10 20 00 	clr  %o5
   14f70:	98 10 20 00 	clr  %o4
   14f74:	96 10 20 22 	mov  0x22, %o3
   14f78:	94 10 20 03 	mov  3, %o2
   14f7c:	92 10 00 1b 	mov  %i3, %o1
   14f80:	7f ff ee 40 	call  10880 <__GI_mmap>
   14f84:	90 10 20 00 	clr  %o0
   14f88:	80 a2 3f ff 	cmp  %o0, -1
   14f8c:	02 80 00 23 	be  15018 <malloc+0x5dc>
   14f90:	84 8a 20 07 	andcc  %o0, 7, %g2
   14f94:	22 80 00 1f 	be,a   15010 <malloc+0x5d4>
   14f98:	c0 22 00 00 	clr  [ %o0 ]
   14f9c:	82 10 20 08 	mov  8, %g1
   14fa0:	82 20 40 02 	sub  %g1, %g2, %g1
   14fa4:	90 02 00 01 	add  %o0, %g1, %o0
   14fa8:	c2 22 00 00 	st  %g1, [ %o0 ]
   14fac:	82 26 c0 01 	sub  %i3, %g1, %g1
   14fb0:	82 10 60 02 	or  %g1, 2, %g1
   14fb4:	c2 22 20 04 	st  %g1, [ %o0 + 4 ]
   14fb8:	c2 07 63 50 	ld  [ %i5 + 0x350 ], %g1
   14fbc:	82 00 60 01 	inc  %g1
   14fc0:	c2 27 63 50 	st  %g1, [ %i5 + 0x350 ]
   14fc4:	c4 07 63 58 	ld  [ %i5 + 0x358 ], %g2
   14fc8:	80 a0 40 02 	cmp  %g1, %g2
   14fcc:	34 80 00 02 	bg,a   14fd4 <malloc+0x598>
   14fd0:	c2 27 63 58 	st  %g1, [ %i5 + 0x358 ]
   14fd4:	c2 07 63 64 	ld  [ %i5 + 0x364 ], %g1
   14fd8:	b6 06 c0 01 	add  %i3, %g1, %i3
   14fdc:	f6 27 63 64 	st  %i3, [ %i5 + 0x364 ]
   14fe0:	c2 07 63 70 	ld  [ %i5 + 0x370 ], %g1
   14fe4:	80 a6 c0 01 	cmp  %i3, %g1
   14fe8:	38 80 00 02 	bgu,a   14ff0 <malloc+0x5b4>
   14fec:	f6 27 63 70 	st  %i3, [ %i5 + 0x370 ]
   14ff0:	c2 07 63 68 	ld  [ %i5 + 0x368 ], %g1
   14ff4:	b6 06 c0 01 	add  %i3, %g1, %i3
   14ff8:	c2 07 63 74 	ld  [ %i5 + 0x374 ], %g1
   14ffc:	80 a6 c0 01 	cmp  %i3, %g1
   15000:	38 80 00 02 	bgu,a   15008 <malloc+0x5cc>
   15004:	f6 27 63 74 	st  %i3, [ %i5 + 0x374 ]
   15008:	10 bf fe d5 	b  14b5c <malloc+0x120>
   1500c:	b0 02 20 08 	add  %o0, 8, %i0
   15010:	10 bf ff e9 	b  14fb4 <malloc+0x578>
   15014:	82 16 e0 02 	or  %i3, 2, %g1
   15018:	e2 07 60 2c 	ld  [ %i5 + 0x2c ], %l1
   1501c:	f6 07 63 48 	ld  [ %i5 + 0x348 ], %i3
   15020:	e4 04 60 04 	ld  [ %l1 + 4 ], %l2
   15024:	b6 06 e0 10 	add  %i3, 0x10, %i3
   15028:	a4 0c bf fc 	and  %l2, -4, %l2
   1502c:	c2 07 63 60 	ld  [ %i5 + 0x360 ], %g1
   15030:	a8 04 40 12 	add  %l1, %l2, %l4
   15034:	80 88 60 01 	btst  1, %g1
   15038:	02 80 00 03 	be  15044 <malloc+0x608>
   1503c:	b6 06 c0 1c 	add  %i3, %i4, %i3
   15040:	b6 26 c0 12 	sub  %i3, %l2, %i3
   15044:	b6 06 40 1b 	add  %i1, %i3, %i3
   15048:	b6 8e c0 18 	andcc  %i3, %i0, %i3
   1504c:	14 80 00 1d 	bg  150c0 <malloc+0x684>
   15050:	01 00 00 00 	nop 
   15054:	c2 07 63 60 	ld  [ %i5 + 0x360 ], %g1
   15058:	80 88 60 01 	btst  1, %g1
   1505c:	12 80 00 3c 	bne  1514c <malloc+0x710>
   15060:	82 06 40 12 	add  %i1, %l2, %g1
   15064:	03 00 03 ff 	sethi  %hi(0xffc00), %g1
   15068:	82 10 63 ff 	or  %g1, 0x3ff, %g1	! fffff <_end+0xbc85f>
   1506c:	80 a6 c0 01 	cmp  %i3, %g1
   15070:	28 80 00 02 	bleu,a   15078 <malloc+0x63c>
   15074:	37 00 04 00 	sethi  %hi(0x100000), %i3
   15078:	80 a7 00 1b 	cmp  %i4, %i3
   1507c:	1a 80 00 4b 	bcc  151a8 <malloc+0x76c>
   15080:	03 00 00 00 	sethi  %hi(0), %g1
   15084:	9a 10 20 00 	clr  %o5
   15088:	98 10 20 00 	clr  %o4
   1508c:	96 10 20 22 	mov  0x22, %o3
   15090:	94 10 20 03 	mov  3, %o2
   15094:	92 10 00 1b 	mov  %i3, %o1
   15098:	7f ff ed fa 	call  10880 <__GI_mmap>
   1509c:	90 10 20 00 	clr  %o0
   150a0:	80 a2 3f ff 	cmp  %o0, -1
   150a4:	02 80 00 40 	be  151a4 <malloc+0x768>
   150a8:	a6 10 00 08 	mov  %o0, %l3
   150ac:	c2 07 63 60 	ld  [ %i5 + 0x360 ], %g1
   150b0:	90 02 00 1b 	add  %o0, %i3, %o0
   150b4:	82 08 7f fe 	and  %g1, -2, %g1
   150b8:	10 80 00 08 	b  150d8 <malloc+0x69c>
   150bc:	c2 27 63 60 	st  %g1, [ %i5 + 0x360 ]
   150c0:	40 00 13 66 	call  19e58 <__GI_sbrk>
   150c4:	90 10 00 1b 	mov  %i3, %o0
   150c8:	a6 10 00 08 	mov  %o0, %l3
   150cc:	80 a4 ff ff 	cmp  %l3, -1
   150d0:	02 bf ff e1 	be  15054 <malloc+0x618>
   150d4:	90 10 3f ff 	mov  -1, %o0
   150d8:	c2 07 63 68 	ld  [ %i5 + 0x368 ], %g1
   150dc:	82 06 c0 01 	add  %i3, %g1, %g1
   150e0:	80 a4 c0 14 	cmp  %l3, %l4
   150e4:	12 80 00 05 	bne  150f8 <malloc+0x6bc>
   150e8:	c2 27 63 68 	st  %g1, [ %i5 + 0x368 ]
   150ec:	80 a2 3f ff 	cmp  %o0, -1
   150f0:	22 80 00 1a 	be,a   15158 <malloc+0x71c>
   150f4:	b6 04 80 1b 	add  %l2, %i3, %i3
   150f8:	c4 07 63 60 	ld  [ %i5 + 0x360 ], %g2
   150fc:	80 88 a0 01 	btst  1, %g2
   15100:	02 80 00 09 	be  15124 <malloc+0x6e8>
   15104:	80 a2 3f ff 	cmp  %o0, -1
   15108:	80 a4 a0 00 	cmp  %l2, 0
   1510c:	02 80 00 32 	be  151d4 <malloc+0x798>
   15110:	80 a4 c0 14 	cmp  %l3, %l4
   15114:	1a 80 00 2b 	bcc  151c0 <malloc+0x784>
   15118:	84 08 bf fe 	and  %g2, -2, %g2
   1511c:	c4 27 63 60 	st  %g2, [ %i5 + 0x360 ]
   15120:	80 a2 3f ff 	cmp  %o0, -1
   15124:	12 80 00 43 	bne  15230 <malloc+0x7f4>
   15128:	a8 10 00 13 	mov  %l3, %l4
   1512c:	40 00 13 4b 	call  19e58 <__GI_sbrk>
   15130:	90 10 20 00 	clr  %o0
   15134:	c4 07 63 68 	ld  [ %i5 + 0x368 ], %g2
   15138:	82 22 00 13 	sub  %o0, %l3, %g1
   1513c:	82 20 40 1b 	sub  %g1, %i3, %g1
   15140:	82 00 40 02 	add  %g1, %g2, %g1
   15144:	10 80 00 38 	b  15224 <malloc+0x7e8>
   15148:	c2 27 63 68 	st  %g1, [ %i5 + 0x368 ]
   1514c:	82 00 40 1b 	add  %g1, %i3, %g1
   15150:	10 bf ff c5 	b  15064 <malloc+0x628>
   15154:	b6 08 40 18 	and  %g1, %i0, %i3
   15158:	b6 16 e0 01 	or  %i3, 1, %i3
   1515c:	f6 24 60 04 	st  %i3, [ %l1 + 4 ]
   15160:	c2 07 63 68 	ld  [ %i5 + 0x368 ], %g1
   15164:	c4 07 63 6c 	ld  [ %i5 + 0x36c ], %g2
   15168:	80 a0 40 02 	cmp  %g1, %g2
   1516c:	38 80 00 02 	bgu,a   15174 <malloc+0x738>
   15170:	c2 27 63 6c 	st  %g1, [ %i5 + 0x36c ]
   15174:	c4 07 63 64 	ld  [ %i5 + 0x364 ], %g2
   15178:	82 00 40 02 	add  %g1, %g2, %g1
   1517c:	c4 07 63 74 	ld  [ %i5 + 0x374 ], %g2
   15180:	80 a0 40 02 	cmp  %g1, %g2
   15184:	38 80 00 02 	bgu,a   1518c <malloc+0x750>
   15188:	c2 27 63 74 	st  %g1, [ %i5 + 0x374 ]
   1518c:	f0 07 60 2c 	ld  [ %i5 + 0x2c ], %i0
   15190:	c2 06 20 04 	ld  [ %i0 + 4 ], %g1
   15194:	82 08 7f fc 	and  %g1, -4, %g1
   15198:	80 a4 00 01 	cmp  %l0, %g1
   1519c:	08 bf fe 5a 	bleu  14b04 <malloc+0xc8>
   151a0:	84 06 00 1c 	add  %i0, %i4, %g2
   151a4:	03 00 00 00 	sethi  %hi(0), %g1
   151a8:	82 18 7f f8 	xor  %g1, -8, %g1
   151ac:	b0 10 20 00 	clr  %i0
   151b0:	ae 10 00 01 	mov  %g1, %l7
   151b4:	82 10 20 0c 	mov  0xc, %g1
   151b8:	10 bf fe 69 	b  14b5c <malloc+0x120>
   151bc:	c2 21 c0 17 	st  %g1, [ %g7 + %l7 ]
   151c0:	80 a4 a0 00 	cmp  %l2, 0
   151c4:	02 80 00 04 	be  151d4 <malloc+0x798>
   151c8:	a8 24 c0 14 	sub  %l3, %l4, %l4
   151cc:	a8 05 00 01 	add  %l4, %g1, %l4
   151d0:	e8 27 63 68 	st  %l4, [ %i5 + 0x368 ]
   151d4:	84 8c e0 07 	andcc  %l3, 7, %g2
   151d8:	02 80 00 32 	be  152a0 <malloc+0x864>
   151dc:	a8 10 00 13 	mov  %l3, %l4
   151e0:	82 10 20 08 	mov  8, %g1
   151e4:	82 20 40 02 	sub  %g1, %g2, %g1
   151e8:	a8 04 c0 01 	add  %l3, %g1, %l4
   151ec:	82 00 40 12 	add  %g1, %l2, %g1
   151f0:	84 06 c0 01 	add  %i3, %g1, %g2
   151f4:	84 04 c0 02 	add  %l3, %g2, %g2
   151f8:	82 20 40 02 	sub  %g1, %g2, %g1
   151fc:	b2 06 40 02 	add  %i1, %g2, %i1
   15200:	b2 0e 40 18 	and  %i1, %i0, %i1
   15204:	b2 06 40 01 	add  %i1, %g1, %i1
   15208:	40 00 13 14 	call  19e58 <__GI_sbrk>
   1520c:	90 10 00 19 	mov  %i1, %o0
   15210:	80 a2 3f ff 	cmp  %o0, -1
   15214:	12 80 00 25 	bne  152a8 <malloc+0x86c>
   15218:	80 a4 c0 08 	cmp  %l3, %o0
   1521c:	40 00 13 0f 	call  19e58 <__GI_sbrk>
   15220:	90 10 20 00 	clr  %o0
   15224:	80 a2 3f ff 	cmp  %o0, -1
   15228:	22 bf ff cf 	be,a   15164 <malloc+0x728>
   1522c:	c2 07 63 68 	ld  [ %i5 + 0x368 ], %g1
   15230:	b2 10 20 00 	clr  %i1
   15234:	e8 27 60 2c 	st  %l4, [ %i5 + 0x2c ]
   15238:	90 22 00 14 	sub  %o0, %l4, %o0
   1523c:	90 02 00 19 	add  %o0, %i1, %o0
   15240:	90 12 20 01 	or  %o0, 1, %o0
   15244:	d0 25 20 04 	st  %o0, [ %l4 + 4 ]
   15248:	c2 07 63 68 	ld  [ %i5 + 0x368 ], %g1
   1524c:	82 00 40 19 	add  %g1, %i1, %g1
   15250:	80 a4 a0 00 	cmp  %l2, 0
   15254:	02 bf ff c3 	be  15160 <malloc+0x724>
   15258:	c2 27 63 68 	st  %g1, [ %i5 + 0x368 ]
   1525c:	a4 04 bf f4 	add  %l2, -12, %l2
   15260:	a4 0c bf f8 	and  %l2, -8, %l2
   15264:	82 14 a0 01 	or  %l2, 1, %g1
   15268:	c2 24 60 04 	st  %g1, [ %l1 + 4 ]
   1526c:	84 10 20 05 	mov  5, %g2
   15270:	82 04 40 12 	add  %l1, %l2, %g1
   15274:	c4 20 60 04 	st  %g2, [ %g1 + 4 ]
   15278:	80 a4 a0 0f 	cmp  %l2, 0xf
   1527c:	08 bf ff b9 	bleu  15160 <malloc+0x724>
   15280:	c4 20 60 08 	st  %g2, [ %g1 + 8 ]
   15284:	82 10 3f ff 	mov  -1, %g1
   15288:	f6 07 63 44 	ld  [ %i5 + 0x344 ], %i3
   1528c:	90 04 60 08 	add  %l1, 8, %o0
   15290:	7f ff fd 43 	call  1479c <free>
   15294:	c2 27 63 44 	st  %g1, [ %i5 + 0x344 ]
   15298:	10 bf ff b2 	b  15160 <malloc+0x724>
   1529c:	f6 27 63 44 	st  %i3, [ %i5 + 0x344 ]
   152a0:	10 bf ff d3 	b  151ec <malloc+0x7b0>
   152a4:	82 10 20 00 	clr  %g1
   152a8:	28 bf ff e4 	bleu,a   15238 <malloc+0x7fc>
   152ac:	e8 27 60 2c 	st  %l4, [ %i5 + 0x2c ]
   152b0:	c2 07 63 60 	ld  [ %i5 + 0x360 ], %g1
   152b4:	90 04 c0 1b 	add  %l3, %i3, %o0
   152b8:	82 08 7f fe 	and  %g1, -2, %g1
   152bc:	10 bf ff da 	b  15224 <malloc+0x7e8>
   152c0:	c2 27 63 60 	st  %g1, [ %i5 + 0x360 ]

000152c4 <__GI_abort>:
   152c4:	9d e3 bf 80 	save  %sp, -128, %sp
   152c8:	2f 00 00 ab 	sethi  %hi(0x2ac00), %l7
   152cc:	7f ff ed 56 	call  10824 <__sparc_get_pc_thunk.l7>
   152d0:	ae 05 e0 00 	add  %l7, 0, %l7	! 2ac00 <__FRAME_END__+0x2508>
   152d4:	3b 00 00 00 	sethi  %hi(0), %i5
   152d8:	ba 1f 61 70 	xor  %i5, 0x170, %i5
   152dc:	ba 05 c0 1d 	add  %l7, %i5, %i5
   152e0:	40 00 02 2a 	call  15b88 <__pthread_mutex_lock>
   152e4:	90 10 00 1d 	mov  %i5, %o0
   152e8:	82 10 20 20 	mov  0x20, %g1
   152ec:	c0 27 bf e8 	clr  [ %fp + -24 ]
   152f0:	c2 27 bf e4 	st  %g1, [ %fp + -28 ]
   152f4:	94 10 20 00 	clr  %o2
   152f8:	92 07 bf e4 	add  %fp, -28, %o1
   152fc:	40 00 12 f3 	call  19ec8 <__GI_sigprocmask>
   15300:	90 10 20 02 	mov  2, %o0
   15304:	03 00 00 00 	sethi  %hi(0), %g1
   15308:	82 18 63 f8 	xor  %g1, 0x3f8, %g1
   1530c:	ae 05 c0 01 	add  %l7, %g1, %l7
   15310:	c2 05 c0 00 	ld  [ %l7 ], %g1
   15314:	80 a0 60 00 	cmp  %g1, 0
   15318:	12 80 00 0c 	bne  15348 <__GI_abort+0x84>
   1531c:	80 a0 60 01 	cmp  %g1, 1
   15320:	82 10 20 01 	mov  1, %g1
   15324:	c2 25 c0 00 	st  %g1, [ %l7 ]
   15328:	40 00 02 18 	call  15b88 <__pthread_mutex_lock>
   1532c:	90 10 00 1d 	mov  %i5, %o0
   15330:	40 00 03 da 	call  16298 <__GI_raise>
   15334:	90 10 20 06 	mov  6, %o0
   15338:	40 00 02 14 	call  15b88 <__pthread_mutex_lock>
   1533c:	90 10 00 1d 	mov  %i5, %o0
   15340:	c2 05 c0 00 	ld  [ %l7 ], %g1
   15344:	80 a0 60 01 	cmp  %g1, 1
   15348:	12 80 00 11 	bne  1538c <__GI_abort+0xc8>
   1534c:	80 a0 60 02 	cmp  %g1, 2
   15350:	82 10 20 02 	mov  2, %g1
   15354:	b8 07 bf ec 	add  %fp, -20, %i4
   15358:	c2 25 c0 00 	st  %g1, [ %l7 ]
   1535c:	94 10 20 14 	mov  0x14, %o2
   15360:	92 10 20 00 	clr  %o1
   15364:	7f ff fa 5e 	call  13cdc <__GI_memset>
   15368:	90 10 00 1c 	mov  %i4, %o0
   1536c:	82 10 3f ff 	mov  -1, %g1
   15370:	94 10 20 00 	clr  %o2
   15374:	c2 27 bf f8 	st  %g1, [ %fp + -8 ]
   15378:	c2 27 bf fc 	st  %g1, [ %fp + -4 ]
   1537c:	92 10 00 1c 	mov  %i4, %o1
   15380:	40 00 12 25 	call  19c14 <__libc_sigaction>
   15384:	90 10 20 06 	mov  6, %o0
   15388:	30 bf ff e8 	b,a   15328 <__GI_abort+0x64>
   1538c:	32 80 00 06 	bne,a   153a4 <__GI_abort+0xe0>
   15390:	c2 05 c0 00 	ld  [ %l7 ], %g1
   15394:	82 10 20 03 	mov  3, %g1
   15398:	c2 25 c0 00 	st  %g1, [ %l7 ]
   1539c:	00 00 0f 00 	unimp  0xf00
   153a0:	c2 05 c0 00 	ld  [ %l7 ], %g1
   153a4:	80 a0 60 03 	cmp  %g1, 3
   153a8:	12 80 00 05 	bne  153bc <__GI_abort+0xf8>
   153ac:	82 10 20 04 	mov  4, %g1
   153b0:	90 10 20 7f 	mov  0x7f, %o0
   153b4:	40 00 12 6a 	call  19d5c <__GI__exit>
   153b8:	c2 25 c0 00 	st  %g1, [ %l7 ]
   153bc:	00 00 0f 00 	unimp  0xf00
   153c0:	30 bf ff ff 	b,a   153bc <__GI_abort+0xf8>

000153c4 <rand>:
   153c4:	9d e3 bf a0 	save  %sp, -96, %sp
   153c8:	10 80 00 5b 	b  15534 <__GI_random>
   153cc:	81 e8 00 00 	restore 

000153d0 <srand>:
   153d0:	9d e3 bf 90 	save  %sp, -112, %sp
   153d4:	15 00 00 00 	sethi  %hi(0), %o2
   153d8:	94 1a a2 08 	xor  %o2, 0x208, %o2
   153dc:	2f 00 00 aa 	sethi  %hi(0x2a800), %l7
   153e0:	7f ff ed 11 	call  10824 <__sparc_get_pc_thunk.l7>
   153e4:	ae 05 e2 ec 	add  %l7, 0x2ec, %l7	! 2aaec <__FRAME_END__+0x23f4>
   153e8:	b8 07 bf f0 	add  %fp, -16, %i4
   153ec:	ba 05 c0 0a 	add  %l7, %o2, %i5
   153f0:	90 10 00 1c 	mov  %i4, %o0
   153f4:	94 10 00 1d 	mov  %i5, %o2
   153f8:	13 00 00 a8 	sethi  %hi(0x2a000), %o1
   153fc:	92 1a 7c bc 	xor  %o1, -836, %o1
   15400:	40 00 01 e8 	call  15ba0 <_pthread_cleanup_push_defer>
   15404:	92 05 c0 09 	add  %l7, %o1, %o1
   15408:	40 00 01 e0 	call  15b88 <__pthread_mutex_lock>
   1540c:	90 10 00 1d 	mov  %i5, %o0
   15410:	90 10 00 18 	mov  %i0, %o0
   15414:	13 00 00 00 	sethi  %hi(0), %o1
   15418:	92 1a 62 20 	xor  %o1, 0x220, %o1
   1541c:	40 00 00 88 	call  1563c <__GI_srandom_r>
   15420:	92 05 c0 09 	add  %l7, %o1, %o1
   15424:	92 10 20 01 	mov  1, %o1
   15428:	40 00 01 e3 	call  15bb4 <_pthread_cleanup_pop_restore>
   1542c:	90 10 00 1c 	mov  %i4, %o0
   15430:	81 c7 e0 08 	ret 
   15434:	81 e8 00 00 	restore 

00015438 <initstate>:
   15438:	9d e3 bf 90 	save  %sp, -112, %sp
   1543c:	15 00 00 00 	sethi  %hi(0), %o2
   15440:	94 1a a2 08 	xor  %o2, 0x208, %o2
   15444:	2f 00 00 aa 	sethi  %hi(0x2a800), %l7
   15448:	7f ff ec f7 	call  10824 <__sparc_get_pc_thunk.l7>
   1544c:	ae 05 e2 84 	add  %l7, 0x284, %l7	! 2aa84 <__FRAME_END__+0x238c>
   15450:	b8 07 bf f0 	add  %fp, -16, %i4
   15454:	ba 05 c0 0a 	add  %l7, %o2, %i5
   15458:	90 10 00 1c 	mov  %i4, %o0
   1545c:	94 10 00 1d 	mov  %i5, %o2
   15460:	13 00 00 a8 	sethi  %hi(0x2a000), %o1
   15464:	92 1a 7c bc 	xor  %o1, -836, %o1
   15468:	40 00 01 ce 	call  15ba0 <_pthread_cleanup_push_defer>
   1546c:	92 05 c0 09 	add  %l7, %o1, %o1
   15470:	40 00 01 c6 	call  15b88 <__pthread_mutex_lock>
   15474:	90 10 00 1d 	mov  %i5, %o0
   15478:	03 00 00 00 	sethi  %hi(0), %g1
   1547c:	82 18 62 20 	xor  %g1, 0x220, %g1
   15480:	94 10 00 1a 	mov  %i2, %o2
   15484:	96 05 c0 01 	add  %l7, %g1, %o3
   15488:	92 10 00 19 	mov  %i1, %o1
   1548c:	fa 02 e0 08 	ld  [ %o3 + 8 ], %i5
   15490:	40 00 00 a8 	call  15730 <__GI_initstate_r>
   15494:	90 10 00 18 	mov  %i0, %o0
   15498:	ba 07 7f fc 	add  %i5, -4, %i5
   1549c:	92 10 20 01 	mov  1, %o1
   154a0:	90 10 00 1c 	mov  %i4, %o0
   154a4:	40 00 01 c4 	call  15bb4 <_pthread_cleanup_pop_restore>
   154a8:	b0 10 00 1d 	mov  %i5, %i0
   154ac:	81 c7 e0 08 	ret 
   154b0:	81 e8 00 00 	restore 

000154b4 <setstate>:
   154b4:	9d e3 bf 90 	save  %sp, -112, %sp
   154b8:	15 00 00 00 	sethi  %hi(0), %o2
   154bc:	94 1a a2 08 	xor  %o2, 0x208, %o2
   154c0:	2f 00 00 aa 	sethi  %hi(0x2a800), %l7
   154c4:	7f ff ec d8 	call  10824 <__sparc_get_pc_thunk.l7>
   154c8:	ae 05 e2 08 	add  %l7, 0x208, %l7	! 2aa08 <__FRAME_END__+0x2310>
   154cc:	b8 07 bf f0 	add  %fp, -16, %i4
   154d0:	ba 05 c0 0a 	add  %l7, %o2, %i5
   154d4:	90 10 00 1c 	mov  %i4, %o0
   154d8:	94 10 00 1d 	mov  %i5, %o2
   154dc:	13 00 00 a8 	sethi  %hi(0x2a000), %o1
   154e0:	92 1a 7c bc 	xor  %o1, -836, %o1
   154e4:	40 00 01 af 	call  15ba0 <_pthread_cleanup_push_defer>
   154e8:	92 05 c0 09 	add  %l7, %o1, %o1
   154ec:	40 00 01 a7 	call  15b88 <__pthread_mutex_lock>
   154f0:	90 10 00 1d 	mov  %i5, %o0
   154f4:	03 00 00 00 	sethi  %hi(0), %g1
   154f8:	82 18 62 20 	xor  %g1, 0x220, %g1
   154fc:	90 10 00 18 	mov  %i0, %o0
   15500:	92 05 c0 01 	add  %l7, %g1, %o1
   15504:	40 00 00 c7 	call  15820 <__GI_setstate_r>
   15508:	fa 02 60 08 	ld  [ %o1 + 8 ], %i5
   1550c:	80 a2 20 00 	cmp  %o0, 0
   15510:	16 80 00 03 	bge  1551c <setstate+0x68>
   15514:	ba 07 7f fc 	add  %i5, -4, %i5
   15518:	ba 10 20 00 	clr  %i5
   1551c:	92 10 20 01 	mov  1, %o1
   15520:	90 10 00 1c 	mov  %i4, %o0
   15524:	40 00 01 a4 	call  15bb4 <_pthread_cleanup_pop_restore>
   15528:	b0 10 00 1d 	mov  %i5, %i0
   1552c:	81 c7 e0 08 	ret 
   15530:	81 e8 00 00 	restore 

00015534 <__GI_random>:
   15534:	9d e3 bf 88 	save  %sp, -120, %sp
   15538:	15 00 00 00 	sethi  %hi(0), %o2
   1553c:	94 1a a2 08 	xor  %o2, 0x208, %o2
   15540:	2f 00 00 aa 	sethi  %hi(0x2a800), %l7
   15544:	7f ff ec b8 	call  10824 <__sparc_get_pc_thunk.l7>
   15548:	ae 05 e1 88 	add  %l7, 0x188, %l7	! 2a988 <__FRAME_END__+0x2290>
   1554c:	b8 07 bf f0 	add  %fp, -16, %i4
   15550:	ba 05 c0 0a 	add  %l7, %o2, %i5
   15554:	90 10 00 1c 	mov  %i4, %o0
   15558:	94 10 00 1d 	mov  %i5, %o2
   1555c:	13 00 00 a8 	sethi  %hi(0x2a000), %o1
   15560:	92 1a 7c bc 	xor  %o1, -836, %o1
   15564:	40 00 01 8f 	call  15ba0 <_pthread_cleanup_push_defer>
   15568:	92 05 c0 09 	add  %l7, %o1, %o1
   1556c:	40 00 01 87 	call  15b88 <__pthread_mutex_lock>
   15570:	90 10 00 1d 	mov  %i5, %o0
   15574:	92 07 bf ec 	add  %fp, -20, %o1
   15578:	11 00 00 00 	sethi  %hi(0), %o0
   1557c:	90 1a 22 20 	xor  %o0, 0x220, %o0
   15580:	40 00 00 08 	call  155a0 <__GI_random_r>
   15584:	90 05 c0 08 	add  %l7, %o0, %o0
   15588:	92 10 20 01 	mov  1, %o1
   1558c:	40 00 01 8a 	call  15bb4 <_pthread_cleanup_pop_restore>
   15590:	90 10 00 1c 	mov  %i4, %o0
   15594:	f0 07 bf ec 	ld  [ %fp + -20 ], %i0
   15598:	81 c7 e0 08 	ret 
   1559c:	81 e8 00 00 	restore 

000155a0 <__GI_random_r>:
   155a0:	9d e3 bf a0 	save  %sp, -96, %sp
   155a4:	c2 4e 20 0c 	ldsb  [ %i0 + 0xc ], %g1
   155a8:	80 a0 60 00 	cmp  %g1, 0
   155ac:	12 80 00 0f 	bne  155e8 <__GI_random_r+0x48>
   155b0:	c8 06 20 08 	ld  [ %i0 + 8 ], %g4
   155b4:	05 10 71 93 	sethi  %hi(0x41c64c00), %g2
   155b8:	84 10 a2 6d 	or  %g2, 0x26d, %g2	! 41c64e6d <_end+0x41c216cd>
   155bc:	c2 01 00 00 	ld  [ %g4 ], %g1
   155c0:	82 58 40 02 	smul  %g1, %g2, %g1
   155c4:	05 00 00 0c 	sethi  %hi(0x3000), %g2
   155c8:	84 10 a0 39 	or  %g2, 0x39, %g2	! 3039 <__libc_h_errno+0x3035>
   155cc:	82 00 40 02 	add  %g1, %g2, %g1
   155d0:	05 20 00 00 	sethi  %hi(0x80000000), %g2
   155d4:	82 28 40 02 	andn  %g1, %g2, %g1
   155d8:	c2 21 00 00 	st  %g1, [ %g4 ]
   155dc:	c2 26 40 00 	st  %g1, [ %i1 ]
   155e0:	81 c7 e0 08 	ret 
   155e4:	91 e8 20 00 	restore  %g0, 0, %o0
   155e8:	c2 06 00 00 	ld  [ %i0 ], %g1
   155ec:	c4 06 20 04 	ld  [ %i0 + 4 ], %g2
   155f0:	c6 00 40 00 	ld  [ %g1 ], %g3
   155f4:	f8 00 80 00 	ld  [ %g2 ], %i4
   155f8:	fa 06 20 10 	ld  [ %i0 + 0x10 ], %i5
   155fc:	86 00 c0 1c 	add  %g3, %i4, %g3
   15600:	c6 20 40 00 	st  %g3, [ %g1 ]
   15604:	87 30 e0 01 	srl  %g3, 1, %g3
   15608:	c6 26 40 00 	st  %g3, [ %i1 ]
   1560c:	82 00 60 04 	add  %g1, 4, %g1
   15610:	80 a7 40 01 	cmp  %i5, %g1
   15614:	08 80 00 08 	bleu  15634 <__GI_random_r+0x94>
   15618:	84 00 a0 04 	add  %g2, 4, %g2
   1561c:	80 a7 40 02 	cmp  %i5, %g2
   15620:	28 80 00 02 	bleu,a   15628 <__GI_random_r+0x88>
   15624:	84 10 00 04 	mov  %g4, %g2
   15628:	c2 26 00 00 	st  %g1, [ %i0 ]
   1562c:	10 bf ff ed 	b  155e0 <__GI_random_r+0x40>
   15630:	c4 26 20 04 	st  %g2, [ %i0 + 4 ]
   15634:	10 bf ff fd 	b  15628 <__GI_random_r+0x88>
   15638:	82 10 00 04 	mov  %g4, %g1

0001563c <__GI_srandom_r>:
   1563c:	9d e3 bf 98 	save  %sp, -104, %sp
   15640:	c2 0e 60 0c 	ldub  [ %i1 + 0xc ], %g1
   15644:	83 28 60 18 	sll  %g1, 0x18, %g1
   15648:	87 38 60 18 	sra  %g1, 0x18, %g3
   1564c:	80 a0 e0 04 	cmp  %g3, 4
   15650:	18 80 00 0a 	bgu  15678 <__GI_srandom_r+0x3c>
   15654:	84 10 3f ff 	mov  -1, %g2
   15658:	80 a6 20 00 	cmp  %i0, 0
   1565c:	12 80 00 03 	bne  15668 <__GI_srandom_r+0x2c>
   15660:	c4 06 60 08 	ld  [ %i1 + 8 ], %g2
   15664:	b0 10 20 01 	mov  1, %i0
   15668:	80 a0 60 00 	cmp  %g1, 0
   1566c:	12 80 00 05 	bne  15680 <__GI_srandom_r+0x44>
   15670:	f0 20 80 00 	st  %i0, [ %g2 ]
   15674:	84 10 20 00 	clr  %g2
   15678:	81 c7 e0 08 	ret 
   1567c:	91 e8 00 02 	restore  %g0, %g2, %o0
   15680:	09 00 00 7c 	sethi  %hi(0x1f000), %g4
   15684:	3b 00 00 10 	sethi  %hi(0x4000), %i5
   15688:	37 1f ff ff 	sethi  %hi(0x7ffffc00), %i3
   1568c:	f8 4e 60 0d 	ldsb  [ %i1 + 0xd ], %i4
   15690:	86 10 20 01 	mov  1, %g3
   15694:	88 11 23 1d 	or  %g4, 0x31d, %g4
   15698:	ba 17 61 a7 	or  %i5, 0x1a7, %i5
   1569c:	b6 16 e3 ff 	or  %i3, 0x3ff, %i3
   156a0:	80 a0 c0 1c 	cmp  %g3, %i4
   156a4:	06 80 00 12 	bl  156ec <__GI_srandom_r+0xb0>
   156a8:	01 00 00 00 	nop 
   156ac:	bb 2f 20 02 	sll  %i4, 2, %i5
   156b0:	c2 4e 60 0e 	ldsb  [ %i1 + 0xe ], %g1
   156b4:	ba 07 40 1c 	add  %i5, %i4, %i5
   156b8:	83 28 60 02 	sll  %g1, 2, %g1
   156bc:	c4 26 60 04 	st  %g2, [ %i1 + 4 ]
   156c0:	82 00 80 01 	add  %g2, %g1, %g1
   156c4:	ba 07 40 1d 	add  %i5, %i5, %i5
   156c8:	c2 26 40 00 	st  %g1, [ %i1 ]
   156cc:	b8 07 bf fc 	add  %fp, -4, %i4
   156d0:	ba 87 7f ff 	addcc  %i5, -1, %i5
   156d4:	0c bf ff e8 	bneg  15674 <__GI_srandom_r+0x38>
   156d8:	92 10 00 1c 	mov  %i4, %o1
   156dc:	7f ff ff b1 	call  155a0 <__GI_random_r>
   156e0:	90 10 00 19 	mov  %i1, %o0
   156e4:	10 bf ff fc 	b  156d4 <__GI_srandom_r+0x98>
   156e8:	ba 87 7f ff 	addcc  %i5, -1, %i5
   156ec:	b5 3e 20 1f 	sra  %i0, 0x1f, %i2
   156f0:	81 86 a0 00 	wr  %i2, %y
   156f4:	01 00 00 00 	nop 
   156f8:	01 00 00 00 	nop 
   156fc:	01 00 00 00 	nop 
   15700:	82 7e 00 04 	sdiv  %i0, %g4, %g1
   15704:	b4 58 40 04 	smul  %g1, %g4, %i2
   15708:	82 58 74 ec 	smul  %g1, -2836, %g1
   1570c:	b0 26 00 1a 	sub  %i0, %i2, %i0
   15710:	b0 5e 00 1d 	smul  %i0, %i5, %i0
   15714:	b0 86 00 01 	addcc  %i0, %g1, %i0
   15718:	2c 80 00 02 	bneg,a   15720 <__GI_srandom_r+0xe4>
   1571c:	b0 06 00 1b 	add  %i0, %i3, %i0
   15720:	83 28 e0 02 	sll  %g3, 2, %g1
   15724:	86 00 e0 01 	inc  %g3
   15728:	10 bf ff de 	b  156a0 <__GI_srandom_r+0x64>
   1572c:	f0 20 80 01 	st  %i0, [ %g2 + %g1 ]

00015730 <__GI_initstate_r>:
   15730:	9d e3 bf a0 	save  %sp, -96, %sp
   15734:	2f 00 00 a9 	sethi  %hi(0x2a400), %l7
   15738:	7f ff ec 3b 	call  10824 <__sparc_get_pc_thunk.l7>
   1573c:	ae 05 e3 94 	add  %l7, 0x394, %l7	! 2a794 <__FRAME_END__+0x209c>
   15740:	80 a6 a0 7f 	cmp  %i2, 0x7f
   15744:	08 80 00 1f 	bleu  157c0 <__GI_initstate_r+0x90>
   15748:	80 a6 a0 1f 	cmp  %i2, 0x1f
   1574c:	80 a6 a0 ff 	cmp  %i2, 0xff
   15750:	18 80 00 03 	bgu  1575c <__GI_initstate_r+0x2c>
   15754:	ba 10 20 04 	mov  4, %i5
   15758:	ba 10 20 03 	mov  3, %i5
   1575c:	03 00 00 80 	sethi  %hi(0x20000), %g1
   15760:	82 18 7c 2c 	xor  %g1, -980, %g1
   15764:	b8 06 60 04 	add  %i1, 4, %i4
   15768:	ae 05 c0 01 	add  %l7, %g1, %l7
   1576c:	85 2f 60 02 	sll  %i5, 2, %g2
   15770:	82 07 60 04 	add  %i5, 4, %g1
   15774:	c4 05 c0 02 	ld  [ %l7 + %g2 ], %g2
   15778:	83 28 60 02 	sll  %g1, 2, %g1
   1577c:	82 05 c0 01 	add  %l7, %g1, %g1
   15780:	c2 00 60 04 	ld  [ %g1 + 4 ], %g1
   15784:	c2 2e e0 0d 	stb  %g1, [ %i3 + 0xd ]
   15788:	83 28 60 02 	sll  %g1, 2, %g1
   1578c:	82 07 00 01 	add  %i4, %g1, %g1
   15790:	fa 2e e0 0c 	stb  %i5, [ %i3 + 0xc ]
   15794:	c4 2e e0 0e 	stb  %g2, [ %i3 + 0xe ]
   15798:	c2 26 e0 10 	st  %g1, [ %i3 + 0x10 ]
   1579c:	f8 26 e0 08 	st  %i4, [ %i3 + 8 ]
   157a0:	92 10 00 1b 	mov  %i3, %o1
   157a4:	7f ff ff a6 	call  1563c <__GI_srandom_r>
   157a8:	90 10 00 18 	mov  %i0, %o0
   157ac:	80 a7 60 00 	cmp  %i5, 0
   157b0:	12 80 00 14 	bne  15800 <__GI_initstate_r+0xd0>
   157b4:	c0 26 40 00 	clr  [ %i1 ]
   157b8:	81 c7 e0 08 	ret 
   157bc:	91 e8 20 00 	restore  %g0, 0, %o0
   157c0:	18 80 00 0c 	bgu  157f0 <__GI_initstate_r+0xc0>
   157c4:	80 a6 a0 3f 	cmp  %i2, 0x3f
   157c8:	80 a6 a0 07 	cmp  %i2, 7
   157cc:	18 bf ff e4 	bgu  1575c <__GI_initstate_r+0x2c>
   157d0:	ba 10 20 00 	clr  %i5
   157d4:	03 00 00 00 	sethi  %hi(0), %g1
   157d8:	82 18 7f f8 	xor  %g1, -8, %g1
   157dc:	ae 10 00 01 	mov  %g1, %l7
   157e0:	82 10 20 16 	mov  0x16, %g1
   157e4:	c2 21 c0 17 	st  %g1, [ %g7 + %l7 ]
   157e8:	81 c7 e0 08 	ret 
   157ec:	91 e8 3f ff 	restore  %g0, -1, %o0
   157f0:	18 bf ff db 	bgu  1575c <__GI_initstate_r+0x2c>
   157f4:	ba 10 20 02 	mov  2, %i5
   157f8:	10 bf ff d9 	b  1575c <__GI_initstate_r+0x2c>
   157fc:	ba 10 20 01 	mov  1, %i5
   15800:	c2 06 e0 04 	ld  [ %i3 + 4 ], %g1
   15804:	82 20 40 1c 	sub  %g1, %i4, %g1
   15808:	85 38 60 02 	sra  %g1, 2, %g2
   1580c:	82 08 7f fc 	and  %g1, -4, %g1
   15810:	82 00 40 02 	add  %g1, %g2, %g1
   15814:	82 00 40 1d 	add  %g1, %i5, %g1
   15818:	10 bf ff e8 	b  157b8 <__GI_initstate_r+0x88>
   1581c:	c2 26 40 00 	st  %g1, [ %i1 ]

00015820 <__GI_setstate_r>:
   15820:	9d e3 bf a0 	save  %sp, -96, %sp
   15824:	2f 00 00 a9 	sethi  %hi(0x2a400), %l7
   15828:	7f ff eb ff 	call  10824 <__sparc_get_pc_thunk.l7>
   1582c:	ae 05 e2 a4 	add  %l7, 0x2a4, %l7	! 2a6a4 <__FRAME_END__+0x1fac>
   15830:	c4 4e 60 0c 	ldsb  [ %i1 + 0xc ], %g2
   15834:	86 06 20 04 	add  %i0, 4, %g3
   15838:	80 a0 a0 00 	cmp  %g2, 0
   1583c:	02 80 00 08 	be  1585c <__GI_setstate_r+0x3c>
   15840:	c8 06 60 08 	ld  [ %i1 + 8 ], %g4
   15844:	c2 06 60 04 	ld  [ %i1 + 4 ], %g1
   15848:	82 20 40 04 	sub  %g1, %g4, %g1
   1584c:	bb 38 60 02 	sra  %g1, 2, %i5
   15850:	82 08 7f fc 	and  %g1, -4, %g1
   15854:	82 00 40 1d 	add  %g1, %i5, %g1
   15858:	84 00 80 01 	add  %g2, %g1, %g2
   1585c:	c4 21 3f fc 	st  %g2, [ %g4 + -4 ]
   15860:	c4 06 00 00 	ld  [ %i0 ], %g2
   15864:	83 38 a0 1f 	sra  %g2, 0x1f, %g1
   15868:	81 80 60 00 	wr  %g1, %y
   1586c:	01 00 00 00 	nop 
   15870:	01 00 00 00 	nop 
   15874:	01 00 00 00 	nop 
   15878:	b8 78 a0 05 	sdiv  %g2, 5, %i4
   1587c:	bb 2f 20 02 	sll  %i4, 2, %i5
   15880:	82 07 40 1c 	add  %i5, %i4, %g1
   15884:	84 20 80 01 	sub  %g2, %g1, %g2
   15888:	80 a0 a0 04 	cmp  %g2, 4
   1588c:	08 80 00 09 	bleu  158b0 <__GI_setstate_r+0x90>
   15890:	03 00 00 80 	sethi  %hi(0x20000), %g1
   15894:	03 00 00 00 	sethi  %hi(0), %g1
   15898:	82 18 7f f8 	xor  %g1, -8, %g1
   1589c:	ae 10 00 01 	mov  %g1, %l7
   158a0:	82 10 20 16 	mov  0x16, %g1
   158a4:	c2 21 c0 17 	st  %g1, [ %g7 + %l7 ]
   158a8:	81 c7 e0 08 	ret 
   158ac:	91 e8 3f ff 	restore  %g0, -1, %o0
   158b0:	82 18 7c 2c 	xor  %g1, -980, %g1
   158b4:	ae 05 c0 01 	add  %l7, %g1, %l7
   158b8:	82 00 a0 04 	add  %g2, 4, %g1
   158bc:	83 28 60 02 	sll  %g1, 2, %g1
   158c0:	82 05 c0 01 	add  %l7, %g1, %g1
   158c4:	c4 2e 60 0c 	stb  %g2, [ %i1 + 0xc ]
   158c8:	c8 00 60 04 	ld  [ %g1 + 4 ], %g4
   158cc:	83 28 a0 02 	sll  %g2, 2, %g1
   158d0:	c8 2e 60 0d 	stb  %g4, [ %i1 + 0xd ]
   158d4:	c2 05 c0 01 	ld  [ %l7 + %g1 ], %g1
   158d8:	80 a0 a0 00 	cmp  %g2, 0
   158dc:	02 80 00 10 	be  1591c <__GI_setstate_r+0xfc>
   158e0:	c2 2e 60 0e 	stb  %g1, [ %i1 + 0xe ]
   158e4:	ba 00 c0 1d 	add  %g3, %i5, %i5
   158e8:	82 00 40 1c 	add  %g1, %i4, %g1
   158ec:	fa 26 60 04 	st  %i5, [ %i1 + 4 ]
   158f0:	bb 38 60 1f 	sra  %g1, 0x1f, %i5
   158f4:	81 87 60 00 	wr  %i5, %y
   158f8:	01 00 00 00 	nop 
   158fc:	01 00 00 00 	nop 
   15900:	01 00 00 00 	nop 
   15904:	84 78 40 04 	sdiv  %g1, %g4, %g2
   15908:	84 58 80 04 	smul  %g2, %g4, %g2
   1590c:	82 20 40 02 	sub  %g1, %g2, %g1
   15910:	83 28 60 02 	sll  %g1, 2, %g1
   15914:	82 00 c0 01 	add  %g3, %g1, %g1
   15918:	c2 26 40 00 	st  %g1, [ %i1 ]
   1591c:	c6 26 60 08 	st  %g3, [ %i1 + 8 ]
   15920:	89 29 20 02 	sll  %g4, 2, %g4
   15924:	86 00 c0 04 	add  %g3, %g4, %g3
   15928:	c6 26 60 10 	st  %g3, [ %i1 + 0x10 ]
   1592c:	81 c7 e0 08 	ret 
   15930:	91 e8 20 00 	restore  %g0, 0, %o0

00015934 <__GI_atoi>:
   15934:	9d e3 bf a0 	save  %sp, -96, %sp
   15938:	b4 10 20 0a 	mov  0xa, %i2
   1593c:	10 80 00 02 	b  15944 <__GI_strtol>
   15940:	93 e8 20 00 	restore  %g0, 0, %o1

00015944 <__GI_strtol>:
   15944:	9d e3 bf a0 	save  %sp, -96, %sp
   15948:	10 80 00 02 	b  15950 <_stdlib_strto_l>
   1594c:	97 e8 20 01 	restore  %g0, 1, %o3

00015950 <_stdlib_strto_l>:
   15950:	9d e3 bf a0 	save  %sp, -96, %sp
   15954:	40 00 11 e7 	call  1a0f0 <__GI___curlocale>
   15958:	01 00 00 00 	nop 
   1595c:	10 80 00 02 	b  15964 <_stdlib_strto_l_l>
   15960:	99 e8 00 08 	restore  %g0, %o0, %o4

00015964 <_stdlib_strto_l_l>:
   15964:	9d e3 bf a0 	save  %sp, -96, %sp
   15968:	2f 00 00 a9 	sethi  %hi(0x2a400), %l7
   1596c:	7f ff eb ae 	call  10824 <__sparc_get_pc_thunk.l7>
   15970:	ae 05 e1 60 	add  %l7, 0x160, %l7	! 2a560 <__FRAME_END__+0x1e68>
   15974:	a0 10 00 18 	mov  %i0, %l0
   15978:	ba 10 00 18 	mov  %i0, %i5
   1597c:	92 10 00 1c 	mov  %i4, %o1
   15980:	40 00 11 d1 	call  1a0c4 <__GI_isspace_l>
   15984:	d0 0f 40 00 	ldub  [ %i5 ], %o0
   15988:	80 a2 20 00 	cmp  %o0, 0
   1598c:	32 bf ff fc 	bne,a   1597c <_stdlib_strto_l_l+0x18>
   15990:	ba 07 60 01 	inc  %i5
   15994:	c2 0f 40 00 	ldub  [ %i5 ], %g1
   15998:	80 a0 60 2b 	cmp  %g1, 0x2b
   1599c:	02 80 00 06 	be  159b4 <_stdlib_strto_l_l+0x50>
   159a0:	88 10 20 00 	clr  %g4
   159a4:	80 a0 60 2d 	cmp  %g1, 0x2d
   159a8:	12 80 00 05 	bne  159bc <_stdlib_strto_l_l+0x58>
   159ac:	80 8e bf ef 	btst  -17, %i2
   159b0:	88 10 20 01 	mov  1, %g4
   159b4:	ba 07 60 01 	inc  %i5
   159b8:	80 8e bf ef 	btst  -17, %i2
