
init_B:     file format elf32-sparc


Disassembly of section .init:

000100d4 <_init>:
   100d4:	9d e3 bf 98 	save  %sp, -104, %sp
   100d8:	40 00 00 a7 	call  10374 <frame_dummy>
   100dc:	01 00 00 00 	nop 
   100e0:	40 00 3c f7 	call  1f4bc <__do_global_ctors_aux>
   100e4:	01 00 00 00 	nop 
   100e8:	81 c7 e0 08 	ret 
   100ec:	81 e8 00 00 	restore 

Disassembly of section .text:

000100f0 <main>:
   100f0:	9d e3 bf a0 	save  %sp, -96, %sp
   100f4:	40 00 01 91 	call  10738 <_Z12attach_to_fdv>
   100f8:	01 00 00 00 	nop 
   100fc:	80 a6 20 01 	cmp  %i0, 1
   10100:	04 80 00 33 	ble  101cc <main+0xdc>
   10104:	ba 10 00 08 	mov  %o0, %i5
   10108:	40 00 16 0b 	call  15934 <__GI_atoi>
   1010c:	d0 06 60 04 	ld  [ %i1 + 4 ], %o0
   10110:	b8 92 20 00 	orcc  %o0, 0, %i4
   10114:	04 80 00 2e 	ble  101cc <main+0xdc>
   10118:	01 00 00 00 	nop 
   1011c:	40 00 18 57 	call  16278 <__GI_getpid>
   10120:	35 00 00 7d 	sethi  %hi(0x1f400), %i2
   10124:	40 00 14 ab 	call  153d0 <srand>
   10128:	01 00 00 00 	nop 
   1012c:	90 10 00 1d 	mov  %i5, %o0
   10130:	13 00 00 7d 	sethi  %hi(0x1f400), %o1
   10134:	40 00 02 a7 	call  10bd0 <dprintf>
   10138:	92 12 61 78 	or  %o1, 0x178, %o1	! 1f578 <_fini+0x74>
   1013c:	40 00 01 a9 	call  107e0 <close>
   10140:	90 10 00 1d 	mov  %i5, %o0
   10144:	9a 10 20 00 	clr  %o5
   10148:	98 10 3f ff 	mov  -1, %o4
   1014c:	96 10 20 21 	mov  0x21, %o3
   10150:	94 10 20 03 	mov  3, %o2
   10154:	92 10 20 08 	mov  8, %o1
   10158:	40 00 01 ca 	call  10880 <__GI_mmap>
   1015c:	90 10 20 00 	clr  %o0
   10160:	d4 1a 00 00 	ldd  [ %o0 ], %o2
   10164:	b6 10 00 08 	mov  %o0, %i3
   10168:	92 16 a1 a0 	or  %i2, 0x1a0, %o1
   1016c:	40 00 02 99 	call  10bd0 <dprintf>
   10170:	90 10 00 1d 	mov  %i5, %o0
   10174:	94 10 00 1b 	mov  %i3, %o2
   10178:	92 16 a1 a0 	or  %i2, 0x1a0, %o1
   1017c:	40 00 02 95 	call  10bd0 <dprintf>
   10180:	90 10 00 1d 	mov  %i5, %o0
   10184:	92 10 00 1c 	mov  %i4, %o1
   10188:	11 00 00 7d 	sethi  %hi(0x1f400), %o0
   1018c:	40 00 00 d4 	call  104dc <_Z19setup_shared_matrixPKci>
   10190:	90 12 21 b8 	or  %o0, 0x1b8, %o0	! 1f5b8 <_fini+0xb4>
   10194:	ba 92 20 00 	orcc  %o0, 0, %i5
   10198:	02 80 00 0d 	be  101cc <main+0xdc>
   1019c:	94 10 00 1c 	mov  %i4, %o2
   101a0:	40 00 00 95 	call  103f4 <_Z17initialize_matrixPdii>
   101a4:	92 10 00 1c 	mov  %i4, %o1
   101a8:	96 10 00 1c 	mov  %i4, %o3
   101ac:	94 10 00 1c 	mov  %i4, %o2
   101b0:	92 10 00 1d 	mov  %i5, %o1
   101b4:	11 00 00 7d 	sethi  %hi(0x1f400), %o0
   101b8:	b0 10 20 00 	clr  %i0
   101bc:	40 00 01 24 	call  1064c <_Z20write_matrix_to_filePKcPdii>
   101c0:	90 12 21 c8 	or  %o0, 0x1c8, %o0
   101c4:	81 c7 e0 08 	ret 
   101c8:	81 e8 00 00 	restore 
   101cc:	81 c7 e0 08 	ret 
   101d0:	91 e8 20 01 	restore  %g0, 1, %o0
   101d4:	81 c3 e0 08 	retl 
   101d8:	ae 03 c0 17 	add  %o7, %l7, %l7

000101dc <_start>:
   101dc:	2f 00 00 bf 	sethi  %hi(0x2fc00), %l7
   101e0:	7f ff ff fd 	call  101d4 <main+0xe4>
   101e4:	ae 05 e0 ec 	add  %l7, 0xec, %l7	! 2fcec <__FRAME_END__+0x75f4>
   101e8:	bc 10 00 00 	mov  %g0, %fp
   101ec:	9c 23 a0 18 	sub  %sp, 0x18, %sp
   101f0:	d2 03 a0 58 	ld  [ %sp + 0x58 ], %o1
   101f4:	94 03 a0 5c 	add  %sp, 0x5c, %o2
   101f8:	11 00 00 00 	sethi  %hi(0), %o0
   101fc:	17 00 00 00 	sethi  %hi(0), %o3
   10200:	19 00 00 00 	sethi  %hi(0), %o4
   10204:	90 12 20 b4 	or  %o0, 0xb4, %o0
   10208:	96 12 e0 48 	or  %o3, 0x48, %o3
   1020c:	98 13 20 d0 	or  %o4, 0xd0, %o4
   10210:	d0 05 c0 08 	ld  [ %l7 + %o0 ], %o0
   10214:	d6 05 c0 0b 	ld  [ %l7 + %o3 ], %o3
   10218:	d8 05 c0 0c 	ld  [ %l7 + %o4 ], %o4
   1021c:	9a 10 00 01 	mov  %g1, %o5
   10220:	40 00 16 ba 	call  15d08 <__uClibc_main>
   10224:	01 00 00 00 	nop 
   10228:	00 00 00 00 	unimp  0

0001022c <deregister_tm_clones>:
   1022c:	9d e3 bf a0 	save  %sp, -96, %sp
   10230:	11 00 01 00 	sethi  %hi(0x40000), %o0
   10234:	03 00 01 00 	sethi  %hi(0x40000), %g1
   10238:	90 12 22 58 	or  %o0, 0x258, %o0
   1023c:	82 10 62 58 	or  %g1, 0x258, %g1
   10240:	80 a0 40 08 	cmp  %g1, %o0
   10244:	02 80 00 08 	be  10264 <deregister_tm_clones+0x38>
   10248:	03 00 00 00 	sethi  %hi(0), %g1
   1024c:	82 10 60 00 	mov  %g1, %g1	! 0 <errno>
   10250:	80 a0 60 00 	cmp  %g1, 0
   10254:	02 80 00 04 	be  10264 <deregister_tm_clones+0x38>
   10258:	01 00 00 00 	nop 
   1025c:	9f c0 40 00 	call  %g1
   10260:	01 00 00 00 	nop 
   10264:	81 c7 e0 08 	ret 
   10268:	81 e8 00 00 	restore 

0001026c <register_tm_clones>:
   1026c:	9d e3 bf a0 	save  %sp, -96, %sp
   10270:	03 00 01 00 	sethi  %hi(0x40000), %g1
   10274:	11 00 01 00 	sethi  %hi(0x40000), %o0
   10278:	92 10 62 58 	or  %g1, 0x258, %o1
   1027c:	90 12 22 58 	or  %o0, 0x258, %o0
   10280:	92 22 40 08 	sub  %o1, %o0, %o1
   10284:	83 3a 60 02 	sra  %o1, 2, %g1
   10288:	93 32 60 1f 	srl  %o1, 0x1f, %o1
   1028c:	92 02 40 01 	add  %o1, %g1, %o1
   10290:	93 3a 60 01 	sra  %o1, 1, %o1
   10294:	80 a2 60 00 	cmp  %o1, 0
   10298:	02 80 00 08 	be  102b8 <register_tm_clones+0x4c>
   1029c:	03 00 00 00 	sethi  %hi(0), %g1
   102a0:	82 10 60 00 	mov  %g1, %g1	! 0 <errno>
   102a4:	80 a0 60 00 	cmp  %g1, 0
   102a8:	02 80 00 04 	be  102b8 <register_tm_clones+0x4c>
   102ac:	01 00 00 00 	nop 
   102b0:	9f c0 40 00 	call  %g1
   102b4:	01 00 00 00 	nop 
   102b8:	81 c7 e0 08 	ret 
   102bc:	81 e8 00 00 	restore 

000102c0 <__do_global_dtors_aux>:
   102c0:	9d e3 bf a0 	save  %sp, -96, %sp
   102c4:	35 00 01 00 	sethi  %hi(0x40000), %i2
   102c8:	c2 0e a2 58 	ldub  [ %i2 + 0x258 ], %g1	! 40258 <__TMC_END__>
   102cc:	80 a0 60 00 	cmp  %g1, 0
   102d0:	12 80 00 24 	bne  10360 <__do_global_dtors_aux+0xa0>
   102d4:	05 00 00 ff 	sethi  %hi(0x3fc00), %g2
   102d8:	3b 00 01 00 	sethi  %hi(0x40000), %i5
   102dc:	b6 10 a2 84 	or  %g2, 0x284, %i3
   102e0:	c2 07 62 5c 	ld  [ %i5 + 0x25c ], %g1
   102e4:	39 00 00 ff 	sethi  %hi(0x3fc00), %i4
   102e8:	84 10 a2 84 	or  %g2, 0x284, %g2
   102ec:	b8 17 22 88 	or  %i4, 0x288, %i4
   102f0:	b8 27 00 02 	sub  %i4, %g2, %i4
   102f4:	b9 3f 20 02 	sra  %i4, 2, %i4
   102f8:	b8 07 3f ff 	add  %i4, -1, %i4
   102fc:	80 a0 40 1c 	cmp  %g1, %i4
   10300:	1a 80 00 0c 	bcc  10330 <__do_global_dtors_aux+0x70>
   10304:	82 00 60 01 	inc  %g1
   10308:	ba 17 62 5c 	or  %i5, 0x25c, %i5
   1030c:	85 28 60 02 	sll  %g1, 2, %g2
   10310:	c2 27 40 00 	st  %g1, [ %i5 ]
   10314:	c2 06 c0 02 	ld  [ %i3 + %g2 ], %g1
   10318:	9f c0 40 00 	call  %g1
   1031c:	01 00 00 00 	nop 
   10320:	c2 07 40 00 	ld  [ %i5 ], %g1
   10324:	80 a0 40 1c 	cmp  %g1, %i4
   10328:	0a bf ff f9 	bcs  1030c <__do_global_dtors_aux+0x4c>
   1032c:	82 00 60 01 	inc  %g1
   10330:	7f ff ff bf 	call  1022c <deregister_tm_clones>
   10334:	01 00 00 00 	nop 
   10338:	03 00 00 00 	sethi  %hi(0), %g1
   1033c:	82 10 60 00 	mov  %g1, %g1	! 0 <errno>
   10340:	80 a0 60 00 	cmp  %g1, 0
   10344:	02 80 00 06 	be  1035c <__do_global_dtors_aux+0x9c>
   10348:	82 10 20 01 	mov  1, %g1
   1034c:	11 00 00 a1 	sethi  %hi(0x28400), %o0
   10350:	7f ff bf 2c 	call  0 <errno>
   10354:	90 12 20 f0 	or  %o0, 0xf0, %o0	! 284f0 <__EH_FRAME_BEGIN__>
   10358:	82 10 20 01 	mov  1, %g1
   1035c:	c2 2e a2 58 	stb  %g1, [ %i2 + 0x258 ]
   10360:	81 c7 e0 08 	ret 
   10364:	81 e8 00 00 	restore 

00010368 <call___do_global_dtors_aux>:
   10368:	9d e3 bf a0 	save  %sp, -96, %sp
   1036c:	81 c7 e0 08 	ret 
   10370:	81 e8 00 00 	restore 

00010374 <frame_dummy>:
   10374:	9d e3 bf a0 	save  %sp, -96, %sp
   10378:	03 00 00 00 	sethi  %hi(0), %g1
   1037c:	82 10 60 00 	mov  %g1, %g1	! 0 <errno>
   10380:	80 a0 60 00 	cmp  %g1, 0
   10384:	02 80 00 06 	be  1039c <frame_dummy+0x28>
   10388:	13 00 01 00 	sethi  %hi(0x40000), %o1
   1038c:	11 00 00 a1 	sethi  %hi(0x28400), %o0
   10390:	92 12 62 60 	or  %o1, 0x260, %o1
   10394:	7f ff bf 1b 	call  0 <errno>
   10398:	90 12 20 f0 	or  %o0, 0xf0, %o0
   1039c:	10 bf ff b4 	b  1026c <register_tm_clones>
   103a0:	81 e8 00 00 	restore 

000103a4 <call_frame_dummy>:
   103a4:	9d e3 bf a0 	save  %sp, -96, %sp
   103a8:	81 c7 e0 08 	ret 
   103ac:	81 e8 00 00 	restore 

000103b0 <_Z5fRanddd>:
   103b0:	9d e3 bf 90 	save  %sp, -112, %sp
   103b4:	40 00 14 04 	call  153c4 <rand>
   103b8:	f0 3f bf f8 	std  %i0, [ %fp + -8 ]
   103bc:	d0 27 bf f0 	st  %o0, [ %fp + -16 ]
   103c0:	d1 07 bf f0 	ld  [ %fp + -16 ], %f8
   103c4:	d9 1f bf f8 	ldd  [ %fp + -8 ], %f12
   103c8:	81 a0 19 08 	fitod  %f8, %f0
   103cc:	f4 3f bf f0 	std  %i2, [ %fp + -16 ]
   103d0:	03 00 00 7d 	sethi  %hi(0x1f400), %g1
   103d4:	d1 1f bf f0 	ldd  [ %fp + -16 ], %f8
   103d8:	d5 18 61 18 	ldd  [ %g1 + 0x118 ], %f10
   103dc:	91 a2 08 cc 	fsubd  %f8, %f12, %f8
   103e0:	81 a0 09 ca 	fdivd  %f0, %f10, %f0
   103e4:	81 a0 09 48 	fmuld  %f0, %f8, %f0
   103e8:	81 a0 08 4c 	faddd  %f0, %f12, %f0
   103ec:	81 c7 e0 08 	ret 
   103f0:	81 e8 00 00 	restore 

000103f4 <_Z17initialize_matrixPdii>:
   103f4:	9d e3 bf 98 	save  %sp, -104, %sp
   103f8:	80 a6 60 00 	cmp  %i1, 0
   103fc:	04 80 00 21 	ble  10480 <_Z17initialize_matrixPdii+0x8c>
   10400:	a7 2e a0 03 	sll  %i2, 3, %l3
   10404:	a4 10 20 00 	clr  %l2
   10408:	2d 00 00 7d 	sethi  %hi(0x1f400), %l6
   1040c:	2b 00 00 7d 	sethi  %hi(0x1f400), %l5
   10410:	29 00 00 7d 	sethi  %hi(0x1f400), %l4
   10414:	80 a6 a0 00 	cmp  %i2, 0
   10418:	24 80 00 17 	ble,a   10474 <_Z17initialize_matrixPdii+0x80>
   1041c:	a4 04 a0 01 	inc  %l2
   10420:	b8 10 00 18 	mov  %i0, %i4
   10424:	ba 10 20 00 	clr  %i5
   10428:	a2 15 a1 18 	or  %l6, 0x118, %l1
   1042c:	a0 15 61 20 	or  %l5, 0x120, %l0
   10430:	b6 15 21 28 	or  %l4, 0x128, %i3
   10434:	40 00 13 e4 	call  153c4 <rand>
   10438:	ba 07 60 01 	inc  %i5
   1043c:	d5 1c 40 00 	ldd  [ %l1 ], %f10
   10440:	d0 27 bf fc 	st  %o0, [ %fp + -4 ]
   10444:	d9 1c 00 00 	ldd  [ %l0 ], %f12
   10448:	d1 07 bf fc 	ld  [ %fp + -4 ], %f8
   1044c:	91 a0 19 08 	fitod  %f8, %f8
   10450:	91 a2 09 ca 	fdivd  %f8, %f10, %f8
   10454:	d5 1e c0 00 	ldd  [ %i3 ], %f10
   10458:	91 a2 09 4c 	fmuld  %f8, %f12, %f8
   1045c:	91 a2 08 4a 	faddd  %f8, %f10, %f8
   10460:	d1 3f 00 00 	std  %f8, [ %i4 ]
   10464:	80 a6 80 1d 	cmp  %i2, %i5
   10468:	12 bf ff f3 	bne  10434 <_Z17initialize_matrixPdii+0x40>
   1046c:	b8 07 20 08 	add  %i4, 8, %i4
   10470:	a4 04 a0 01 	inc  %l2
   10474:	80 a6 40 12 	cmp  %i1, %l2
   10478:	12 bf ff e7 	bne  10414 <_Z17initialize_matrixPdii+0x20>
   1047c:	b0 06 00 13 	add  %i0, %l3, %i0
   10480:	81 c7 e0 08 	ret 
   10484:	81 e8 00 00 	restore 

00010488 <_Z20get_address_from_keyPKc>:
   10488:	9d e3 bf a0 	save  %sp, -96, %sp
   1048c:	37 00 01 00 	sethi  %hi(0x40000), %i3
   10490:	ba 10 20 00 	clr  %i5
   10494:	b6 16 e0 08 	or  %i3, 8, %i3
   10498:	b8 10 00 1b 	mov  %i3, %i4
   1049c:	92 10 00 18 	mov  %i0, %o1
   104a0:	40 00 0e 9c 	call  13f10 <__GI_strcmp>
   104a4:	d0 07 00 00 	ld  [ %i4 ], %o0
   104a8:	80 a2 20 00 	cmp  %o0, 0
   104ac:	22 80 00 08 	be,a   104cc <_Z20get_address_from_keyPKc+0x44>
   104b0:	bb 2f 60 03 	sll  %i5, 3, %i5
   104b4:	ba 07 60 01 	inc  %i5
   104b8:	80 a7 60 03 	cmp  %i5, 3
   104bc:	12 bf ff f8 	bne  1049c <_Z20get_address_from_keyPKc+0x14>
   104c0:	b8 07 20 08 	add  %i4, 8, %i4
   104c4:	81 c7 e0 08 	ret 
   104c8:	91 e8 20 00 	restore  %g0, 0, %o0
   104cc:	b6 06 c0 1d 	add  %i3, %i5, %i3
   104d0:	f0 06 e0 04 	ld  [ %i3 + 4 ], %i0
   104d4:	81 c7 e0 08 	ret 
   104d8:	81 e8 00 00 	restore 

000104dc <_Z19setup_shared_matrixPKci>:
   104dc:	9d e3 bf a0 	save  %sp, -96, %sp
   104e0:	37 00 01 00 	sethi  %hi(0x40000), %i3
   104e4:	b2 5e 40 19 	smul  %i1, %i1, %i1
   104e8:	b6 16 e0 08 	or  %i3, 8, %i3
   104ec:	b3 2e 60 03 	sll  %i1, 3, %i1
   104f0:	b8 10 00 1b 	mov  %i3, %i4
   104f4:	ba 10 20 00 	clr  %i5
   104f8:	92 10 00 18 	mov  %i0, %o1
   104fc:	40 00 0e 85 	call  13f10 <__GI_strcmp>
   10500:	d0 07 00 00 	ld  [ %i4 ], %o0
   10504:	80 a2 20 00 	cmp  %o0, 0
   10508:	22 80 00 08 	be,a   10528 <_Z19setup_shared_matrixPKci+0x4c>
   1050c:	bb 2f 60 03 	sll  %i5, 3, %i5
   10510:	ba 07 60 01 	inc  %i5
   10514:	80 a7 60 03 	cmp  %i5, 3
   10518:	12 bf ff f8 	bne  104f8 <_Z19setup_shared_matrixPKci+0x1c>
   1051c:	b8 07 20 08 	add  %i4, 8, %i4
   10520:	81 c7 e0 08 	ret 
   10524:	91 e8 20 00 	restore  %g0, 0, %o0
   10528:	b6 06 c0 1d 	add  %i3, %i5, %i3
   1052c:	f8 06 e0 04 	ld  [ %i3 + 4 ], %i4
   10530:	80 a7 20 00 	cmp  %i4, 0
   10534:	02 bf ff fb 	be  10520 <_Z19setup_shared_matrixPKci+0x44>
   10538:	94 10 21 b6 	mov  0x1b6, %o2
   1053c:	92 10 20 02 	mov  2, %o1
   10540:	40 00 25 76 	call  19b18 <shm_open>
   10544:	90 10 00 18 	mov  %i0, %o0
   10548:	80 a2 3f ff 	cmp  %o0, -1
   1054c:	12 80 00 13 	bne  10598 <_Z19setup_shared_matrixPKci+0xbc>
   10550:	ba 10 00 08 	mov  %o0, %i5
   10554:	40 00 01 8a 	call  10b7c <__errno_location>
   10558:	01 00 00 00 	nop 
   1055c:	c2 02 00 00 	ld  [ %o0 ], %g1
   10560:	80 a0 60 02 	cmp  %g1, 2
   10564:	12 bf ff ef 	bne  10520 <_Z19setup_shared_matrixPKci+0x44>
   10568:	94 10 21 b6 	mov  0x1b6, %o2
   1056c:	92 10 22 02 	mov  0x202, %o1
   10570:	40 00 25 6a 	call  19b18 <shm_open>
   10574:	90 10 00 18 	mov  %i0, %o0
   10578:	80 a2 3f ff 	cmp  %o0, -1
   1057c:	02 bf ff e9 	be  10520 <_Z19setup_shared_matrixPKci+0x44>
   10580:	ba 10 00 08 	mov  %o0, %i5
   10584:	40 00 00 aa 	call  1082c <__GI_ftruncate>
   10588:	92 10 00 19 	mov  %i1, %o1
   1058c:	80 a2 3f ff 	cmp  %o0, -1
   10590:	02 bf ff e4 	be  10520 <_Z19setup_shared_matrixPKci+0x44>
   10594:	01 00 00 00 	nop 
   10598:	9a 10 20 00 	clr  %o5	! 0 <errno>
   1059c:	98 10 00 1d 	mov  %i5, %o4
   105a0:	96 10 20 11 	mov  0x11, %o3
   105a4:	94 10 20 03 	mov  3, %o2
   105a8:	92 10 00 19 	mov  %i1, %o1
   105ac:	40 00 00 b5 	call  10880 <__GI_mmap>
   105b0:	90 10 00 1c 	mov  %i4, %o0
   105b4:	b0 10 00 08 	mov  %o0, %i0
   105b8:	40 00 00 8a 	call  107e0 <close>
   105bc:	90 10 00 1d 	mov  %i5, %o0
   105c0:	80 a6 3f ff 	cmp  %i0, -1
   105c4:	02 bf ff d7 	be  10520 <_Z19setup_shared_matrixPKci+0x44>
   105c8:	01 00 00 00 	nop 
   105cc:	81 c7 e0 08 	ret 
   105d0:	81 e8 00 00 	restore 

000105d4 <_Z21cleanup_shared_matrixPKci>:
   105d4:	9d e3 bf a0 	save  %sp, -96, %sp
   105d8:	37 00 01 00 	sethi  %hi(0x40000), %i3
   105dc:	ba 10 20 00 	clr  %i5
   105e0:	b6 16 e0 08 	or  %i3, 8, %i3
   105e4:	b8 10 00 1b 	mov  %i3, %i4
   105e8:	92 10 00 18 	mov  %i0, %o1
   105ec:	40 00 0e 49 	call  13f10 <__GI_strcmp>
   105f0:	d0 07 00 00 	ld  [ %i4 ], %o0
   105f4:	80 a2 20 00 	cmp  %o0, 0
   105f8:	22 80 00 08 	be,a   10618 <_Z21cleanup_shared_matrixPKci+0x44>
   105fc:	b2 5e 40 19 	smul  %i1, %i1, %i1
   10600:	ba 07 60 01 	inc  %i5
   10604:	80 a7 60 03 	cmp  %i5, 3
   10608:	12 bf ff f8 	bne  105e8 <_Z21cleanup_shared_matrixPKci+0x14>
   1060c:	b8 07 20 08 	add  %i4, 8, %i4
   10610:	10 80 25 5b 	b  19b7c <shm_unlink>
   10614:	81 e8 00 00 	restore 
   10618:	bb 2f 60 03 	sll  %i5, 3, %i5
   1061c:	b6 06 c0 1d 	add  %i3, %i5, %i3
   10620:	d0 06 e0 04 	ld  [ %i3 + 4 ], %o0
   10624:	80 a2 20 00 	cmp  %o0, 0
   10628:	02 bf ff fa 	be  10610 <_Z21cleanup_shared_matrixPKci+0x3c>
   1062c:	93 2e 60 03 	sll  %i1, 3, %o1
   10630:	80 a2 60 00 	cmp  %o1, 0
   10634:	02 bf ff f7 	be  10610 <_Z21cleanup_shared_matrixPKci+0x3c>
   10638:	01 00 00 00 	nop 
   1063c:	40 00 00 aa 	call  108e4 <__GI_munmap>
   10640:	01 00 00 00 	nop 
   10644:	10 80 25 4e 	b  19b7c <shm_unlink>
   10648:	81 e8 00 00 	restore 

0001064c <_Z20write_matrix_to_filePKcPdii>:
   1064c:	9d e3 bf 20 	save  %sp, -224, %sp
   10650:	94 10 21 a4 	mov  0x1a4, %o2
   10654:	92 10 26 01 	mov  0x601, %o1
   10658:	40 00 00 e3 	call  109e4 <__GI_open>
   1065c:	90 10 00 18 	mov  %i0, %o0
   10660:	80 a6 a0 00 	cmp  %i2, 0
   10664:	04 80 00 31 	ble  10728 <_Z20write_matrix_to_filePKcPdii+0xdc>
   10668:	a4 10 00 08 	mov  %o0, %l2
   1066c:	21 00 00 7d 	sethi  %hi(0x1f400), %l0
   10670:	ab 2e e0 03 	sll  %i3, 3, %l5
   10674:	a6 10 20 00 	clr  %l3
   10678:	a2 10 20 80 	mov  0x80, %l1
   1067c:	a0 14 21 60 	or  %l0, 0x160, %l0
   10680:	a8 10 20 0a 	mov  0xa, %l4
   10684:	b0 10 00 19 	mov  %i1, %i0
   10688:	b8 10 20 00 	clr  %i4
   1068c:	ba 10 20 00 	clr  %i5
   10690:	80 a6 e0 00 	cmp  %i3, 0
   10694:	14 80 00 07 	bg  106b0 <_Z20write_matrix_to_filePKcPdii+0x64>
   10698:	94 10 20 01 	mov  1, %o2
   1069c:	10 80 00 1b 	b  10708 <_Z20write_matrix_to_filePKcPdii+0xbc>
   106a0:	ba 07 80 1d 	add  %fp, %i5, %i5
   106a4:	80 a6 c0 1c 	cmp  %i3, %i4
   106a8:	02 80 00 16 	be  10700 <_Z20write_matrix_to_filePKcPdii+0xb4>
   106ac:	b0 06 20 08 	add  %i0, 8, %i0
   106b0:	82 07 bf 80 	add  %fp, -128, %g1
   106b4:	92 24 40 1d 	sub  %l1, %i5, %o1
   106b8:	90 00 40 1d 	add  %g1, %i5, %o0
   106bc:	d6 06 00 00 	ld  [ %i0 ], %o3
   106c0:	d8 06 20 04 	ld  [ %i0 + 4 ], %o4
   106c4:	40 00 01 37 	call  10ba0 <__GI_snprintf>
   106c8:	94 10 00 10 	mov  %l0, %o2
   106cc:	ba 07 40 08 	add  %i5, %o0, %i5
   106d0:	80 a7 60 60 	cmp  %i5, 0x60
   106d4:	24 bf ff f4 	ble,a   106a4 <_Z20write_matrix_to_filePKcPdii+0x58>
   106d8:	b8 07 20 01 	inc  %i4
   106dc:	94 10 00 1d 	mov  %i5, %o2
   106e0:	92 07 bf 80 	add  %fp, -128, %o1
   106e4:	40 00 01 13 	call  10b30 <write>
   106e8:	90 10 00 12 	mov  %l2, %o0
   106ec:	b8 07 20 01 	inc  %i4
   106f0:	ba 10 20 00 	clr  %i5
   106f4:	80 a6 c0 1c 	cmp  %i3, %i4
   106f8:	12 bf ff ee 	bne  106b0 <_Z20write_matrix_to_filePKcPdii+0x64>
   106fc:	b0 06 20 08 	add  %i0, 8, %i0
   10700:	94 07 60 01 	add  %i5, 1, %o2
   10704:	ba 07 80 1d 	add  %fp, %i5, %i5
   10708:	92 07 bf 80 	add  %fp, -128, %o1
   1070c:	e8 2f 7f 80 	stb  %l4, [ %i5 + -128 ]
   10710:	40 00 01 08 	call  10b30 <write>
   10714:	90 10 00 12 	mov  %l2, %o0
   10718:	a6 04 e0 01 	inc  %l3
   1071c:	80 a6 80 13 	cmp  %i2, %l3
   10720:	12 bf ff d9 	bne  10684 <_Z20write_matrix_to_filePKcPdii+0x38>
   10724:	b2 06 40 15 	add  %i1, %l5, %i1
   10728:	40 00 00 2e 	call  107e0 <close>
   1072c:	90 10 00 12 	mov  %l2, %o0
   10730:	81 c7 e0 08 	ret 
   10734:	81 e8 00 00 	restore 

00010738 <_Z12attach_to_fdv>:
   10738:	9d e3 bf a0 	save  %sp, -96, %sp
   1073c:	94 10 21 b6 	mov  0x1b6, %o2
   10740:	92 10 22 09 	mov  0x209, %o1
   10744:	11 00 00 7d 	sethi  %hi(0x1f400), %o0
   10748:	40 00 00 a7 	call  109e4 <__GI_open>
   1074c:	90 12 21 68 	or  %o0, 0x168, %o0	! 1f568 <_fini+0x64>
   10750:	b0 92 20 00 	orcc  %o0, 0, %i0
   10754:	06 80 00 04 	bl  10764 <_Z12attach_to_fdv+0x2c>
   10758:	01 00 00 00 	nop 
   1075c:	81 c7 e0 08 	ret 
   10760:	81 e8 00 00 	restore 
   10764:	81 c7 e0 08 	ret 
   10768:	91 e8 3f ff 	restore  %g0, -1, %o0

0001076c <__close_nocancel>:
   1076c:	9d e3 bf a0 	save  %sp, -96, %sp
   10770:	2f 00 00 bd 	sethi  %hi(0x2f400), %l7
   10774:	40 00 00 2c 	call  10824 <__sparc_get_pc_thunk.l7>
   10778:	ae 05 e3 58 	add  %l7, 0x358, %l7	! 2f758 <__FRAME_END__+0x7060>
   1077c:	82 10 20 06 	mov  6, %g1
   10780:	90 10 00 18 	mov  %i0, %o0
   10784:	91 d0 20 10 	ta  0x10
   10788:	1a 80 00 03 	bcc  10794 <__close_nocancel+0x28>
   1078c:	b0 10 00 08 	mov  %o0, %i0
   10790:	b0 20 00 08 	neg  %o0, %i0
   10794:	80 a6 30 00 	cmp  %i0, -4096
   10798:	08 80 00 07 	bleu  107b4 <__close_nocancel+0x48>
   1079c:	03 00 00 00 	sethi  %hi(0), %g1
   107a0:	b0 20 00 18 	neg  %i0
   107a4:	82 18 7f f8 	xor  %g1, -8, %g1
   107a8:	ae 10 00 01 	mov  %g1, %l7
   107ac:	f0 21 c0 17 	st  %i0, [ %g7 + %l7 ]
   107b0:	b0 10 3f ff 	mov  -1, %i0
   107b4:	81 c7 e0 08 	ret 
   107b8:	81 e8 00 00 	restore 

000107bc <__close_nocancel_no_status>:
   107bc:	9d e3 bf a0 	save  %sp, -96, %sp
   107c0:	82 10 20 06 	mov  6, %g1
   107c4:	90 10 00 18 	mov  %i0, %o0
   107c8:	91 d0 20 10 	ta  0x10
   107cc:	1a 80 00 03 	bcc  107d8 <__close_nocancel_no_status+0x1c>
   107d0:	82 10 00 08 	mov  %o0, %g1
   107d4:	82 20 00 08 	neg  %o0, %g1
   107d8:	81 c7 e0 08 	ret 
   107dc:	81 e8 00 00 	restore 

000107e0 <close>:
   107e0:	9d e3 bf a0 	save  %sp, -96, %sp
   107e4:	c2 01 e0 0c 	ld  [ %g7 + 0xc ], %g1
   107e8:	80 a0 60 00 	cmp  %g1, 0
   107ec:	12 80 00 04 	bne  107fc <close+0x1c>
   107f0:	01 00 00 00 	nop 
   107f4:	10 bf ff de 	b  1076c <__close_nocancel>
   107f8:	81 e8 00 00 	restore 
   107fc:	40 00 16 df 	call  16378 <__libc_enable_asynccancel>
   10800:	01 00 00 00 	nop 
   10804:	ba 10 00 08 	mov  %o0, %i5
   10808:	7f ff ff d9 	call  1076c <__close_nocancel>
   1080c:	90 10 00 18 	mov  %i0, %o0
   10810:	b0 10 00 08 	mov  %o0, %i0
   10814:	40 00 17 16 	call  1646c <__libc_disable_asynccancel>
   10818:	90 10 00 1d 	mov  %i5, %o0
   1081c:	81 c7 e0 08 	ret 
   10820:	81 e8 00 00 	restore 

00010824 <__sparc_get_pc_thunk.l7>:
   10824:	81 c3 e0 08 	retl 
   10828:	ae 03 c0 17 	add  %o7, %l7, %l7

0001082c <__GI_ftruncate>:
   1082c:	9d e3 bf a0 	save  %sp, -96, %sp
   10830:	2f 00 00 bd 	sethi  %hi(0x2f400), %l7
   10834:	7f ff ff fc 	call  10824 <__sparc_get_pc_thunk.l7>
   10838:	ae 05 e2 98 	add  %l7, 0x298, %l7	! 2f698 <__FRAME_END__+0x6fa0>
   1083c:	82 10 20 82 	mov  0x82, %g1
   10840:	92 10 00 19 	mov  %i1, %o1
   10844:	90 10 00 18 	mov  %i0, %o0
   10848:	91 d0 20 10 	ta  0x10
   1084c:	1a 80 00 03 	bcc  10858 <__GI_ftruncate+0x2c>
   10850:	b0 10 00 08 	mov  %o0, %i0
   10854:	b0 20 00 08 	neg  %o0, %i0
   10858:	80 a6 30 00 	cmp  %i0, -4096
   1085c:	08 80 00 07 	bleu  10878 <__GI_ftruncate+0x4c>
   10860:	03 00 00 00 	sethi  %hi(0), %g1
   10864:	b0 20 00 18 	neg  %i0
   10868:	82 18 7f f8 	xor  %g1, -8, %g1
   1086c:	ae 10 00 01 	mov  %g1, %l7
   10870:	f0 21 c0 17 	st  %i0, [ %g7 + %l7 ]
   10874:	b0 10 3f ff 	mov  -1, %i0
   10878:	81 c7 e0 08 	ret 
   1087c:	81 e8 00 00 	restore 

00010880 <__GI_mmap>:
   10880:	9d e3 bf a0 	save  %sp, -96, %sp
   10884:	2f 00 00 bd 	sethi  %hi(0x2f400), %l7
   10888:	7f ff ff e7 	call  10824 <__sparc_get_pc_thunk.l7>
   1088c:	ae 05 e2 44 	add  %l7, 0x244, %l7	! 2f644 <__FRAME_END__+0x6f4c>
   10890:	82 10 20 47 	mov  0x47, %g1
   10894:	9a 10 00 1d 	mov  %i5, %o5
   10898:	98 10 00 1c 	mov  %i4, %o4
   1089c:	96 10 00 1b 	mov  %i3, %o3
   108a0:	94 10 00 1a 	mov  %i2, %o2
   108a4:	92 10 00 19 	mov  %i1, %o1
   108a8:	90 10 00 18 	mov  %i0, %o0
   108ac:	91 d0 20 10 	ta  0x10
   108b0:	1a 80 00 03 	bcc  108bc <__GI_mmap+0x3c>
   108b4:	b0 10 00 08 	mov  %o0, %i0
   108b8:	b0 20 00 08 	neg  %o0, %i0
   108bc:	80 a6 30 00 	cmp  %i0, -4096
   108c0:	08 80 00 07 	bleu  108dc <__GI_mmap+0x5c>
   108c4:	03 00 00 00 	sethi  %hi(0), %g1
   108c8:	b0 20 00 18 	neg  %i0
   108cc:	82 18 7f f8 	xor  %g1, -8, %g1
   108d0:	ae 10 00 01 	mov  %g1, %l7
   108d4:	f0 21 c0 17 	st  %i0, [ %g7 + %l7 ]
   108d8:	b0 10 3f ff 	mov  -1, %i0
   108dc:	81 c7 e0 08 	ret 
   108e0:	81 e8 00 00 	restore 

000108e4 <__GI_munmap>:
   108e4:	9d e3 bf a0 	save  %sp, -96, %sp
   108e8:	2f 00 00 bd 	sethi  %hi(0x2f400), %l7
   108ec:	7f ff ff ce 	call  10824 <__sparc_get_pc_thunk.l7>
   108f0:	ae 05 e1 e0 	add  %l7, 0x1e0, %l7	! 2f5e0 <__FRAME_END__+0x6ee8>
   108f4:	82 10 20 49 	mov  0x49, %g1
   108f8:	92 10 00 19 	mov  %i1, %o1
   108fc:	90 10 00 18 	mov  %i0, %o0
   10900:	91 d0 20 10 	ta  0x10
   10904:	1a 80 00 03 	bcc  10910 <__GI_munmap+0x2c>
   10908:	b0 10 00 08 	mov  %o0, %i0
   1090c:	b0 20 00 08 	neg  %o0, %i0
   10910:	80 a6 30 00 	cmp  %i0, -4096
   10914:	08 80 00 07 	bleu  10930 <__GI_munmap+0x4c>
   10918:	03 00 00 00 	sethi  %hi(0), %g1
   1091c:	b0 20 00 18 	neg  %i0
   10920:	82 18 7f f8 	xor  %g1, -8, %g1
   10924:	ae 10 00 01 	mov  %g1, %l7
   10928:	f0 21 c0 17 	st  %i0, [ %g7 + %l7 ]
   1092c:	b0 10 3f ff 	mov  -1, %i0
   10930:	81 c7 e0 08 	ret 
   10934:	81 e8 00 00 	restore 

00010938 <__open_nocancel>:
   10938:	9d e3 bf a0 	save  %sp, -96, %sp
   1093c:	2f 00 00 bd 	sethi  %hi(0x2f400), %l7
   10940:	7f ff ff b9 	call  10824 <__sparc_get_pc_thunk.l7>
   10944:	ae 05 e1 8c 	add  %l7, 0x18c, %l7	! 2f58c <__FRAME_END__+0x6e94>
   10948:	82 10 20 05 	mov  5, %g1
   1094c:	94 10 00 1a 	mov  %i2, %o2
   10950:	92 10 00 19 	mov  %i1, %o1
   10954:	90 10 00 18 	mov  %i0, %o0
   10958:	91 d0 20 10 	ta  0x10
   1095c:	1a 80 00 03 	bcc  10968 <__open_nocancel+0x30>
   10960:	b0 10 00 08 	mov  %o0, %i0
   10964:	b0 20 00 08 	neg  %o0, %i0
   10968:	80 a6 30 00 	cmp  %i0, -4096
   1096c:	08 80 00 07 	bleu  10988 <__open_nocancel+0x50>
   10970:	03 00 00 00 	sethi  %hi(0), %g1
   10974:	b0 20 00 18 	neg  %i0
   10978:	82 18 7f f8 	xor  %g1, -8, %g1
   1097c:	ae 10 00 01 	mov  %g1, %l7
   10980:	f0 21 c0 17 	st  %i0, [ %g7 + %l7 ]
   10984:	b0 10 3f ff 	mov  -1, %i0
   10988:	81 c7 e0 08 	ret 
   1098c:	81 e8 00 00 	restore 

00010990 <__open2_nocancel>:
   10990:	9d e3 bf a0 	save  %sp, -96, %sp
   10994:	2f 00 00 bd 	sethi  %hi(0x2f400), %l7
   10998:	7f ff ff a3 	call  10824 <__sparc_get_pc_thunk.l7>
   1099c:	ae 05 e1 34 	add  %l7, 0x134, %l7	! 2f534 <__FRAME_END__+0x6e3c>
   109a0:	82 10 20 05 	mov  5, %g1
   109a4:	92 10 00 19 	mov  %i1, %o1
   109a8:	90 10 00 18 	mov  %i0, %o0
   109ac:	91 d0 20 10 	ta  0x10
   109b0:	1a 80 00 03 	bcc  109bc <__open2_nocancel+0x2c>
   109b4:	b0 10 00 08 	mov  %o0, %i0
   109b8:	b0 20 00 08 	neg  %o0, %i0
   109bc:	80 a6 30 00 	cmp  %i0, -4096
   109c0:	08 80 00 07 	bleu  109dc <__open2_nocancel+0x4c>
   109c4:	03 00 00 00 	sethi  %hi(0), %g1
   109c8:	b0 20 00 18 	neg  %i0
   109cc:	82 18 7f f8 	xor  %g1, -8, %g1
   109d0:	ae 10 00 01 	mov  %g1, %l7
   109d4:	f0 21 c0 17 	st  %i0, [ %g7 + %l7 ]
   109d8:	b0 10 3f ff 	mov  -1, %i0
   109dc:	81 c7 e0 08 	ret 
   109e0:	81 e8 00 00 	restore 

000109e4 <__GI_open>:
   109e4:	9d e3 bf 90 	save  %sp, -112, %sp
   109e8:	f4 27 a0 4c 	st  %i2, [ %fp + 0x4c ]
   109ec:	f6 27 a0 50 	st  %i3, [ %fp + 0x50 ]
   109f0:	f8 27 a0 54 	st  %i4, [ %fp + 0x54 ]
   109f4:	fa 27 a0 58 	st  %i5, [ %fp + 0x58 ]
   109f8:	03 00 80 00 	sethi  %hi(0x2000000), %g1
   109fc:	2f 00 00 bd 	sethi  %hi(0x2f400), %l7
   10a00:	7f ff ff 89 	call  10824 <__sparc_get_pc_thunk.l7>
   10a04:	ae 05 e0 cc 	add  %l7, 0xcc, %l7	! 2f4cc <__FRAME_END__+0x6dd4>
   10a08:	82 10 62 00 	or  %g1, 0x200, %g1
   10a0c:	80 8e 40 01 	btst  %i1, %g1
   10a10:	02 80 00 05 	be  10a24 <__GI_open+0x40>
   10a14:	94 10 20 00 	clr  %o2
   10a18:	82 07 a0 4c 	add  %fp, 0x4c, %g1
   10a1c:	94 10 00 1a 	mov  %i2, %o2
   10a20:	c2 27 bf fc 	st  %g1, [ %fp + -4 ]
   10a24:	03 00 00 3f 	sethi  %hi(0xfc00), %g1
   10a28:	82 10 63 ff 	or  %g1, 0x3ff, %g1	! ffff <__libc_h_errno+0xfffb>
   10a2c:	94 0a 80 01 	and  %o2, %g1, %o2
   10a30:	c2 01 e0 0c 	ld  [ %g7 + 0xc ], %g1
   10a34:	80 a0 60 00 	cmp  %g1, 0
   10a38:	12 80 00 11 	bne  10a7c <__GI_open+0x98>
   10a3c:	82 10 20 05 	mov  5, %g1
   10a40:	92 10 00 19 	mov  %i1, %o1
   10a44:	90 10 00 18 	mov  %i0, %o0
   10a48:	91 d0 20 10 	ta  0x10
   10a4c:	1a 80 00 03 	bcc  10a58 <__GI_open+0x74>
   10a50:	b0 10 00 08 	mov  %o0, %i0
   10a54:	b0 20 00 08 	neg  %o0, %i0
   10a58:	80 a6 30 00 	cmp  %i0, -4096
   10a5c:	08 80 00 1d 	bleu  10ad0 <__GI_open+0xec>
   10a60:	03 00 00 00 	sethi  %hi(0), %g1
   10a64:	b0 20 00 18 	neg  %i0
   10a68:	82 18 7f f8 	xor  %g1, -8, %g1
   10a6c:	01 00 00 00 	nop 
   10a70:	f0 21 c0 01 	st  %i0, [ %g7 + %g1 ]
   10a74:	81 c7 e0 08 	ret 
   10a78:	91 e8 3f ff 	restore  %g0, -1, %o0
   10a7c:	40 00 16 3f 	call  16378 <__libc_enable_asynccancel>
   10a80:	d4 27 bf f4 	st  %o2, [ %fp + -12 ]
   10a84:	82 10 20 05 	mov  5, %g1
   10a88:	84 10 00 08 	mov  %o0, %g2
   10a8c:	d4 07 bf f4 	ld  [ %fp + -12 ], %o2
   10a90:	92 10 00 19 	mov  %i1, %o1
   10a94:	90 10 00 18 	mov  %i0, %o0
   10a98:	91 d0 20 10 	ta  0x10
   10a9c:	1a 80 00 03 	bcc  10aa8 <__GI_open+0xc4>
   10aa0:	b0 10 00 08 	mov  %o0, %i0
   10aa4:	b0 20 00 08 	neg  %o0, %i0
   10aa8:	80 a6 30 00 	cmp  %i0, -4096
   10aac:	08 80 00 07 	bleu  10ac8 <__GI_open+0xe4>
   10ab0:	03 00 00 00 	sethi  %hi(0), %g1
   10ab4:	b0 20 00 18 	neg  %i0
   10ab8:	82 18 7f f8 	xor  %g1, -8, %g1
   10abc:	ae 10 00 01 	mov  %g1, %l7
   10ac0:	f0 21 c0 17 	st  %i0, [ %g7 + %l7 ]
   10ac4:	b0 10 3f ff 	mov  -1, %i0
   10ac8:	40 00 16 69 	call  1646c <__libc_disable_asynccancel>
   10acc:	90 10 00 02 	mov  %g2, %o0
   10ad0:	81 c7 e0 08 	ret 
   10ad4:	81 e8 00 00 	restore 

00010ad8 <__write_nocancel>:
   10ad8:	9d e3 bf a0 	save  %sp, -96, %sp
   10adc:	2f 00 00 bc 	sethi  %hi(0x2f000), %l7
   10ae0:	7f ff ff 51 	call  10824 <__sparc_get_pc_thunk.l7>
   10ae4:	ae 05 e3 ec 	add  %l7, 0x3ec, %l7	! 2f3ec <__FRAME_END__+0x6cf4>
   10ae8:	82 10 20 04 	mov  4, %g1
   10aec:	94 10 00 1a 	mov  %i2, %o2
   10af0:	92 10 00 19 	mov  %i1, %o1
   10af4:	90 10 00 18 	mov  %i0, %o0
   10af8:	91 d0 20 10 	ta  0x10
   10afc:	1a 80 00 03 	bcc  10b08 <__write_nocancel+0x30>
   10b00:	b0 10 00 08 	mov  %o0, %i0
   10b04:	b0 20 00 08 	neg  %o0, %i0
   10b08:	80 a6 30 00 	cmp  %i0, -4096
   10b0c:	08 80 00 07 	bleu  10b28 <__write_nocancel+0x50>
   10b10:	03 00 00 00 	sethi  %hi(0), %g1
   10b14:	b0 20 00 18 	neg  %i0
   10b18:	82 18 7f f8 	xor  %g1, -8, %g1
   10b1c:	ae 10 00 01 	mov  %g1, %l7
   10b20:	f0 21 c0 17 	st  %i0, [ %g7 + %l7 ]
   10b24:	b0 10 3f ff 	mov  -1, %i0
   10b28:	81 c7 e0 08 	ret 
   10b2c:	81 e8 00 00 	restore 

00010b30 <write>:
   10b30:	9d e3 bf a0 	save  %sp, -96, %sp
   10b34:	c2 01 e0 0c 	ld  [ %g7 + 0xc ], %g1
   10b38:	80 a0 60 00 	cmp  %g1, 0
   10b3c:	12 80 00 04 	bne  10b4c <write+0x1c>
   10b40:	01 00 00 00 	nop 
   10b44:	10 bf ff e5 	b  10ad8 <__write_nocancel>
   10b48:	81 e8 00 00 	restore 
   10b4c:	40 00 16 0b 	call  16378 <__libc_enable_asynccancel>
   10b50:	01 00 00 00 	nop 
   10b54:	94 10 00 1a 	mov  %i2, %o2
   10b58:	ba 10 00 08 	mov  %o0, %i5
   10b5c:	92 10 00 19 	mov  %i1, %o1
   10b60:	7f ff ff de 	call  10ad8 <__write_nocancel>
   10b64:	90 10 00 18 	mov  %i0, %o0
   10b68:	b0 10 00 08 	mov  %o0, %i0
   10b6c:	40 00 16 40 	call  1646c <__libc_disable_asynccancel>
   10b70:	90 10 00 1d 	mov  %i5, %o0
   10b74:	81 c7 e0 08 	ret 
   10b78:	81 e8 00 00 	restore 

00010b7c <__errno_location>:
   10b7c:	9d e3 bf a0 	save  %sp, -96, %sp
   10b80:	2f 00 00 bc 	sethi  %hi(0x2f000), %l7
   10b84:	7f ff ff 28 	call  10824 <__sparc_get_pc_thunk.l7>
   10b88:	ae 05 e3 48 	add  %l7, 0x348, %l7	! 2f348 <__FRAME_END__+0x6c50>
   10b8c:	03 00 00 00 	sethi  %hi(0), %g1
   10b90:	82 18 7f f8 	xor  %g1, -8, %g1
   10b94:	b0 10 00 01 	mov  %g1, %i0
   10b98:	81 c7 e0 08 	ret 
   10b9c:	91 e9 c0 18 	restore  %g7, %i0, %o0

00010ba0 <__GI_snprintf>:
   10ba0:	9d e3 bf 98 	save  %sp, -104, %sp
   10ba4:	96 07 a0 50 	add  %fp, 0x50, %o3
   10ba8:	f6 27 a0 50 	st  %i3, [ %fp + 0x50 ]
   10bac:	f8 27 a0 54 	st  %i4, [ %fp + 0x54 ]
   10bb0:	fa 27 a0 58 	st  %i5, [ %fp + 0x58 ]
   10bb4:	d6 27 bf fc 	st  %o3, [ %fp + -4 ]
   10bb8:	94 10 00 1a 	mov  %i2, %o2
   10bbc:	92 10 00 19 	mov  %i1, %o1
   10bc0:	40 00 00 32 	call  10c88 <__GI_vsnprintf>
   10bc4:	90 10 00 18 	mov  %i0, %o0
   10bc8:	81 c7 e0 08 	ret 
   10bcc:	91 e8 00 08 	restore  %g0, %o0, %o0

00010bd0 <dprintf>:
   10bd0:	9d e3 bf 98 	save  %sp, -104, %sp
   10bd4:	94 07 a0 4c 	add  %fp, 0x4c, %o2
   10bd8:	f4 27 a0 4c 	st  %i2, [ %fp + 0x4c ]
   10bdc:	f6 27 a0 50 	st  %i3, [ %fp + 0x50 ]
   10be0:	f8 27 a0 54 	st  %i4, [ %fp + 0x54 ]
   10be4:	fa 27 a0 58 	st  %i5, [ %fp + 0x58 ]
   10be8:	d4 27 bf fc 	st  %o2, [ %fp + -4 ]
   10bec:	92 10 00 19 	mov  %i1, %o1
   10bf0:	40 00 00 04 	call  10c00 <__GI_vdprintf>
   10bf4:	90 10 00 18 	mov  %i0, %o0
   10bf8:	81 c7 e0 08 	ret 
   10bfc:	91 e8 00 08 	restore  %g0, %o0, %o0

00010c00 <__GI_vdprintf>:
   10c00:	9d e3 bf 18 	save  %sp, -232, %sp
   10c04:	82 07 bf 78 	add  %fp, -136, %g1
   10c08:	c2 27 bf c0 	st  %g1, [ %fp + -64 ]
   10c0c:	c2 27 bf d0 	st  %g1, [ %fp + -48 ]
   10c10:	c2 27 bf d4 	st  %g1, [ %fp + -44 ]
   10c14:	c2 27 bf c8 	st  %g1, [ %fp + -56 ]
   10c18:	c2 27 bf cc 	st  %g1, [ %fp + -52 ]
   10c1c:	82 10 20 d0 	mov  0xd0, %g1
   10c20:	c2 37 bf b8 	sth  %g1, [ %fp + -72 ]
   10c24:	82 10 20 01 	mov  1, %g1
   10c28:	ba 07 bf b8 	add  %fp, -72, %i5
   10c2c:	f0 27 bf bc 	st  %i0, [ %fp + -68 ]
   10c30:	fa 27 bf c4 	st  %i5, [ %fp + -60 ]
   10c34:	c0 2f bf ba 	clrb  [ %fp + -70 ]
   10c38:	c0 27 bf e4 	clr  [ %fp + -28 ]
   10c3c:	c2 27 bf f0 	st  %g1, [ %fp + -16 ]
   10c40:	c0 27 bf f4 	clr  [ %fp + -12 ]
   10c44:	c0 27 bf f8 	clr  [ %fp + -8 ]
   10c48:	c0 27 bf fc 	clr  [ %fp + -4 ]
   10c4c:	c0 27 bf d8 	clr  [ %fp + -40 ]
   10c50:	94 10 00 1a 	mov  %i2, %o2
   10c54:	92 10 00 19 	mov  %i1, %o1
   10c58:	40 00 00 65 	call  10dec <_vfprintf_internal>
   10c5c:	90 10 00 1d 	mov  %i5, %o0
   10c60:	b0 92 20 00 	orcc  %o0, 0, %i0
   10c64:	04 80 00 07 	ble  10c80 <__GI_vdprintf+0x80>
   10c68:	01 00 00 00 	nop 
   10c6c:	40 00 05 24 	call  120fc <__GI_fflush_unlocked>
   10c70:	90 10 00 1d 	mov  %i5, %o0
   10c74:	80 a2 20 00 	cmp  %o0, 0
   10c78:	32 80 00 02 	bne,a   10c80 <__GI_vdprintf+0x80>
   10c7c:	b0 10 3f ff 	mov  -1, %i0
   10c80:	81 c7 e0 08 	ret 
   10c84:	81 e8 00 00 	restore 

00010c88 <__GI_vsnprintf>:
   10c88:	9d e3 bf 58 	save  %sp, -168, %sp
   10c8c:	82 10 3f fd 	mov  -3, %g1
   10c90:	c2 27 bf bc 	st  %g1, [ %fp + -68 ]
   10c94:	82 10 20 d0 	mov  0xd0, %g1
   10c98:	c0 2f bf ba 	clrb  [ %fp + -70 ]
   10c9c:	c2 37 bf b8 	sth  %g1, [ %fp + -72 ]
   10ca0:	c0 27 bf e4 	clr  [ %fp + -28 ]
   10ca4:	82 10 20 01 	mov  1, %g1
   10ca8:	c0 27 bf f4 	clr  [ %fp + -12 ]
   10cac:	c2 27 bf f0 	st  %g1, [ %fp + -16 ]
   10cb0:	c0 27 bf f8 	clr  [ %fp + -8 ]
   10cb4:	c0 27 bf fc 	clr  [ %fp + -4 ]
   10cb8:	ba 38 00 18 	xnor  %g0, %i0, %i5
   10cbc:	80 a7 40 19 	cmp  %i5, %i1
   10cc0:	08 80 00 03 	bleu  10ccc <__GI_vsnprintf+0x44>
   10cc4:	c0 27 bf d8 	clr  [ %fp + -40 ]
   10cc8:	ba 10 00 19 	mov  %i1, %i5
   10ccc:	82 06 00 1d 	add  %i0, %i5, %g1
   10cd0:	f0 27 bf c0 	st  %i0, [ %fp + -64 ]
   10cd4:	f0 27 bf c8 	st  %i0, [ %fp + -56 ]
   10cd8:	f0 27 bf cc 	st  %i0, [ %fp + -52 ]
   10cdc:	f0 27 bf d0 	st  %i0, [ %fp + -48 ]
   10ce0:	c2 27 bf c4 	st  %g1, [ %fp + -60 ]
   10ce4:	c2 27 bf d4 	st  %g1, [ %fp + -44 ]
   10ce8:	94 10 00 1b 	mov  %i3, %o2
   10cec:	92 10 00 1a 	mov  %i2, %o1
   10cf0:	40 00 00 3f 	call  10dec <_vfprintf_internal>
   10cf4:	90 07 bf b8 	add  %fp, -72, %o0
   10cf8:	80 a7 60 00 	cmp  %i5, 0
   10cfc:	02 80 00 0b 	be  10d28 <__GI_vsnprintf+0xa0>
   10d00:	b0 10 00 08 	mov  %o0, %i0
   10d04:	c2 07 bf c8 	ld  [ %fp + -56 ], %g1
   10d08:	c4 07 bf c4 	ld  [ %fp + -60 ], %g2
   10d0c:	80 a0 40 02 	cmp  %g1, %g2
   10d10:	32 80 00 06 	bne,a   10d28 <__GI_vsnprintf+0xa0>
   10d14:	c0 28 40 00 	clrb  [ %g1 ]
   10d18:	82 00 7f ff 	add  %g1, -1, %g1
   10d1c:	c2 27 bf c8 	st  %g1, [ %fp + -56 ]
   10d20:	c2 07 bf c8 	ld  [ %fp + -56 ], %g1
   10d24:	c0 28 40 00 	clrb  [ %g1 ]
   10d28:	81 c7 e0 08 	ret 
   10d2c:	81 e8 00 00 	restore 

00010d30 <_charpad>:
   10d30:	9d e3 bf 98 	save  %sp, -104, %sp
   10d34:	f2 2f bf f8 	stb  %i1, [ %fp + -8 ]
   10d38:	ba 10 00 1a 	mov  %i2, %i5
   10d3c:	b8 07 bf f8 	add  %fp, -8, %i4
   10d40:	80 a7 60 00 	cmp  %i5, 0
   10d44:	02 80 00 08 	be  10d64 <_charpad+0x34>
   10d48:	94 10 00 18 	mov  %i0, %o2
   10d4c:	92 10 20 01 	mov  1, %o1
   10d50:	40 00 26 1e 	call  1a5c8 <__stdio_fwrite>
   10d54:	90 10 00 1c 	mov  %i4, %o0
   10d58:	80 a2 20 01 	cmp  %o0, 1
   10d5c:	22 bf ff f9 	be,a   10d40 <_charpad+0x10>
   10d60:	ba 07 7f ff 	add  %i5, -1, %i5
   10d64:	b0 26 80 1d 	sub  %i2, %i5, %i0
   10d68:	81 c7 e0 08 	ret 
   10d6c:	81 e8 00 00 	restore 

00010d70 <_fp_out_narrow>:
   10d70:	9d e3 bf a0 	save  %sp, -96, %sp
   10d74:	80 8e 60 80 	btst  0x80, %i1
   10d78:	02 80 00 1a 	be  10de0 <_fp_out_narrow+0x70>
   10d7c:	b8 10 00 18 	mov  %i0, %i4
   10d80:	40 00 0d 20 	call  14200 <__GI_strlen>
   10d84:	90 10 00 1b 	mov  %i3, %o0
   10d88:	b0 10 20 00 	clr  %i0
   10d8c:	b4 26 80 08 	sub  %i2, %o0, %i2
   10d90:	80 a6 a0 00 	cmp  %i2, 0
   10d94:	04 80 00 09 	ble  10db8 <_fp_out_narrow+0x48>
   10d98:	ba 10 00 08 	mov  %o0, %i5
   10d9c:	94 10 00 1a 	mov  %i2, %o2
   10da0:	92 0e 60 7f 	and  %i1, 0x7f, %o1
   10da4:	7f ff ff e3 	call  10d30 <_charpad>
   10da8:	90 10 00 1c 	mov  %i4, %o0
   10dac:	80 a6 80 08 	cmp  %i2, %o0
   10db0:	12 80 00 0a 	bne  10dd8 <_fp_out_narrow+0x68>
   10db4:	b0 10 00 08 	mov  %o0, %i0
   10db8:	80 a7 60 00 	cmp  %i5, 0
   10dbc:	04 80 00 06 	ble  10dd4 <_fp_out_narrow+0x64>
   10dc0:	90 10 20 00 	clr  %o0
   10dc4:	94 10 00 1c 	mov  %i4, %o2
   10dc8:	92 10 00 1d 	mov  %i5, %o1
   10dcc:	40 00 25 ff 	call  1a5c8 <__stdio_fwrite>
   10dd0:	90 10 00 1b 	mov  %i3, %o0
   10dd4:	b0 06 00 08 	add  %i0, %o0, %i0
   10dd8:	81 c7 e0 08 	ret 
   10ddc:	81 e8 00 00 	restore 
   10de0:	ba 10 00 1a 	mov  %i2, %i5
   10de4:	10 bf ff f5 	b  10db8 <_fp_out_narrow+0x48>
   10de8:	b0 10 20 00 	clr  %i0

00010dec <_vfprintf_internal>:
   10dec:	9d e3 be 60 	save  %sp, -416, %sp
   10df0:	2f 00 00 bc 	sethi  %hi(0x2f000), %l7
   10df4:	7f ff fe 8c 	call  10824 <__sparc_get_pc_thunk.l7>
   10df8:	ae 05 e0 d8 	add  %l7, 0xd8, %l7	! 2f0d8 <__FRAME_END__+0x69e0>
   10dfc:	a2 07 bf 68 	add  %fp, -152, %l1
   10e00:	92 10 00 19 	mov  %i1, %o1
   10e04:	90 10 00 11 	mov  %l1, %o0
   10e08:	40 00 01 af 	call  114c4 <_ppfs_init>
   10e0c:	a0 10 00 18 	mov  %i0, %l0
   10e10:	80 a2 20 00 	cmp  %o0, 0
   10e14:	16 80 00 0c 	bge  10e44 <_vfprintf_internal+0x58>
   10e18:	fa 07 bf 68 	ld  [ %fp + -152 ], %i5
   10e1c:	40 00 0c f9 	call  14200 <__GI_strlen>
   10e20:	90 10 00 1d 	mov  %i5, %o0
   10e24:	92 92 20 00 	orcc  %o0, 0, %o1
   10e28:	12 80 00 04 	bne  10e38 <_vfprintf_internal+0x4c>
   10e2c:	94 10 00 18 	mov  %i0, %o2
   10e30:	81 c7 e0 08 	ret 
   10e34:	91 e8 3f ff 	restore  %g0, -1, %o0
   10e38:	40 00 25 e4 	call  1a5c8 <__stdio_fwrite>
   10e3c:	90 10 00 1d 	mov  %i5, %o0
   10e40:	30 bf ff fc 	b,a   10e30 <_vfprintf_internal+0x44>
   10e44:	92 10 00 1a 	mov  %i2, %o1
   10e48:	40 00 01 e9 	call  115ec <_ppfs_prepargs>
   10e4c:	90 10 00 11 	mov  %l1, %o0
   10e50:	82 07 be cc 	add  %fp, -308, %g1
   10e54:	35 0f ff ff 	sethi  %hi(0x3ffffc00), %i2
   10e58:	25 07 ff ff 	sethi  %hi(0x1ffffc00), %l2
   10e5c:	90 10 00 19 	mov  %i1, %o0
   10e60:	b0 10 20 00 	clr  %i0
   10e64:	c2 27 be c4 	st  %g1, [ %fp + -316 ]
   10e68:	aa 07 be c8 	add  %fp, -312, %l5
   10e6c:	a6 07 be e8 	add  %fp, -280, %l3
   10e70:	b4 16 a3 ff 	or  %i2, 0x3ff, %i2
   10e74:	a4 14 a3 ff 	or  %l2, 0x3ff, %l2
   10e78:	c2 0e 40 00 	ldub  [ %i1 ], %g1
   10e7c:	80 a0 60 00 	cmp  %g1, 0
   10e80:	02 80 00 04 	be  10e90 <_vfprintf_internal+0xa4>
   10e84:	80 a0 60 25 	cmp  %g1, 0x25
   10e88:	32 bf ff fc 	bne,a   10e78 <_vfprintf_internal+0x8c>
   10e8c:	b2 06 60 01 	inc  %i1
   10e90:	80 a6 40 08 	cmp  %i1, %o0
   10e94:	02 80 00 0b 	be  10ec0 <_vfprintf_internal+0xd4>
   10e98:	ba 26 40 08 	sub  %i1, %o0, %i5
   10e9c:	80 a7 60 00 	cmp  %i5, 0
   10ea0:	04 bf ff e4 	ble  10e30 <_vfprintf_internal+0x44>
   10ea4:	94 10 00 10 	mov  %l0, %o2
   10ea8:	40 00 25 c8 	call  1a5c8 <__stdio_fwrite>
   10eac:	92 10 00 1d 	mov  %i5, %o1
   10eb0:	80 a7 40 08 	cmp  %i5, %o0
   10eb4:	12 bf ff df 	bne  10e30 <_vfprintf_internal+0x44>
   10eb8:	01 00 00 00 	nop 
   10ebc:	b0 06 00 1d 	add  %i0, %i5, %i0
   10ec0:	c2 0e 40 00 	ldub  [ %i1 ], %g1
   10ec4:	80 a0 60 00 	cmp  %g1, 0
   10ec8:	02 80 01 7d 	be  114bc <_vfprintf_internal+0x6d0>
   10ecc:	90 06 60 01 	add  %i1, 1, %o0
   10ed0:	c2 0e 60 01 	ldub  [ %i1 + 1 ], %g1
   10ed4:	80 a0 60 25 	cmp  %g1, 0x25
   10ed8:	02 bf ff e8 	be  10e78 <_vfprintf_internal+0x8c>
   10edc:	b2 06 60 02 	add  %i1, 2, %i1
   10ee0:	d0 27 bf 68 	st  %o0, [ %fp + -152 ]
   10ee4:	c0 27 be c8 	clr  [ %fp + -312 ]
   10ee8:	40 00 02 59 	call  1184c <_ppfs_parsespec>
   10eec:	90 10 00 11 	mov  %l1, %o0
   10ef0:	40 00 01 ce 	call  11628 <_ppfs_setargs>
   10ef4:	90 10 00 11 	mov  %l1, %o0
   10ef8:	c2 07 bf 80 	ld  [ %fp + -128 ], %g1
   10efc:	c4 0f bf 8e 	ldub  [ %fp + -114 ], %g2
   10f00:	80 a0 60 00 	cmp  %g1, 0
   10f04:	04 80 00 05 	ble  10f18 <_vfprintf_internal+0x12c>
   10f08:	86 07 bf b8 	add  %fp, -72, %g3
   10f0c:	82 00 80 12 	add  %g2, %l2, %g1
   10f10:	83 28 60 03 	sll  %g1, 3, %g1
   10f14:	86 00 c0 01 	add  %g3, %g1, %g3
   10f18:	fa 07 bf 84 	ld  [ %fp + -124 ], %i5
   10f1c:	82 10 20 00 	clr  %g1
   10f20:	b8 07 be d4 	add  %fp, -300, %i4
   10f24:	89 28 60 03 	sll  %g1, 3, %g4
   10f28:	80 a0 40 1d 	cmp  %g1, %i5
   10f2c:	06 80 00 10 	bl  10f6c <_vfprintf_internal+0x180>
   10f30:	88 00 c0 04 	add  %g3, %g4, %g4
   10f34:	c2 07 bf 88 	ld  [ %fp + -120 ], %g1
   10f38:	80 a0 60 00 	cmp  %g1, 0
   10f3c:	12 80 00 10 	bne  10f7c <_vfprintf_internal+0x190>
   10f40:	80 a0 60 07 	cmp  %g1, 7
   10f44:	c2 07 be d4 	ld  [ %fp + -300 ], %g1
   10f48:	d2 07 bf 78 	ld  [ %fp + -136 ], %o1
   10f4c:	95 3e 20 1f 	sra  %i0, 0x1f, %o2
   10f50:	96 10 00 18 	mov  %i0, %o3
   10f54:	92 0a 6f 00 	and  %o1, 0xf00, %o1
   10f58:	40 00 26 d7 	call  1aab4 <_store_inttype>
   10f5c:	d0 00 40 00 	ld  [ %g1 ], %o0
   10f60:	f2 07 bf 68 	ld  [ %fp + -152 ], %i1
   10f64:	10 bf ff c5 	b  10e78 <_vfprintf_internal+0x8c>
   10f68:	90 10 00 19 	mov  %i1, %o0
   10f6c:	b7 28 60 02 	sll  %g1, 2, %i3
   10f70:	82 00 60 01 	inc  %g1
   10f74:	10 bf ff ec 	b  10f24 <_vfprintf_internal+0x138>
   10f78:	c8 26 c0 1c 	st  %g4, [ %i3 + %i4 ]
   10f7c:	18 80 00 b1 	bgu  11240 <_vfprintf_internal+0x454>
   10f80:	80 a0 60 0f 	cmp  %g1, 0xf
   10f84:	07 00 00 82 	sethi  %hi(0x20800), %g3
   10f88:	86 18 ff 3c 	xor  %g3, -196, %g3
   10f8c:	86 05 c0 03 	add  %l7, %g3, %g3
   10f90:	86 00 c0 01 	add  %g3, %g1, %g3
   10f94:	f8 08 ff ff 	ldub  [ %g3 + -1 ], %i4
   10f98:	80 a7 20 0a 	cmp  %i4, 0xa
   10f9c:	12 80 00 0a 	bne  10fc4 <_vfprintf_internal+0x1d8>
   10fa0:	ba 10 20 57 	mov  0x57, %i5
   10fa4:	c6 07 bf 78 	ld  [ %fp + -136 ], %g3
   10fa8:	80 88 e0 20 	btst  0x20, %g3
   10fac:	12 80 00 03 	bne  10fb8 <_vfprintf_internal+0x1cc>
   10fb0:	ba 10 20 2c 	mov  0x2c, %i5
   10fb4:	ba 10 20 57 	mov  0x57, %i5
   10fb8:	80 88 e0 40 	btst  0x40, %g3
   10fbc:	32 80 00 02 	bne,a   10fc4 <_vfprintf_internal+0x1d8>
   10fc0:	ba 17 60 80 	or  %i5, 0x80, %i5
   10fc4:	80 a0 60 05 	cmp  %g1, 5
   10fc8:	38 80 00 07 	bgu,a   10fe4 <_vfprintf_internal+0x1f8>
   10fcc:	b8 20 00 1c 	neg  %i4
   10fd0:	80 a0 60 03 	cmp  %g1, 3
   10fd4:	02 80 00 40 	be  110d4 <_vfprintf_internal+0x2e8>
   10fd8:	80 a0 60 01 	cmp  %g1, 1
   10fdc:	02 80 00 03 	be  10fe8 <_vfprintf_internal+0x1fc>
   10fe0:	b6 10 20 06 	mov  6, %i3
   10fe4:	b6 10 20 0b 	mov  0xb, %i3
   10fe8:	c6 07 bf 6c 	ld  [ %fp + -148 ], %g3
   10fec:	80 a0 e0 00 	cmp  %g3, 0
   10ff0:	16 80 00 03 	bge  10ffc <_vfprintf_internal+0x210>
   10ff4:	b2 10 20 20 	mov  0x20, %i1
   10ff8:	f2 0f bf 7f 	ldub  [ %fp + -129 ], %i1
   10ffc:	80 a0 60 01 	cmp  %g1, 1
   11000:	02 80 00 07 	be  1101c <_vfprintf_internal+0x230>
   11004:	90 10 24 00 	mov  0x400, %o0
   11008:	84 00 80 1a 	add  %g2, %i2, %g2
   1100c:	85 28 a0 02 	sll  %g2, 2, %g2
   11010:	84 07 80 02 	add  %fp, %g2, %g2
   11014:	d0 00 bf 90 	ld  [ %g2 + -112 ], %o0
   11018:	90 0a 2f 00 	and  %o0, 0xf00, %o0
   1101c:	94 10 00 1c 	mov  %i4, %o2
   11020:	40 00 26 7f 	call  1aa1c <_load_inttype>
   11024:	d2 07 be d4 	ld  [ %fp + -300 ], %o1
   11028:	98 10 00 1d 	mov  %i5, %o4
   1102c:	94 10 00 09 	mov  %o1, %o2
   11030:	a8 07 bf 67 	add  %fp, -153, %l4
   11034:	92 10 00 08 	mov  %o0, %o1
   11038:	96 10 00 1c 	mov  %i4, %o3
   1103c:	40 00 26 b1 	call  1ab00 <_uintmaxtostr>
   11040:	90 10 00 14 	mov  %l4, %o0
   11044:	c2 07 bf 88 	ld  [ %fp + -120 ], %g1
   11048:	80 a0 60 05 	cmp  %g1, 5
   1104c:	08 80 00 0a 	bleu  11074 <_vfprintf_internal+0x288>
   11050:	ba 10 00 08 	mov  %o0, %i5
   11054:	c4 0a 00 00 	ldub  [ %o0 ], %g2
   11058:	80 a0 a0 2d 	cmp  %g2, 0x2d
   1105c:	12 80 00 21 	bne  110e0 <_vfprintf_internal+0x2f4>
   11060:	c6 07 bf 78 	ld  [ %fp + -136 ], %g3
   11064:	86 10 e0 02 	or  %g3, 2, %g3
   11068:	ba 02 20 01 	add  %o0, 1, %i5
   1106c:	c6 27 bf 78 	st  %g3, [ %fp + -136 ]
   11070:	b6 10 20 02 	mov  2, %i3
   11074:	f8 07 bf 6c 	ld  [ %fp + -148 ], %i4
   11078:	80 a7 20 00 	cmp  %i4, 0
   1107c:	16 80 00 03 	bge  11088 <_vfprintf_internal+0x29c>
   11080:	a8 25 00 1d 	sub  %l4, %i5, %l4
   11084:	b8 10 20 01 	mov  1, %i4
   11088:	c6 07 bf 78 	ld  [ %fp + -136 ], %g3
   1108c:	80 88 e0 10 	btst  0x10, %g3
   11090:	02 80 00 1c 	be  11100 <_vfprintf_internal+0x314>
   11094:	c6 0f 40 00 	ldub  [ %i5 ], %g3
   11098:	80 a0 60 02 	cmp  %g1, 2
   1109c:	28 80 01 03 	bleu,a   114a8 <_vfprintf_internal+0x6bc>
   110a0:	b6 10 20 06 	mov  6, %i3
   110a4:	80 a0 60 03 	cmp  %g1, 3
   110a8:	22 80 01 00 	be,a   114a8 <_vfprintf_internal+0x6bc>
   110ac:	b6 10 20 09 	mov  9, %i3
   110b0:	80 a0 60 04 	cmp  %g1, 4
   110b4:	12 80 00 13 	bne  11100 <_vfprintf_internal+0x314>
   110b8:	80 a5 00 1c 	cmp  %l4, %i4
   110bc:	0a 80 00 12 	bcs  11104 <_vfprintf_internal+0x318>
   110c0:	80 a0 e0 30 	cmp  %g3, 0x30
   110c4:	12 80 00 1b 	bne  11130 <_vfprintf_internal+0x344>
   110c8:	b8 05 20 01 	add  %l4, 1, %i4
   110cc:	10 80 00 10 	b  1110c <_vfprintf_internal+0x320>
   110d0:	b8 10 20 01 	mov  1, %i4
   110d4:	b6 10 20 0b 	mov  0xb, %i3
   110d8:	10 bf ff c4 	b  10fe8 <_vfprintf_internal+0x1fc>
   110dc:	ba 10 20 37 	mov  0x37, %i5
   110e0:	80 88 e0 02 	btst  2, %g3
   110e4:	32 bf ff e4 	bne,a   11074 <_vfprintf_internal+0x288>
   110e8:	b6 10 20 00 	clr  %i3
   110ec:	80 88 e0 01 	btst  1, %g3
   110f0:	32 bf ff e1 	bne,a   11074 <_vfprintf_internal+0x288>
   110f4:	b6 10 20 04 	mov  4, %i3
   110f8:	10 bf ff e0 	b  11078 <_vfprintf_internal+0x28c>
   110fc:	f8 07 bf 6c 	ld  [ %fp + -148 ], %i4
   11100:	80 a0 e0 30 	cmp  %g3, 0x30
   11104:	12 80 00 0c 	bne  11134 <_vfprintf_internal+0x348>
   11108:	80 a7 00 14 	cmp  %i4, %l4
   1110c:	80 a6 e0 05 	cmp  %i3, 5
   11110:	04 80 00 04 	ble  11120 <_vfprintf_internal+0x334>
   11114:	80 a0 60 01 	cmp  %g1, 1
   11118:	b6 10 20 0b 	mov  0xb, %i3
   1111c:	80 a0 60 01 	cmp  %g1, 1
   11120:	02 80 00 42 	be  11228 <_vfprintf_internal+0x43c>
   11124:	80 a7 20 00 	cmp  %i4, 0
   11128:	22 80 00 44 	be,a   11238 <_vfprintf_internal+0x44c>
   1112c:	a8 10 20 00 	clr  %l4
   11130:	80 a7 00 14 	cmp  %i4, %l4
   11134:	28 80 00 03 	bleu,a   11140 <_vfprintf_internal+0x354>
   11138:	b8 10 20 00 	clr  %i4
   1113c:	b8 27 00 14 	sub  %i4, %l4, %i4
   11140:	80 a6 e0 0b 	cmp  %i3, 0xb
   11144:	02 80 00 07 	be  11160 <_vfprintf_internal+0x374>
   11148:	82 07 00 14 	add  %i4, %l4, %g1
   1114c:	80 a6 e0 05 	cmp  %i3, 5
   11150:	14 80 00 03 	bg  1115c <_vfprintf_internal+0x370>
   11154:	86 10 20 02 	mov  2, %g3
   11158:	86 10 20 01 	mov  1, %g3
   1115c:	82 00 40 03 	add  %g1, %g3, %g1
   11160:	c6 07 bf 70 	ld  [ %fp + -144 ], %g3
   11164:	80 a0 c0 01 	cmp  %g3, %g1
   11168:	08 80 00 03 	bleu  11174 <_vfprintf_internal+0x388>
   1116c:	ac 10 20 00 	clr  %l6
   11170:	ac 20 c0 01 	sub  %g3, %g1, %l6
   11174:	82 06 00 01 	add  %i0, %g1, %g1
   11178:	b2 0e 60 ff 	and  %i1, 0xff, %i1
   1117c:	80 a6 60 30 	cmp  %i1, 0x30
   11180:	12 80 00 04 	bne  11190 <_vfprintf_internal+0x3a4>
   11184:	b0 00 40 16 	add  %g1, %l6, %i0
   11188:	b8 07 00 16 	add  %i4, %l6, %i4
   1118c:	ac 10 20 00 	clr  %l6
   11190:	c2 07 bf 78 	ld  [ %fp + -136 ], %g1
   11194:	80 88 60 08 	btst  8, %g1
   11198:	12 80 00 0a 	bne  111c0 <_vfprintf_internal+0x3d4>
   1119c:	92 10 00 10 	mov  %l0, %o1
   111a0:	94 10 00 16 	mov  %l6, %o2
   111a4:	92 10 20 20 	mov  0x20, %o1
   111a8:	7f ff fe e2 	call  10d30 <_charpad>
   111ac:	90 10 00 10 	mov  %l0, %o0
   111b0:	80 a5 80 08 	cmp  %l6, %o0
   111b4:	12 bf ff 1f 	bne  10e30 <_vfprintf_internal+0x44>
   111b8:	ac 10 20 00 	clr  %l6
   111bc:	92 10 00 10 	mov  %l0, %o1
   111c0:	11 00 00 81 	sethi  %hi(0x20400), %o0
   111c4:	90 1a 3f 2c 	xor  %o0, -212, %o0
   111c8:	90 05 c0 08 	add  %l7, %o0, %o0
   111cc:	40 00 04 d2 	call  12514 <__GI_fputs_unlocked>
   111d0:	90 02 00 1b 	add  %o0, %i3, %o0
   111d4:	94 10 00 1c 	mov  %i4, %o2
   111d8:	92 10 20 30 	mov  0x30, %o1
   111dc:	7f ff fe d5 	call  10d30 <_charpad>
   111e0:	90 10 00 10 	mov  %l0, %o0
   111e4:	80 a7 00 08 	cmp  %i4, %o0
   111e8:	12 bf ff 12 	bne  10e30 <_vfprintf_internal+0x44>
   111ec:	c2 07 be c8 	ld  [ %fp + -312 ], %g1
   111f0:	80 a0 60 00 	cmp  %g1, 0
   111f4:	32 80 00 97 	bne,a   11450 <_vfprintf_internal+0x664>
   111f8:	c0 27 be cc 	clr  [ %fp + -308 ]
   111fc:	80 a5 20 00 	cmp  %l4, 0
   11200:	12 80 00 8d 	bne  11434 <_vfprintf_internal+0x648>
   11204:	94 10 00 10 	mov  %l0, %o2
   11208:	94 10 00 16 	mov  %l6, %o2
   1120c:	92 10 20 20 	mov  0x20, %o1
   11210:	7f ff fe c8 	call  10d30 <_charpad>
   11214:	90 10 00 10 	mov  %l0, %o0
   11218:	80 a5 80 08 	cmp  %l6, %o0
   1121c:	22 bf ff 52 	be,a   10f64 <_vfprintf_internal+0x178>
   11220:	f2 07 bf 68 	ld  [ %fp + -152 ], %i1
   11224:	30 bf ff 03 	b,a   10e30 <_vfprintf_internal+0x44>
   11228:	3b 00 00 82 	sethi  %hi(0x20800), %i5
   1122c:	a8 10 20 05 	mov  5, %l4
   11230:	ba 1f 7f 2c 	xor  %i5, -212, %i5
   11234:	ba 05 c0 1d 	add  %l7, %i5, %i5
   11238:	10 bf ff c2 	b  11140 <_vfprintf_internal+0x354>
   1123c:	b8 10 20 00 	clr  %i4
   11240:	18 80 00 10 	bgu  11280 <_vfprintf_internal+0x494>
   11244:	80 a0 60 11 	cmp  %g1, 0x11
   11248:	c2 07 be d4 	ld  [ %fp + -300 ], %g1
   1124c:	19 00 00 bc 	sethi  %hi(0x2f000), %o4
   11250:	96 07 bf 6c 	add  %fp, -148, %o3
   11254:	98 1b 3e a4 	xor  %o4, -348, %o4
   11258:	d2 00 40 00 	ld  [ %g1 ], %o1
   1125c:	98 05 c0 0c 	add  %l7, %o4, %o4
   11260:	d4 00 60 04 	ld  [ %g1 + 4 ], %o2
   11264:	40 00 26 9c 	call  1acd4 <_fpmaxtostr>
   11268:	90 10 00 10 	mov  %l0, %o0
   1126c:	80 a2 20 00 	cmp  %o0, 0
   11270:	06 bf fe f0 	bl  10e30 <_vfprintf_internal+0x44>
   11274:	01 00 00 00 	nop 
   11278:	10 bf ff 3a 	b  10f60 <_vfprintf_internal+0x174>
   1127c:	b0 06 00 08 	add  %i0, %o0, %i0
   11280:	38 80 00 24 	bgu,a   11310 <_vfprintf_internal+0x524>
   11284:	80 a0 60 13 	cmp  %g1, 0x13
   11288:	c0 27 be cc 	clr  [ %fp + -308 ]
   1128c:	12 80 00 16 	bne  112e4 <_vfprintf_internal+0x4f8>
   11290:	c2 07 be d4 	ld  [ %fp + -300 ], %g1
   11294:	c4 00 40 00 	ld  [ %g1 ], %g2
   11298:	c4 27 be c8 	st  %g2, [ %fp + -312 ]
   1129c:	80 a0 a0 00 	cmp  %g2, 0
   112a0:	02 80 00 2d 	be  11354 <_vfprintf_internal+0x568>
   112a4:	c2 07 bf 6c 	ld  [ %fp + -148 ], %g1
   112a8:	80 a0 60 00 	cmp  %g1, 0
   112ac:	06 80 00 03 	bl  112b8 <_vfprintf_internal+0x4cc>
   112b0:	94 10 3f ff 	mov  -1, %o2
   112b4:	94 10 00 01 	mov  %g1, %o2
   112b8:	92 07 be c8 	add  %fp, -312, %o1
   112bc:	96 07 be cc 	add  %fp, -308, %o3
   112c0:	40 00 23 c0 	call  1a1c0 <__GI_wcsrtombs>
   112c4:	90 10 00 09 	mov  %o1, %o0
   112c8:	80 a2 3f ff 	cmp  %o0, -1
   112cc:	02 bf fe d9 	be  10e30 <_vfprintf_internal+0x44>
   112d0:	a8 10 00 08 	mov  %o0, %l4
   112d4:	ba 10 20 00 	clr  %i5
   112d8:	b2 10 20 20 	mov  0x20, %i1
   112dc:	10 bf ff d7 	b  11238 <_vfprintf_internal+0x44c>
   112e0:	b6 10 20 0b 	mov  0xb, %i3
   112e4:	ba 07 be e8 	add  %fp, -280, %i5
   112e8:	94 07 be cc 	add  %fp, -308, %o2
   112ec:	d2 00 40 00 	ld  [ %g1 ], %o1
   112f0:	40 00 23 95 	call  1a144 <__GI_wcrtomb>
   112f4:	90 10 00 1d 	mov  %i5, %o0
   112f8:	80 a2 3f ff 	cmp  %o0, -1
   112fc:	02 bf fe cd 	be  10e30 <_vfprintf_internal+0x44>
   11300:	a8 10 00 08 	mov  %o0, %l4
   11304:	82 07 80 08 	add  %fp, %o0, %g1
   11308:	10 bf ff f4 	b  112d8 <_vfprintf_internal+0x4ec>
   1130c:	c0 28 7e e8 	clrb  [ %g1 + -280 ]
   11310:	38 80 00 24 	bgu,a   113a0 <_vfprintf_internal+0x5b4>
   11314:	80 a0 60 14 	cmp  %g1, 0x14
   11318:	c2 07 be d4 	ld  [ %fp + -300 ], %g1
   1131c:	12 80 00 19 	bne  11380 <_vfprintf_internal+0x594>
   11320:	fa 00 40 00 	ld  [ %g1 ], %i5
   11324:	80 a7 60 00 	cmp  %i5, 0
   11328:	02 80 00 0b 	be  11354 <_vfprintf_internal+0x568>
   1132c:	c2 07 bf 6c 	ld  [ %fp + -148 ], %g1
   11330:	c2 07 bf 6c 	ld  [ %fp + -148 ], %g1
   11334:	80 a0 60 00 	cmp  %g1, 0
   11338:	06 80 00 03 	bl  11344 <_vfprintf_internal+0x558>
   1133c:	92 10 3f ff 	mov  -1, %o1
   11340:	92 10 00 01 	mov  %g1, %o1
   11344:	40 00 0b cd 	call  14278 <__GI_strnlen>
   11348:	90 10 00 1d 	mov  %i5, %o0
   1134c:	10 bf ff e3 	b  112d8 <_vfprintf_internal+0x4ec>
   11350:	a8 10 00 08 	mov  %o0, %l4
   11354:	3b 00 00 82 	sethi  %hi(0x20800), %i5
   11358:	b2 10 20 20 	mov  0x20, %i1
   1135c:	ba 1f 7f 34 	xor  %i5, -204, %i5
   11360:	b6 10 20 0b 	mov  0xb, %i3
   11364:	b8 10 20 00 	clr  %i4
   11368:	a8 10 20 06 	mov  6, %l4
   1136c:	80 a0 60 05 	cmp  %g1, 5
   11370:	18 bf ff 74 	bgu  11140 <_vfprintf_internal+0x354>
   11374:	ba 05 c0 1d 	add  %l7, %i5, %i5
   11378:	10 bf ff 72 	b  11140 <_vfprintf_internal+0x354>
   1137c:	a8 10 20 00 	clr  %l4
   11380:	fa 2f be e8 	stb  %i5, [ %fp + -280 ]
   11384:	c0 2f be e9 	clrb  [ %fp + -279 ]
   11388:	ba 07 be e8 	add  %fp, -280, %i5
   1138c:	b2 10 20 20 	mov  0x20, %i1
   11390:	b6 10 20 0b 	mov  0xb, %i3
   11394:	b8 10 20 00 	clr  %i4
   11398:	10 bf ff 6a 	b  11140 <_vfprintf_internal+0x354>
   1139c:	a8 10 20 01 	mov  1, %l4
   113a0:	12 80 00 0b 	bne  113cc <_vfprintf_internal+0x5e0>
   113a4:	03 00 00 00 	sethi  %hi(0), %g1
   113a8:	03 00 00 00 	sethi  %hi(0), %g1
   113ac:	82 18 7f f8 	xor  %g1, -8, %g1
   113b0:	01 00 00 00 	nop 
   113b4:	94 10 20 80 	mov  0x80, %o2	! 80 <__libc_h_errno+0x7c>
   113b8:	92 07 be e8 	add  %fp, -280, %o1
   113bc:	40 00 0b e7 	call  14358 <__GI___glibc_strerror_r>
   113c0:	d0 01 c0 01 	ld  [ %g7 + %g1 ], %o0
   113c4:	10 bf ff db 	b  11330 <_vfprintf_internal+0x544>
   113c8:	ba 10 00 08 	mov  %o0, %i5
   113cc:	82 18 61 54 	xor  %g1, 0x154, %g1
   113d0:	82 05 c0 01 	add  %l7, %g1, %g1
   113d4:	c8 07 bf 74 	ld  [ %fp + -140 ], %g4
   113d8:	c6 00 40 00 	ld  [ %g1 ], %g3
   113dc:	84 00 e0 0a 	add  %g3, 0xa, %g2
   113e0:	82 10 00 03 	mov  %g3, %g1
   113e4:	fa 08 40 00 	ldub  [ %g1 ], %i5
   113e8:	80 a7 40 04 	cmp  %i5, %g4
   113ec:	32 80 00 0e 	bne,a   11424 <_vfprintf_internal+0x638>
   113f0:	82 00 60 01 	inc  %g1
   113f4:	05 00 00 09 	sethi  %hi(0x2400), %g2
   113f8:	84 18 a3 d8 	xor  %g2, 0x3d8, %g2
   113fc:	84 05 c0 02 	add  %l7, %g2, %g2
   11400:	82 20 40 03 	sub  %g1, %g3, %g1
   11404:	94 07 be d4 	add  %fp, -300, %o2
   11408:	83 28 60 02 	sll  %g1, 2, %g1
   1140c:	92 07 bf 6c 	add  %fp, -148, %o1
   11410:	c2 00 80 01 	ld  [ %g2 + %g1 ], %g1
   11414:	9f c0 40 00 	call  %g1
   11418:	90 10 00 10 	mov  %l0, %o0
   1141c:	10 bf ff 95 	b  11270 <_vfprintf_internal+0x484>
   11420:	80 a2 20 00 	cmp  %o0, 0
   11424:	80 a0 40 02 	cmp  %g1, %g2
   11428:	32 bf ff f0 	bne,a   113e8 <_vfprintf_internal+0x5fc>
   1142c:	fa 08 40 00 	ldub  [ %g1 ], %i5
   11430:	30 bf fe 80 	b,a   10e30 <_vfprintf_internal+0x44>
   11434:	92 10 00 14 	mov  %l4, %o1
   11438:	40 00 24 64 	call  1a5c8 <__stdio_fwrite>
   1143c:	90 10 00 1d 	mov  %i5, %o0
   11440:	80 a5 00 08 	cmp  %l4, %o0
   11444:	02 bf ff 72 	be  1120c <_vfprintf_internal+0x420>
   11448:	94 10 00 16 	mov  %l6, %o2
   1144c:	30 bf fe 79 	b,a   10e30 <_vfprintf_internal+0x44>
   11450:	80 a5 20 00 	cmp  %l4, 0
   11454:	02 bf ff 6d 	be  11208 <_vfprintf_internal+0x41c>
   11458:	80 a5 20 80 	cmp  %l4, 0x80
   1145c:	08 80 00 03 	bleu  11468 <_vfprintf_internal+0x67c>
   11460:	94 10 00 14 	mov  %l4, %o2
   11464:	94 10 20 80 	mov  0x80, %o2
   11468:	d6 07 be c4 	ld  [ %fp + -316 ], %o3
   1146c:	92 10 00 15 	mov  %l5, %o1
   11470:	40 00 23 54 	call  1a1c0 <__GI_wcsrtombs>
   11474:	90 10 00 13 	mov  %l3, %o0
   11478:	ba 92 20 00 	orcc  %o0, 0, %i5
   1147c:	12 80 00 04 	bne  1148c <_vfprintf_internal+0x6a0>
   11480:	94 10 00 10 	mov  %l0, %o2
   11484:	10 bf ff f3 	b  11450 <_vfprintf_internal+0x664>
   11488:	a8 25 00 1d 	sub  %l4, %i5, %l4
   1148c:	92 10 00 1d 	mov  %i5, %o1
   11490:	40 00 24 4e 	call  1a5c8 <__stdio_fwrite>
   11494:	90 10 00 13 	mov  %l3, %o0
   11498:	80 a7 40 08 	cmp  %i5, %o0
   1149c:	22 bf ff ed 	be,a   11450 <_vfprintf_internal+0x664>
   114a0:	a8 25 00 1d 	sub  %l4, %i5, %l4
   114a4:	30 bf fe 63 	b,a   10e30 <_vfprintf_internal+0x44>
   114a8:	80 a0 e0 30 	cmp  %g3, 0x30
   114ac:	12 bf ff 22 	bne  11134 <_vfprintf_internal+0x348>
   114b0:	80 a7 00 14 	cmp  %i4, %l4
   114b4:	10 bf ff 1a 	b  1111c <_vfprintf_internal+0x330>
   114b8:	b6 10 20 0b 	mov  0xb, %i3
   114bc:	81 c7 e0 08 	ret 
   114c0:	81 e8 00 00 	restore 

000114c4 <_ppfs_init>:
   114c4:	9d e3 bf 90 	save  %sp, -112, %sp
   114c8:	94 10 20 98 	mov  0x98, %o2
   114cc:	92 10 20 00 	clr  %o1
   114d0:	40 00 0a 03 	call  13cdc <__GI_memset>
   114d4:	90 10 00 18 	mov  %i0, %o0
   114d8:	c2 06 20 18 	ld  [ %i0 + 0x18 ], %g1
   114dc:	82 00 7f ff 	add  %g1, -1, %g1
   114e0:	f2 26 00 00 	st  %i1, [ %i0 ]
   114e4:	40 00 23 03 	call  1a0f0 <__GI___curlocale>
   114e8:	c2 26 20 18 	st  %g1, [ %i0 + 0x18 ]
   114ec:	2f 00 00 ba 	sethi  %hi(0x2e800), %l7
   114f0:	7f ff fc cd 	call  10824 <__sparc_get_pc_thunk.l7>
   114f4:	ae 05 e1 dc 	add  %l7, 0x1dc, %l7	! 2e9dc <__FRAME_END__+0x62e4>
   114f8:	c2 0a 29 2c 	ldub  [ %o0 + 0x92c ], %g1
   114fc:	80 a0 60 00 	cmp  %g1, 0
   11500:	02 80 00 12 	be  11548 <_ppfs_init+0x84>
   11504:	ba 06 20 28 	add  %i0, 0x28, %i5
   11508:	c0 27 bf f8 	clr  [ %fp + -8 ]
   1150c:	f2 27 bf f4 	st  %i1, [ %fp + -12 ]
   11510:	96 07 bf f8 	add  %fp, -8, %o3
   11514:	94 10 3f ff 	mov  -1, %o2
   11518:	92 07 bf f4 	add  %fp, -12, %o1
   1151c:	40 00 23 1d 	call  1a190 <__GI_mbsrtowcs>
   11520:	90 10 20 00 	clr  %o0
   11524:	80 a2 3f ff 	cmp  %o0, -1
   11528:	12 80 00 08 	bne  11548 <_ppfs_init+0x84>
   1152c:	ba 06 20 28 	add  %i0, 0x28, %i5
   11530:	03 00 00 82 	sethi  %hi(0x20800), %g1
   11534:	82 18 7f 44 	xor  %g1, -188, %g1
   11538:	ae 05 c0 01 	add  %l7, %g1, %l7
   1153c:	ee 26 00 00 	st  %l7, [ %i0 ]
   11540:	81 c7 e0 08 	ret 
   11544:	91 e8 3f ff 	restore  %g0, -1, %o0
   11548:	84 06 20 4c 	add  %i0, 0x4c, %g2
   1154c:	82 10 00 1d 	mov  %i5, %g1
   11550:	86 10 20 08 	mov  8, %g3
   11554:	c6 20 40 00 	st  %g3, [ %g1 ]
   11558:	82 00 60 04 	add  %g1, 4, %g1
   1155c:	80 a0 40 02 	cmp  %g1, %g2
   11560:	32 bf ff fe 	bne,a   11558 <_ppfs_init+0x94>
   11564:	c6 20 40 00 	st  %g3, [ %g1 ]
   11568:	82 10 00 19 	mov  %i1, %g1
   1156c:	c6 08 40 00 	ldub  [ %g1 ], %g3
   11570:	80 a0 e0 00 	cmp  %g3, 0
   11574:	12 80 00 09 	bne  11598 <_ppfs_init+0xd4>
   11578:	80 a0 e0 25 	cmp  %g3, 0x25
   1157c:	f2 26 00 00 	st  %i1, [ %i0 ]
   11580:	c2 06 20 18 	ld  [ %i0 + 0x18 ], %g1
   11584:	82 80 7f ff 	addcc  %g1, -1, %g1
   11588:	3c 80 00 14 	bpos,a   115d8 <_ppfs_init+0x114>
   1158c:	c4 07 40 00 	ld  [ %i5 ], %g2
   11590:	81 c7 e0 08 	ret 
   11594:	91 e8 20 00 	restore  %g0, 0, %o0
   11598:	12 80 00 0e 	bne  115d0 <_ppfs_init+0x10c>
   1159c:	c4 08 60 01 	ldub  [ %g1 + 1 ], %g2
   115a0:	84 08 a0 ff 	and  %g2, 0xff, %g2
   115a4:	80 a0 a0 25 	cmp  %g2, 0x25
   115a8:	02 80 00 0a 	be  115d0 <_ppfs_init+0x10c>
   115ac:	82 00 60 01 	inc  %g1
   115b0:	c2 26 00 00 	st  %g1, [ %i0 ]
   115b4:	40 00 00 a6 	call  1184c <_ppfs_parsespec>
   115b8:	90 10 00 18 	mov  %i0, %o0
   115bc:	80 a2 20 00 	cmp  %o0, 0
   115c0:	06 bf ff e0 	bl  11540 <_ppfs_init+0x7c>
   115c4:	01 00 00 00 	nop 
   115c8:	10 bf ff e9 	b  1156c <_ppfs_init+0xa8>
   115cc:	c2 06 00 00 	ld  [ %i0 ], %g1
   115d0:	10 bf ff e7 	b  1156c <_ppfs_init+0xa8>
   115d4:	82 00 60 01 	inc  %g1
   115d8:	80 a0 a0 08 	cmp  %g2, 8
   115dc:	02 bf ff d9 	be  11540 <_ppfs_init+0x7c>
   115e0:	ba 07 60 04 	add  %i5, 4, %i5
   115e4:	10 bf ff e9 	b  11588 <_ppfs_init+0xc4>
   115e8:	82 80 7f ff 	addcc  %g1, -1, %g1

000115ec <_ppfs_prepargs>:
   115ec:	9d e3 bf a0 	save  %sp, -96, %sp
   115f0:	f2 26 20 4c 	st  %i1, [ %i0 + 0x4c ]
   115f4:	fa 06 20 18 	ld  [ %i0 + 0x18 ], %i5
   115f8:	80 a7 60 00 	cmp  %i5, 0
   115fc:	04 80 00 09 	ble  11620 <_ppfs_prepargs+0x34>
   11600:	01 00 00 00 	nop 
   11604:	fa 26 20 1c 	st  %i5, [ %i0 + 0x1c ]
   11608:	c0 26 20 18 	clr  [ %i0 + 0x18 ]
   1160c:	c0 26 20 04 	clr  [ %i0 + 4 ]
   11610:	c0 26 20 08 	clr  [ %i0 + 8 ]
   11614:	40 00 00 05 	call  11628 <_ppfs_setargs>
   11618:	90 10 00 18 	mov  %i0, %o0
   1161c:	fa 26 20 18 	st  %i5, [ %i0 + 0x18 ]
   11620:	81 c7 e0 08 	ret 
   11624:	81 e8 00 00 	restore 

00011628 <_ppfs_setargs>:
   11628:	9d e3 bf 88 	save  %sp, -120, %sp
   1162c:	03 20 00 00 	sethi  %hi(0x80000000), %g1
   11630:	e2 06 20 18 	ld  [ %i0 + 0x18 ], %l1
   11634:	b8 06 20 50 	add  %i0, 0x50, %i4
   11638:	c6 06 20 08 	ld  [ %i0 + 8 ], %g3
   1163c:	80 a4 60 00 	cmp  %l1, 0
   11640:	12 80 00 5a 	bne  117a8 <_ppfs_setargs+0x180>
   11644:	c4 06 20 04 	ld  [ %i0 + 4 ], %g2
   11648:	80 a0 c0 01 	cmp  %g3, %g1
   1164c:	12 80 00 0a 	bne  11674 <_ppfs_setargs+0x4c>
   11650:	80 a0 80 01 	cmp  %g2, %g1
   11654:	c2 06 20 4c 	ld  [ %i0 + 0x4c ], %g1
   11658:	c6 00 40 00 	ld  [ %g1 ], %g3
   1165c:	82 00 60 04 	add  %g1, 4, %g1
   11660:	c6 26 20 50 	st  %g3, [ %i0 + 0x50 ]
   11664:	c2 26 20 4c 	st  %g1, [ %i0 + 0x4c ]
   11668:	c6 26 20 08 	st  %g3, [ %i0 + 8 ]
   1166c:	03 20 00 00 	sethi  %hi(0x80000000), %g1
   11670:	80 a0 80 01 	cmp  %g2, %g1
   11674:	12 80 00 08 	bne  11694 <_ppfs_setargs+0x6c>
   11678:	b6 06 20 24 	add  %i0, 0x24, %i3
   1167c:	c2 06 20 4c 	ld  [ %i0 + 0x4c ], %g1
   11680:	c4 00 40 00 	ld  [ %g1 ], %g2
   11684:	82 00 60 04 	add  %g1, 4, %g1
   11688:	c4 26 20 50 	st  %g2, [ %i0 + 0x50 ]
   1168c:	c2 26 20 4c 	st  %g1, [ %i0 + 0x4c ]
   11690:	c4 26 20 04 	st  %g2, [ %i0 + 4 ]
   11694:	b4 07 bf e8 	add  %fp, -24, %i2
   11698:	b2 07 bf f8 	add  %fp, -8, %i1
   1169c:	a0 07 bf f0 	add  %fp, -16, %l0
   116a0:	c2 06 20 1c 	ld  [ %i0 + 0x1c ], %g1
   116a4:	80 a0 40 11 	cmp  %g1, %l1
   116a8:	34 80 00 0f 	bg,a   116e4 <_ppfs_setargs+0xbc>
   116ac:	a2 04 60 01 	inc  %l1
   116b0:	c2 06 20 08 	ld  [ %i0 + 8 ], %g1
   116b4:	80 a0 60 00 	cmp  %g1, 0
   116b8:	16 80 00 09 	bge  116dc <_ppfs_setargs+0xb4>
   116bc:	82 20 00 01 	neg  %g1
   116c0:	c2 26 20 08 	st  %g1, [ %i0 + 8 ]
   116c4:	c2 06 20 10 	ld  [ %i0 + 0x10 ], %g1
   116c8:	82 08 7f fe 	and  %g1, -2, %g1
   116cc:	82 10 60 08 	or  %g1, 8, %g1
   116d0:	c2 26 20 10 	st  %g1, [ %i0 + 0x10 ]
   116d4:	82 10 20 20 	mov  0x20, %g1
   116d8:	c2 26 20 14 	st  %g1, [ %i0 + 0x14 ]
   116dc:	81 c7 e0 08 	ret 
   116e0:	81 e8 00 00 	restore 
   116e4:	83 2c 60 02 	sll  %l1, 2, %g1
   116e8:	c2 06 c0 01 	ld  [ %i3 + %g1 ], %g1
   116ec:	80 a0 60 08 	cmp  %g1, 8
   116f0:	22 bf ff ed 	be,a   116a4 <_ppfs_setargs+0x7c>
   116f4:	c2 06 20 1c 	ld  [ %i0 + 0x1c ], %g1
   116f8:	14 80 00 16 	bg  11750 <_ppfs_setargs+0x128>
   116fc:	fa 06 20 4c 	ld  [ %i0 + 0x4c ], %i5
   11700:	80 a0 60 02 	cmp  %g1, 2
   11704:	22 80 00 05 	be,a   11718 <_ppfs_setargs+0xf0>
   11708:	c2 07 40 00 	ld  [ %i5 ], %g1
   1170c:	14 80 00 07 	bg  11728 <_ppfs_setargs+0x100>
   11710:	80 a0 60 07 	cmp  %g1, 7
   11714:	c2 07 40 00 	ld  [ %i5 ], %g1
   11718:	ba 07 60 04 	add  %i5, 4, %i5
   1171c:	fa 26 20 4c 	st  %i5, [ %i0 + 0x4c ]
   11720:	10 80 00 20 	b  117a0 <_ppfs_setargs+0x178>
   11724:	c2 27 00 00 	st  %g1, [ %i4 ]
   11728:	12 bf ff fb 	bne  11714 <_ppfs_setargs+0xec>
   1172c:	92 10 00 1d 	mov  %i5, %o1
   11730:	94 10 20 08 	mov  8, %o2
   11734:	40 00 05 40 	call  12c34 <__GI_memcpy>
   11738:	90 10 00 10 	mov  %l0, %o0
   1173c:	ba 07 60 08 	add  %i5, 8, %i5
   11740:	d1 1f bf f0 	ldd  [ %fp + -16 ], %f8
   11744:	fa 26 20 4c 	st  %i5, [ %i0 + 0x4c ]
   11748:	10 80 00 16 	b  117a0 <_ppfs_setargs+0x178>
   1174c:	d1 3f 00 00 	std  %f8, [ %i4 ]
   11750:	80 a0 68 00 	cmp  %g1, 0x800
   11754:	02 80 00 0c 	be  11784 <_ppfs_setargs+0x15c>
   11758:	92 10 00 1d 	mov  %i5, %o1
   1175c:	04 bf ff ee 	ble  11714 <_ppfs_setargs+0xec>
   11760:	80 a0 68 07 	cmp  %g1, 0x807
   11764:	12 bf ff ec 	bne  11714 <_ppfs_setargs+0xec>
   11768:	94 10 20 08 	mov  8, %o2
   1176c:	40 00 05 32 	call  12c34 <__GI_memcpy>
   11770:	90 10 00 19 	mov  %i1, %o0
   11774:	ba 07 60 08 	add  %i5, 8, %i5
   11778:	d1 1f bf f8 	ldd  [ %fp + -8 ], %f8
   1177c:	10 bf ff f3 	b  11748 <_ppfs_setargs+0x120>
   11780:	fa 26 20 4c 	st  %i5, [ %i0 + 0x4c ]
   11784:	94 10 20 08 	mov  8, %o2
   11788:	90 10 00 1a 	mov  %i2, %o0
   1178c:	40 00 05 2a 	call  12c34 <__GI_memcpy>
   11790:	ba 07 60 08 	add  %i5, 8, %i5
   11794:	fa 26 20 4c 	st  %i5, [ %i0 + 0x4c ]
   11798:	c4 1f bf e8 	ldd  [ %fp + -24 ], %g2
   1179c:	c4 3f 00 00 	std  %g2, [ %i4 ]
   117a0:	10 bf ff c0 	b  116a0 <_ppfs_setargs+0x78>
   117a4:	b8 07 20 08 	add  %i4, 8, %i4
   117a8:	80 a0 c0 01 	cmp  %g3, %g1
   117ac:	12 80 00 08 	bne  117cc <_ppfs_setargs+0x1a4>
   117b0:	03 20 00 00 	sethi  %hi(0x80000000), %g1
   117b4:	c2 0e 20 24 	ldub  [ %i0 + 0x24 ], %g1
   117b8:	83 28 60 03 	sll  %g1, 3, %g1
   117bc:	82 00 7f f8 	add  %g1, -8, %g1
   117c0:	c2 07 00 01 	ld  [ %i4 + %g1 ], %g1
   117c4:	c2 26 20 08 	st  %g1, [ %i0 + 8 ]
   117c8:	03 20 00 00 	sethi  %hi(0x80000000), %g1
   117cc:	80 a0 80 01 	cmp  %g2, %g1
   117d0:	32 bf ff b9 	bne,a   116b4 <_ppfs_setargs+0x8c>
   117d4:	c2 06 20 08 	ld  [ %i0 + 8 ], %g1
   117d8:	c2 0e 20 25 	ldub  [ %i0 + 0x25 ], %g1
   117dc:	83 28 60 03 	sll  %g1, 3, %g1
   117e0:	82 00 7f f8 	add  %g1, -8, %g1
   117e4:	c2 07 00 01 	ld  [ %i4 + %g1 ], %g1
   117e8:	10 bf ff b2 	b  116b0 <_ppfs_setargs+0x88>
   117ec:	c2 26 20 04 	st  %g1, [ %i0 + 4 ]

000117f0 <_promoted_size>:
   117f0:	9d e3 bf a0 	save  %sp, -96, %sp
   117f4:	2f 00 00 b9 	sethi  %hi(0x2e400), %l7
   117f8:	7f ff fc 0b 	call  10824 <__sparc_get_pc_thunk.l7>
   117fc:	ae 05 e2 d4 	add  %l7, 0x2d4, %l7	! 2e6d4 <__FRAME_END__+0x5fdc>
   11800:	05 00 00 81 	sethi  %hi(0x20400), %g2
   11804:	84 18 bf 90 	xor  %g2, -112, %g2
   11808:	84 05 c0 02 	add  %l7, %g2, %g2
   1180c:	82 00 a0 18 	add  %g2, 0x18, %g1
   11810:	82 00 7f fe 	add  %g1, -2, %g1
   11814:	c6 50 40 00 	ldsh  [ %g1 ], %g3
   11818:	80 a0 c0 18 	cmp  %g3, %i0
   1181c:	02 80 00 04 	be  1182c <_promoted_size+0x3c>
   11820:	80 a0 80 01 	cmp  %g2, %g1
   11824:	2a bf ff fc 	bcs,a   11814 <_promoted_size+0x24>
   11828:	82 00 7f fe 	add  %g1, -2, %g1
   1182c:	82 20 40 02 	sub  %g1, %g2, %g1
   11830:	07 00 00 81 	sethi  %hi(0x20400), %g3
   11834:	83 38 60 01 	sra  %g1, 1, %g1
   11838:	86 18 ff 84 	xor  %g3, -124, %g3
   1183c:	ae 05 c0 03 	add  %l7, %g3, %l7
   11840:	f0 0d c0 01 	ldub  [ %l7 + %g1 ], %i0
   11844:	81 c7 e0 08 	ret 
   11848:	81 e8 00 00 	restore 

0001184c <_ppfs_parsespec>:
   1184c:	9d e3 bf 58 	save  %sp, -168, %sp
   11850:	82 10 20 08 	mov  8, %g1
   11854:	c0 27 bf b8 	clr  [ %fp + -72 ]
   11858:	c2 27 bf c4 	st  %g1, [ %fp + -60 ]
   1185c:	c2 27 bf c8 	st  %g1, [ %fp + -56 ]
   11860:	c0 27 bf bc 	clr  [ %fp + -68 ]
   11864:	c2 06 20 10 	ld  [ %i0 + 0x10 ], %g1
   11868:	2f 00 00 b9 	sethi  %hi(0x2e400), %l7
   1186c:	7f ff fb ee 	call  10824 <__sparc_get_pc_thunk.l7>
   11870:	ae 05 e2 60 	add  %l7, 0x260, %l7	! 2e660 <__FRAME_END__+0x5f68>
   11874:	f4 06 20 18 	ld  [ %i0 + 0x18 ], %i2
   11878:	80 88 60 80 	btst  0x80, %g1
   1187c:	12 80 00 39 	bne  11960 <_ppfs_parsespec+0x114>
   11880:	fa 06 00 00 	ld  [ %i0 ], %i5
   11884:	b6 10 20 00 	clr  %i3
   11888:	40 00 22 0a 	call  1a0b0 <__GI___ctype_b_loc>
   1188c:	b2 10 20 00 	clr  %i1
   11890:	1b 03 33 33 	sethi  %hi(0xccccc00), %o5
   11894:	19 1f ff ff 	sethi  %hi(0x7ffffc00), %o4
   11898:	92 13 60 cb 	or  %o5, 0xcb, %o1
   1189c:	d4 02 00 00 	ld  [ %o0 ], %o2
   118a0:	9e 10 20 00 	clr  %o7
   118a4:	98 13 23 ff 	or  %o4, 0x3ff, %o4
   118a8:	9a 13 60 cc 	or  %o5, 0xcc, %o5
   118ac:	17 20 00 00 	sethi  %hi(0x80000000), %o3
   118b0:	c2 0f 40 00 	ldub  [ %i5 ], %g1
   118b4:	80 a0 60 2a 	cmp  %g1, 0x2a
   118b8:	12 80 00 06 	bne  118d0 <_ppfs_parsespec+0x84>
   118bc:	84 10 00 1d 	mov  %i5, %g2
   118c0:	83 2b e0 02 	sll  %o7, 2, %g1
   118c4:	84 07 60 01 	add  %i5, 1, %g2
   118c8:	82 27 80 01 	sub  %fp, %g1, %g1
   118cc:	c0 20 7f c4 	clr  [ %g1 + -60 ]
   118d0:	82 10 20 00 	clr  %g1
   118d4:	c6 08 80 00 	ldub  [ %g2 ], %g3
   118d8:	88 00 c0 03 	add  %g3, %g3, %g4
   118dc:	c8 12 80 04 	lduh  [ %o2 + %g4 ], %g4
   118e0:	80 89 20 08 	btst  8, %g4
   118e4:	12 80 00 35 	bne  119b8 <_ppfs_parsespec+0x16c>
   118e8:	80 a0 40 09 	cmp  %g1, %o1
   118ec:	c8 0f 7f ff 	ldub  [ %i5 + -1 ], %g4
   118f0:	80 a1 20 25 	cmp  %g4, 0x25
   118f4:	32 80 00 47 	bne,a   11a10 <_ppfs_parsespec+0x1c4>
   118f8:	c6 0f 40 00 	ldub  [ %i5 ], %g3
   118fc:	80 a0 e0 24 	cmp  %g3, 0x24
   11900:	12 80 00 3e 	bne  119f8 <_ppfs_parsespec+0x1ac>
   11904:	80 a0 60 00 	cmp  %g1, 0
   11908:	04 80 00 3d 	ble  119fc <_ppfs_parsespec+0x1b0>
   1190c:	80 a6 a0 00 	cmp  %i2, 0
   11910:	02 80 00 1e 	be  11988 <_ppfs_parsespec+0x13c>
   11914:	ba 00 a0 01 	add  %g2, 1, %i5
   11918:	80 a6 80 01 	cmp  %i2, %g1
   1191c:	16 80 00 03 	bge  11928 <_ppfs_parsespec+0xdc>
   11920:	c2 27 bf c0 	st  %g1, [ %fp + -64 ]
   11924:	b4 10 00 01 	mov  %g1, %i2
   11928:	84 10 00 1d 	mov  %i5, %g2
   1192c:	3b 00 00 82 	sethi  %hi(0x20800), %i5
   11930:	82 10 20 01 	mov  1, %g1
   11934:	ba 1f 7f 84 	xor  %i5, -124, %i5
   11938:	c8 08 80 00 	ldub  [ %g2 ], %g4
   1193c:	ba 05 c0 1d 	add  %l7, %i5, %i5
   11940:	ba 07 60 01 	inc  %i5
   11944:	c6 0f 7f ff 	ldub  [ %i5 + -1 ], %g3
   11948:	80 a1 00 03 	cmp  %g4, %g3
   1194c:	32 80 00 56 	bne,a   11aa4 <_ppfs_parsespec+0x258>
   11950:	c6 0f 40 00 	ldub  [ %i5 ], %g3
   11954:	84 00 a0 01 	inc  %g2
   11958:	10 bf ff f5 	b  1192c <_ppfs_parsespec+0xe0>
   1195c:	b6 16 c0 01 	or  %i3, %g1, %i3
   11960:	ba 07 7f fc 	add  %i5, -4, %i5
   11964:	82 10 20 00 	clr  %g1
   11968:	86 07 bf e0 	add  %fp, -32, %g3
   1196c:	c4 07 40 00 	ld  [ %i5 ], %g2
   11970:	c4 28 40 03 	stb  %g2, [ %g1 + %g3 ]
   11974:	88 08 a0 ff 	and  %g2, 0xff, %g4
   11978:	f8 07 40 00 	ld  [ %i5 ], %i4
   1197c:	80 a7 00 04 	cmp  %i4, %g4
   11980:	02 80 00 04 	be  11990 <_ppfs_parsespec+0x144>
   11984:	82 00 60 01 	inc  %g1
   11988:	81 c7 e0 08 	ret 
   1198c:	91 e8 3f ff 	restore  %g0, -1, %o0
   11990:	80 88 a0 ff 	btst  0xff, %g2
   11994:	02 80 00 05 	be  119a8 <_ppfs_parsespec+0x15c>
   11998:	ba 07 60 04 	add  %i5, 4, %i5
   1199c:	80 a0 60 20 	cmp  %g1, 0x20
   119a0:	32 bf ff f4 	bne,a   11970 <_ppfs_parsespec+0x124>
   119a4:	c4 07 40 00 	ld  [ %i5 ], %g2
   119a8:	c0 2f bf ff 	clrb  [ %fp + -1 ]
   119ac:	b6 10 20 80 	mov  0x80, %i3
   119b0:	10 bf ff b6 	b  11888 <_ppfs_parsespec+0x3c>
   119b4:	ba 07 bf e1 	add  %fp, -31, %i5
   119b8:	04 80 00 08 	ble  119d8 <_ppfs_parsespec+0x18c>
   119bc:	89 28 60 02 	sll  %g1, 2, %g4
   119c0:	80 a0 e0 37 	cmp  %g3, 0x37
   119c4:	18 80 00 0b 	bgu  119f0 <_ppfs_parsespec+0x1a4>
   119c8:	80 a0 40 0d 	cmp  %g1, %o5
   119cc:	32 80 00 07 	bne,a   119e8 <_ppfs_parsespec+0x19c>
   119d0:	82 10 00 0c 	mov  %o4, %g1
   119d4:	89 28 60 02 	sll  %g1, 2, %g4
   119d8:	86 00 ff d0 	add  %g3, -48, %g3
   119dc:	82 01 00 01 	add  %g4, %g1, %g1
   119e0:	82 00 40 01 	add  %g1, %g1, %g1
   119e4:	82 00 c0 01 	add  %g3, %g1, %g1
   119e8:	10 bf ff bb 	b  118d4 <_ppfs_parsespec+0x88>
   119ec:	84 00 a0 01 	inc  %g2
   119f0:	10 bf ff fe 	b  119e8 <_ppfs_parsespec+0x19c>
   119f4:	82 10 00 0c 	mov  %o4, %g1
   119f8:	80 a6 a0 00 	cmp  %i2, 0
   119fc:	04 80 00 1f 	ble  11a78 <_ppfs_parsespec+0x22c>
   11a00:	80 a0 e0 6d 	cmp  %g3, 0x6d
   11a04:	12 bf ff e1 	bne  11988 <_ppfs_parsespec+0x13c>
   11a08:	01 00 00 00 	nop 
   11a0c:	c6 0f 40 00 	ldub  [ %i5 ], %g3
   11a10:	80 a0 e0 2a 	cmp  %g3, 0x2a
   11a14:	12 80 00 0f 	bne  11a50 <_ppfs_parsespec+0x204>
   11a18:	b8 10 00 02 	mov  %g2, %i4
   11a1c:	80 a6 a0 00 	cmp  %i2, 0
   11a20:	02 80 00 2d 	be  11ad4 <_ppfs_parsespec+0x288>
   11a24:	b8 07 60 01 	add  %i5, 1, %i4
   11a28:	b8 00 a0 01 	add  %g2, 1, %i4
   11a2c:	c4 08 80 00 	ldub  [ %g2 ], %g2
   11a30:	80 a0 a0 24 	cmp  %g2, 0x24
   11a34:	12 bf ff d5 	bne  11988 <_ppfs_parsespec+0x13c>
   11a38:	80 a0 60 00 	cmp  %g1, 0
   11a3c:	04 bf ff d3 	ble  11988 <_ppfs_parsespec+0x13c>
   11a40:	85 2b e0 02 	sll  %o7, 2, %g2
   11a44:	84 27 80 02 	sub  %fp, %g2, %g2
   11a48:	c2 20 bf b8 	st  %g1, [ %g2 + -72 ]
   11a4c:	82 10 00 0b 	mov  %o3, %g1
   11a50:	80 a3 e0 00 	cmp  %o7, 0
   11a54:	12 80 00 26 	bne  11aec <_ppfs_parsespec+0x2a0>
   11a58:	c6 0f 00 00 	ldub  [ %i4 ], %g3
   11a5c:	80 a0 e0 2e 	cmp  %g3, 0x2e
   11a60:	12 80 00 21 	bne  11ae4 <_ppfs_parsespec+0x298>
   11a64:	84 07 20 01 	add  %i4, 1, %g2
   11a68:	b2 10 00 01 	mov  %g1, %i1
   11a6c:	9e 10 3f ff 	mov  -1, %o7
   11a70:	10 bf ff 90 	b  118b0 <_ppfs_parsespec+0x64>
   11a74:	ba 10 00 02 	mov  %g2, %i5
   11a78:	80 a7 40 02 	cmp  %i5, %g2
   11a7c:	1a 80 00 08 	bcc  11a9c <_ppfs_parsespec+0x250>
   11a80:	c6 0f 40 00 	ldub  [ %i5 ], %g3
   11a84:	86 08 e0 ff 	and  %g3, 0xff, %g3
   11a88:	80 a0 e0 30 	cmp  %g3, 0x30
   11a8c:	12 bf ff e0 	bne  11a0c <_ppfs_parsespec+0x1c0>
   11a90:	b4 10 20 00 	clr  %i2
   11a94:	10 bf ff a6 	b  1192c <_ppfs_parsespec+0xe0>
   11a98:	84 10 00 1d 	mov  %i5, %g2
   11a9c:	10 bf ff a3 	b  11928 <_ppfs_parsespec+0xdc>
   11aa0:	b4 10 20 00 	clr  %i2
   11aa4:	80 a0 e0 00 	cmp  %g3, 0
   11aa8:	12 bf ff a6 	bne  11940 <_ppfs_parsespec+0xf4>
   11aac:	82 00 40 01 	add  %g1, %g1, %g1
   11ab0:	83 3e e0 01 	sra  %i3, 1, %g1
   11ab4:	82 08 60 05 	and  %g1, 5, %g1
   11ab8:	b6 2e c0 01 	andn  %i3, %g1, %i3
   11abc:	c2 08 bf ff 	ldub  [ %g2 + -1 ], %g1
   11ac0:	80 a0 60 25 	cmp  %g1, 0x25
   11ac4:	32 bf ff 7b 	bne,a   118b0 <_ppfs_parsespec+0x64>
   11ac8:	ba 10 00 02 	mov  %g2, %i5
   11acc:	10 bf ff d0 	b  11a0c <_ppfs_parsespec+0x1c0>
   11ad0:	82 10 20 00 	clr  %g1
   11ad4:	80 a0 80 1c 	cmp  %g2, %i4
   11ad8:	02 bf ff de 	be  11a50 <_ppfs_parsespec+0x204>
   11adc:	82 10 00 0b 	mov  %o3, %g1
   11ae0:	30 bf ff aa 	b,a   11988 <_ppfs_parsespec+0x13c>
   11ae4:	b2 10 00 01 	mov  %g1, %i1
   11ae8:	82 10 3f ff 	mov  -1, %g1
   11aec:	05 00 00 81 	sethi  %hi(0x20400), %g2
   11af0:	84 18 bf 6c 	xor  %g2, -148, %g2
   11af4:	84 05 c0 02 	add  %l7, %g2, %g2
   11af8:	88 10 00 02 	mov  %g2, %g4
   11afc:	fa 08 80 00 	ldub  [ %g2 ], %i5
   11b00:	80 a7 40 03 	cmp  %i5, %g3
   11b04:	32 80 00 8b 	bne,a   11d30 <_ppfs_parsespec+0x4e4>
   11b08:	84 00 a0 01 	inc  %g2
   11b0c:	b8 07 20 01 	inc  %i4
   11b10:	88 20 80 04 	sub  %g2, %g4, %g4
   11b14:	80 a1 20 01 	cmp  %g4, 1
   11b18:	14 80 00 09 	bg  11b3c <_ppfs_parsespec+0x2f0>
   11b1c:	c6 0f 00 00 	ldub  [ %i4 ], %g3
   11b20:	c8 08 80 00 	ldub  [ %g2 ], %g4
   11b24:	86 08 e0 ff 	and  %g3, 0xff, %g3
   11b28:	80 a1 00 03 	cmp  %g4, %g3
   11b2c:	32 80 00 05 	bne,a   11b40 <_ppfs_parsespec+0x2f4>
   11b30:	fa 08 a0 09 	ldub  [ %g2 + 9 ], %i5
   11b34:	84 00 a0 09 	add  %g2, 9, %g2
   11b38:	b8 07 20 01 	inc  %i4
   11b3c:	fa 08 a0 09 	ldub  [ %g2 + 9 ], %i5
   11b40:	c6 0f 00 00 	ldub  [ %i4 ], %g3
   11b44:	80 a0 e0 00 	cmp  %g3, 0
   11b48:	02 bf ff 90 	be  11988 <_ppfs_parsespec+0x13c>
   11b4c:	bb 2f 60 08 	sll  %i5, 8, %i5
   11b50:	05 00 00 82 	sethi  %hi(0x20800), %g2
   11b54:	84 18 bf 6c 	xor  %g2, -148, %g2
   11b58:	84 05 c0 02 	add  %l7, %g2, %g2
   11b5c:	9e 10 00 02 	mov  %g2, %o7
   11b60:	c8 08 80 00 	ldub  [ %g2 ], %g4
   11b64:	80 a0 c0 04 	cmp  %g3, %g4
   11b68:	32 80 00 78 	bne,a   11d48 <_ppfs_parsespec+0x4fc>
   11b6c:	84 00 a0 01 	inc  %g2
   11b70:	84 20 80 0f 	sub  %g2, %o7, %g2
   11b74:	80 a0 a0 11 	cmp  %g2, 0x11
   11b78:	24 80 00 06 	ble,a   11b90 <_ppfs_parsespec+0x344>
   11b7c:	09 00 00 81 	sethi  %hi(0x20400), %g4
   11b80:	80 8f 64 00 	btst  0x400, %i5
   11b84:	32 80 00 02 	bne,a   11b8c <_ppfs_parsespec+0x340>
   11b88:	84 00 bf fe 	add  %g2, -2, %g2
   11b8c:	09 00 00 81 	sethi  %hi(0x20400), %g4
   11b90:	c4 26 20 20 	st  %g2, [ %i0 + 0x20 ]
   11b94:	88 19 3f 5c 	xor  %g4, -164, %g4
   11b98:	88 05 c0 04 	add  %l7, %g4, %g4
   11b9c:	9a 10 00 04 	mov  %g4, %o5
   11ba0:	86 10 00 04 	mov  %g4, %g3
   11ba4:	d8 08 c0 00 	ldub  [ %g3 ], %o4
   11ba8:	80 a3 00 02 	cmp  %o4, %g2
   11bac:	06 bf ff fd 	bl  11ba0 <_ppfs_parsespec+0x354>
   11bb0:	88 01 20 01 	inc  %g4
   11bb4:	84 20 c0 0d 	sub  %g3, %o5, %g2
   11bb8:	09 00 00 81 	sethi  %hi(0x20400), %g4
   11bbc:	84 00 80 02 	add  %g2, %g2, %g2
   11bc0:	07 00 00 81 	sethi  %hi(0x20400), %g3
   11bc4:	88 19 3f 3c 	xor  %g4, -196, %g4
   11bc8:	86 18 ff 4c 	xor  %g3, -180, %g3
   11bcc:	88 05 c0 04 	add  %l7, %g4, %g4
   11bd0:	86 05 c0 03 	add  %l7, %g3, %g3
   11bd4:	c6 50 c0 02 	ldsh  [ %g3 + %g2 ], %g3
   11bd8:	c4 51 00 02 	ldsh  [ %g4 + %g2 ], %g2
   11bdc:	86 10 c0 1d 	or  %g3, %i5, %g3
   11be0:	84 08 c0 02 	and  %g3, %g2, %g2
   11be4:	c4 27 bf cc 	st  %g2, [ %fp + -52 ]
   11be8:	84 10 00 0f 	mov  %o7, %g2
   11bec:	c6 0f 00 00 	ldub  [ %i4 ], %g3
   11bf0:	c2 26 20 04 	st  %g1, [ %i0 + 4 ]
   11bf4:	c6 26 20 0c 	st  %g3, [ %i0 + 0xc ]
   11bf8:	f2 26 20 08 	st  %i1, [ %i0 + 8 ]
   11bfc:	80 8e e0 04 	btst  4, %i3
   11c00:	02 80 00 03 	be  11c0c <_ppfs_parsespec+0x3c0>
   11c04:	82 10 20 20 	mov  0x20, %g1
   11c08:	82 10 20 30 	mov  0x30, %g1
   11c0c:	c2 26 20 14 	st  %g1, [ %i0 + 0x14 ]
   11c10:	b6 0e ff fb 	and  %i3, -5, %i3
   11c14:	82 10 20 01 	mov  1, %g1
   11c18:	ba 0f 6f 00 	and  %i5, 0xf00, %i5
   11c1c:	c2 26 20 1c 	st  %g1, [ %i0 + 0x1c ]
   11c20:	b6 16 c0 1d 	or  %i3, %i5, %i3
   11c24:	f6 26 20 10 	st  %i3, [ %i0 + 0x10 ]
   11c28:	c2 08 80 00 	ldub  [ %g2 ], %g1
   11c2c:	80 a0 60 00 	cmp  %g1, 0
   11c30:	12 80 00 0a 	bne  11c58 <_ppfs_parsespec+0x40c>
   11c34:	80 a6 a0 00 	cmp  %i2, 0
   11c38:	c2 0f 00 00 	ldub  [ %i4 ], %g1
   11c3c:	80 a0 60 6d 	cmp  %g1, 0x6d
   11c40:	12 80 00 48 	bne  11d60 <_ppfs_parsespec+0x514>
   11c44:	82 10 20 15 	mov  0x15, %g1
   11c48:	82 10 20 14 	mov  0x14, %g1
   11c4c:	c0 26 20 1c 	clr  [ %i0 + 0x1c ]
   11c50:	c2 26 20 20 	st  %g1, [ %i0 + 0x20 ]
   11c54:	80 a6 a0 00 	cmp  %i2, 0
   11c58:	04 80 00 65 	ble  11dec <_ppfs_parsespec+0x5a0>
   11c5c:	82 10 20 01 	mov  1, %g1
   11c60:	b6 10 20 00 	clr  %i3
   11c64:	a2 07 bf b8 	add  %fp, -72, %l1
   11c68:	a4 06 20 24 	add  %i0, 0x24, %l2
   11c6c:	a6 07 bf c4 	add  %fp, -60, %l3
   11c70:	80 a6 e0 02 	cmp  %i3, 2
   11c74:	14 80 00 5b 	bg  11de0 <_ppfs_parsespec+0x594>
   11c78:	82 06 ff fe 	add  %i3, -2, %g1
   11c7c:	83 2e e0 02 	sll  %i3, 2, %g1
   11c80:	c2 00 40 11 	ld  [ %g1 + %l1 ], %g1
   11c84:	c2 2c 80 1b 	stb  %g1, [ %l2 + %i3 ]
   11c88:	82 08 60 ff 	and  %g1, 0xff, %g1
   11c8c:	80 a6 80 01 	cmp  %i2, %g1
   11c90:	16 80 00 06 	bge  11ca8 <_ppfs_parsespec+0x45c>
   11c94:	85 2e e0 02 	sll  %i3, 2, %g2
   11c98:	80 a0 60 09 	cmp  %g1, 9
   11c9c:	14 bf ff 3b 	bg  11988 <_ppfs_parsespec+0x13c>
   11ca0:	b4 10 00 01 	mov  %g1, %i2
   11ca4:	85 2e e0 02 	sll  %i3, 2, %g2
   11ca8:	f2 00 80 13 	ld  [ %g2 + %l3 ], %i1
   11cac:	80 a6 60 08 	cmp  %i1, 8
   11cb0:	02 80 00 12 	be  11cf8 <_ppfs_parsespec+0x4ac>
   11cb4:	83 28 60 02 	sll  %g1, 2, %g1
   11cb8:	ba 06 00 01 	add  %i0, %g1, %i5
   11cbc:	d0 07 60 24 	ld  [ %i5 + 0x24 ], %o0
   11cc0:	80 a2 20 08 	cmp  %o0, 8
   11cc4:	02 80 00 0c 	be  11cf4 <_ppfs_parsespec+0x4a8>
   11cc8:	80 a2 00 19 	cmp  %o0, %i1
   11ccc:	22 80 00 0b 	be,a   11cf8 <_ppfs_parsespec+0x4ac>
   11cd0:	f2 27 60 24 	st  %i1, [ %i5 + 0x24 ]
   11cd4:	7f ff fe c7 	call  117f0 <_promoted_size>
   11cd8:	01 00 00 00 	nop 
   11cdc:	a0 10 00 08 	mov  %o0, %l0
   11ce0:	7f ff fe c4 	call  117f0 <_promoted_size>
   11ce4:	90 10 00 19 	mov  %i1, %o0
   11ce8:	80 a4 00 08 	cmp  %l0, %o0
   11cec:	34 80 00 04 	bg,a   11cfc <_ppfs_parsespec+0x4b0>
   11cf0:	c2 06 20 1c 	ld  [ %i0 + 0x1c ], %g1
   11cf4:	f2 27 60 24 	st  %i1, [ %i5 + 0x24 ]
   11cf8:	c2 06 20 1c 	ld  [ %i0 + 0x1c ], %g1
   11cfc:	80 a0 40 1b 	cmp  %g1, %i3
   11d00:	16 80 00 36 	bge  11dd8 <_ppfs_parsespec+0x58c>
   11d04:	84 06 e0 01 	add  %i3, 1, %g2
   11d08:	f4 26 20 18 	st  %i2, [ %i0 + 0x18 ]
   11d0c:	c2 06 20 10 	ld  [ %i0 + 0x10 ], %g1
   11d10:	80 88 60 80 	btst  0x80, %g1
   11d14:	12 80 00 3e 	bne  11e0c <_ppfs_parsespec+0x5c0>
   11d18:	82 07 bf e0 	add  %fp, -32, %g1
   11d1c:	82 07 20 01 	add  %i4, 1, %g1
   11d20:	c2 26 00 00 	st  %g1, [ %i0 ]
   11d24:	f0 06 20 1c 	ld  [ %i0 + 0x1c ], %i0
   11d28:	81 c7 e0 08 	ret 
   11d2c:	91 ee 20 02 	restore  %i0, 2, %o0
   11d30:	fa 08 80 00 	ldub  [ %g2 ], %i5
   11d34:	80 a7 60 00 	cmp  %i5, 0
   11d38:	12 bf ff 73 	bne  11b04 <_ppfs_parsespec+0x2b8>
   11d3c:	80 a7 40 03 	cmp  %i5, %g3
   11d40:	10 bf ff 75 	b  11b14 <_ppfs_parsespec+0x2c8>
   11d44:	88 20 80 04 	sub  %g2, %g4, %g4
   11d48:	c8 08 80 00 	ldub  [ %g2 ], %g4
   11d4c:	80 a1 20 00 	cmp  %g4, 0
   11d50:	12 bf ff 86 	bne  11b68 <_ppfs_parsespec+0x31c>
   11d54:	80 a0 c0 04 	cmp  %g3, %g4
   11d58:	10 bf ff a6 	b  11bf0 <_ppfs_parsespec+0x3a4>
   11d5c:	c6 0f 00 00 	ldub  [ %i4 ], %g3
   11d60:	c2 26 20 20 	st  %g1, [ %i0 + 0x20 ]
   11d64:	03 00 00 00 	sethi  %hi(0), %g1
   11d68:	82 18 61 54 	xor  %g1, 0x154, %g1
   11d6c:	82 05 c0 01 	add  %l7, %g1, %g1
   11d70:	c8 0f 00 00 	ldub  [ %i4 ], %g4
   11d74:	c6 00 40 00 	ld  [ %g1 ], %g3
   11d78:	84 00 e0 0a 	add  %g3, 0xa, %g2
   11d7c:	82 10 00 03 	mov  %g3, %g1
   11d80:	fa 08 40 00 	ldub  [ %g1 ], %i5
   11d84:	80 a7 40 04 	cmp  %i5, %g4
   11d88:	32 80 00 10 	bne,a   11dc8 <_ppfs_parsespec+0x57c>
   11d8c:	82 00 60 01 	inc  %g1
   11d90:	05 00 00 09 	sethi  %hi(0x2400), %g2
   11d94:	84 18 a3 b0 	xor  %g2, 0x3b0, %g2
   11d98:	84 05 c0 02 	add  %l7, %g2, %g2
   11d9c:	82 20 40 03 	sub  %g1, %g3, %g1
   11da0:	94 07 bf cc 	add  %fp, -52, %o2
   11da4:	83 28 60 02 	sll  %g1, 2, %g1
   11da8:	92 10 20 05 	mov  5, %o1
   11dac:	c2 00 80 01 	ld  [ %g2 + %g1 ], %g1
   11db0:	9f c0 40 00 	call  %g1
   11db4:	90 06 20 04 	add  %i0, 4, %o0
   11db8:	80 a2 20 05 	cmp  %o0, 5
   11dbc:	04 bf ff a6 	ble  11c54 <_ppfs_parsespec+0x408>
   11dc0:	d0 26 20 1c 	st  %o0, [ %i0 + 0x1c ]
   11dc4:	30 bf fe f1 	b,a   11988 <_ppfs_parsespec+0x13c>
   11dc8:	80 a0 80 01 	cmp  %g2, %g1
   11dcc:	32 bf ff ee 	bne,a   11d84 <_ppfs_parsespec+0x538>
   11dd0:	fa 08 40 00 	ldub  [ %g1 ], %i5
   11dd4:	30 bf fe ed 	b,a   11988 <_ppfs_parsespec+0x13c>
   11dd8:	10 bf ff a6 	b  11c70 <_ppfs_parsespec+0x424>
   11ddc:	b6 10 00 02 	mov  %g2, %i3
   11de0:	c4 07 bf c0 	ld  [ %fp + -64 ], %g2
   11de4:	10 bf ff aa 	b  11c8c <_ppfs_parsespec+0x440>
   11de8:	82 00 40 02 	add  %g1, %g2, %g1
   11dec:	d4 06 20 1c 	ld  [ %i0 + 0x1c ], %o2
   11df0:	c2 2e 20 26 	stb  %g1, [ %i0 + 0x26 ]
   11df4:	95 2a a0 02 	sll  %o2, 2, %o2
   11df8:	92 07 bf cc 	add  %fp, -52, %o1
   11dfc:	40 00 03 8e 	call  12c34 <__GI_memcpy>
   11e00:	90 06 20 28 	add  %i0, 0x28, %o0
   11e04:	10 bf ff c2 	b  11d0c <_ppfs_parsespec+0x4c0>
   11e08:	f4 26 20 18 	st  %i2, [ %i0 + 0x18 ]
   11e0c:	b8 27 00 01 	sub  %i4, %g1, %i4
   11e10:	c2 06 00 00 	ld  [ %i0 ], %g1
   11e14:	b9 2f 20 02 	sll  %i4, 2, %i4
   11e18:	10 bf ff c2 	b  11d20 <_ppfs_parsespec+0x4d4>
   11e1c:	82 00 40 1c 	add  %g1, %i4, %g1

00011e20 <_stdio_openlist_dec_use>:
   11e20:	9d e3 bf a0 	save  %sp, -96, %sp
   11e24:	2f 00 00 b8 	sethi  %hi(0x2e000), %l7
   11e28:	7f ff fa 7f 	call  10824 <__sparc_get_pc_thunk.l7>
   11e2c:	ae 05 e0 a4 	add  %l7, 0xa4, %l7	! 2e0a4 <__FRAME_END__+0x59ac>
   11e30:	3b 00 00 01 	sethi  %hi(0x400), %i5
   11e34:	ba 1f 63 8c 	xor  %i5, 0x38c, %i5
   11e38:	ba 05 c0 1d 	add  %l7, %i5, %i5
   11e3c:	c2 07 60 08 	ld  [ %i5 + 8 ], %g1
   11e40:	80 a0 40 07 	cmp  %g1, %g7
   11e44:	02 80 00 19 	be  11ea8 <_stdio_openlist_dec_use+0x88>
   11e48:	b8 10 00 07 	mov  %g7, %i4
   11e4c:	83 3f 60 02 	sra  %i5, 2, %g1
   11e50:	85 3f 60 0c 	sra  %i5, 0xc, %g2
   11e54:	82 18 40 02 	xor  %g1, %g2, %g1
   11e58:	82 08 60 3f 	and  %g1, 0x3f, %g1
   11e5c:	05 00 00 00 	sethi  %hi(0), %g2
   11e60:	84 18 a3 ac 	xor  %g2, 0x3ac, %g2
   11e64:	84 05 c0 02 	add  %l7, %g2, %g2
   11e68:	c6 68 80 01 	ldstub  [ %g2 + %g1 ], %g3
   11e6c:	80 a0 e0 00 	cmp  %g3, 0
   11e70:	32 bf ff fc 	bne,a   11e60 <_stdio_openlist_dec_use+0x40>
   11e74:	05 00 00 00 	sethi  %hi(0), %g2
   11e78:	c6 07 40 00 	ld  [ %i5 ], %g3
   11e7c:	80 a0 e0 00 	cmp  %g3, 0
   11e80:	12 80 00 03 	bne  11e8c <_stdio_openlist_dec_use+0x6c>
   11e84:	88 10 20 01 	mov  1, %g4
   11e88:	c8 27 40 00 	st  %g4, [ %i5 ]
   11e8c:	c0 28 80 01 	clrb  [ %g2 + %g1 ]
   11e90:	80 a0 e0 00 	cmp  %g3, 0
   11e94:	22 80 00 05 	be,a   11ea8 <_stdio_openlist_dec_use+0x88>
   11e98:	f8 27 60 08 	st  %i4, [ %i5 + 8 ]
   11e9c:	40 00 10 cf 	call  161d8 <__lll_lock_wait_private>
   11ea0:	90 10 00 1d 	mov  %i5, %o0
   11ea4:	f8 27 60 08 	st  %i4, [ %i5 + 8 ]
   11ea8:	c2 07 60 04 	ld  [ %i5 + 4 ], %g1
   11eac:	82 00 60 01 	inc  %g1
   11eb0:	37 00 00 01 	sethi  %hi(0x400), %i3
   11eb4:	c2 27 60 04 	st  %g1, [ %i5 + 4 ]
   11eb8:	b6 1e e3 88 	xor  %i3, 0x388, %i3
   11ebc:	b6 05 c0 1b 	add  %l7, %i3, %i3
   11ec0:	c2 06 c0 00 	ld  [ %i3 ], %g1
   11ec4:	80 a0 60 01 	cmp  %g1, 1
   11ec8:	12 80 00 54 	bne  12018 <_stdio_openlist_dec_use+0x1f8>
   11ecc:	35 00 00 01 	sethi  %hi(0x400), %i2
   11ed0:	b4 1e a3 84 	xor  %i2, 0x384, %i2
   11ed4:	b4 05 c0 1a 	add  %l7, %i2, %i2
   11ed8:	c2 06 80 00 	ld  [ %i2 ], %g1
   11edc:	80 a0 60 00 	cmp  %g1, 0
   11ee0:	04 80 00 4e 	ble  12018 <_stdio_openlist_dec_use+0x1f8>
   11ee4:	39 00 00 01 	sethi  %hi(0x400), %i4
   11ee8:	b8 1f 23 98 	xor  %i4, 0x398, %i4
   11eec:	b8 05 c0 1c 	add  %l7, %i4, %i4
   11ef0:	c2 07 20 08 	ld  [ %i4 + 8 ], %g1
   11ef4:	80 a0 40 07 	cmp  %g1, %g7
   11ef8:	02 80 00 19 	be  11f5c <_stdio_openlist_dec_use+0x13c>
   11efc:	b2 10 00 07 	mov  %g7, %i1
   11f00:	83 3f 20 02 	sra  %i4, 2, %g1
   11f04:	85 3f 20 0c 	sra  %i4, 0xc, %g2
   11f08:	82 18 40 02 	xor  %g1, %g2, %g1
   11f0c:	82 08 60 3f 	and  %g1, 0x3f, %g1
   11f10:	05 00 00 00 	sethi  %hi(0), %g2
   11f14:	84 18 a3 ac 	xor  %g2, 0x3ac, %g2
   11f18:	84 05 c0 02 	add  %l7, %g2, %g2
   11f1c:	c6 68 80 01 	ldstub  [ %g2 + %g1 ], %g3
   11f20:	80 a0 e0 00 	cmp  %g3, 0
   11f24:	32 bf ff fc 	bne,a   11f14 <_stdio_openlist_dec_use+0xf4>
   11f28:	05 00 00 00 	sethi  %hi(0), %g2
   11f2c:	c6 07 00 00 	ld  [ %i4 ], %g3
   11f30:	80 a0 e0 00 	cmp  %g3, 0
   11f34:	12 80 00 03 	bne  11f40 <_stdio_openlist_dec_use+0x120>
   11f38:	88 10 20 01 	mov  1, %g4
   11f3c:	c8 27 00 00 	st  %g4, [ %i4 ]
   11f40:	c0 28 80 01 	clrb  [ %g2 + %g1 ]
   11f44:	80 a0 e0 00 	cmp  %g3, 0
   11f48:	22 80 00 05 	be,a   11f5c <_stdio_openlist_dec_use+0x13c>
   11f4c:	f2 27 20 08 	st  %i1, [ %i4 + 8 ]
   11f50:	40 00 10 a2 	call  161d8 <__lll_lock_wait_private>
   11f54:	90 10 00 1c 	mov  %i4, %o0
   11f58:	f2 27 20 08 	st  %i1, [ %i4 + 8 ]
   11f5c:	c2 07 20 04 	ld  [ %i4 + 4 ], %g1
   11f60:	82 00 60 01 	inc  %g1
   11f64:	21 3f ff e0 	sethi  %hi(0xffff8000), %l0
   11f68:	c2 27 20 04 	st  %g1, [ %i4 + 4 ]
   11f6c:	b0 10 20 00 	clr  %i0
   11f70:	03 00 00 00 	sethi  %hi(0), %g1
   11f74:	a0 14 20 30 	or  %l0, 0x30, %l0
   11f78:	82 18 62 6c 	xor  %g1, 0x26c, %g1
   11f7c:	25 00 00 08 	sethi  %hi(0x2000), %l2
   11f80:	b2 05 c0 01 	add  %l7, %g1, %i1
   11f84:	d0 06 40 00 	ld  [ %i1 ], %o0
   11f88:	80 a2 20 00 	cmp  %o0, 0
   11f8c:	32 80 00 47 	bne,a   120a8 <_stdio_openlist_dec_use+0x288>
   11f90:	c4 12 00 00 	lduh  [ %o0 ], %g2
   11f94:	c2 07 20 04 	ld  [ %i4 + 4 ], %g1
   11f98:	82 00 7f ff 	add  %g1, -1, %g1
   11f9c:	80 a0 60 00 	cmp  %g1, 0
   11fa0:	12 80 00 1d 	bne  12014 <_stdio_openlist_dec_use+0x1f4>
   11fa4:	c2 27 20 04 	st  %g1, [ %i4 + 4 ]
   11fa8:	83 3f 20 02 	sra  %i4, 2, %g1
   11fac:	85 3f 20 0c 	sra  %i4, 0xc, %g2
   11fb0:	c0 27 20 08 	clr  [ %i4 + 8 ]
   11fb4:	82 18 40 02 	xor  %g1, %g2, %g1
   11fb8:	82 08 60 3f 	and  %g1, 0x3f, %g1
   11fbc:	05 00 00 00 	sethi  %hi(0), %g2
   11fc0:	84 18 a3 ac 	xor  %g2, 0x3ac, %g2
   11fc4:	84 05 c0 02 	add  %l7, %g2, %g2
   11fc8:	c6 68 80 01 	ldstub  [ %g2 + %g1 ], %g3
   11fcc:	80 a0 e0 00 	cmp  %g3, 0
   11fd0:	32 bf ff fc 	bne,a   11fc0 <_stdio_openlist_dec_use+0x1a0>
   11fd4:	05 00 00 00 	sethi  %hi(0), %g2
   11fd8:	c6 07 00 00 	ld  [ %i4 ], %g3
   11fdc:	c0 28 80 01 	clrb  [ %g2 + %g1 ]
   11fe0:	c0 27 00 00 	clr  [ %i4 ]
   11fe4:	80 a0 e0 01 	cmp  %g3, 1
   11fe8:	24 80 00 0c 	ble,a   12018 <_stdio_openlist_dec_use+0x1f8>
   11fec:	c0 26 80 00 	clr  [ %i2 ]
   11ff0:	82 10 20 8e 	mov  0x8e, %g1
   11ff4:	96 10 20 00 	clr  %o3
   11ff8:	94 10 20 01 	mov  1, %o2
   11ffc:	92 10 20 81 	mov  0x81, %o1
   12000:	90 10 00 1c 	mov  %i4, %o0
   12004:	91 d0 20 10 	ta  0x10
   12008:	1a 80 00 03 	bcc  12014 <_stdio_openlist_dec_use+0x1f4>
   1200c:	82 10 00 08 	mov  %o0, %g1
   12010:	82 20 00 08 	neg  %o0, %g1
   12014:	c0 26 80 00 	clr  [ %i2 ]
   12018:	c2 06 c0 00 	ld  [ %i3 ], %g1
   1201c:	82 00 7f ff 	add  %g1, -1, %g1
   12020:	c2 26 c0 00 	st  %g1, [ %i3 ]
   12024:	c2 07 60 04 	ld  [ %i5 + 4 ], %g1
   12028:	82 00 7f ff 	add  %g1, -1, %g1
   1202c:	80 a0 60 00 	cmp  %g1, 0
   12030:	12 80 00 1c 	bne  120a0 <_stdio_openlist_dec_use+0x280>
   12034:	c2 27 60 04 	st  %g1, [ %i5 + 4 ]
   12038:	83 3f 60 02 	sra  %i5, 2, %g1
   1203c:	85 3f 60 0c 	sra  %i5, 0xc, %g2
   12040:	c0 27 60 08 	clr  [ %i5 + 8 ]
   12044:	82 18 40 02 	xor  %g1, %g2, %g1
   12048:	82 08 60 3f 	and  %g1, 0x3f, %g1
   1204c:	05 00 00 00 	sethi  %hi(0), %g2
   12050:	84 18 a3 ac 	xor  %g2, 0x3ac, %g2
   12054:	84 05 c0 02 	add  %l7, %g2, %g2
   12058:	c6 68 80 01 	ldstub  [ %g2 + %g1 ], %g3
   1205c:	80 a0 e0 00 	cmp  %g3, 0
   12060:	32 bf ff fc 	bne,a   12050 <_stdio_openlist_dec_use+0x230>
   12064:	05 00 00 00 	sethi  %hi(0), %g2
   12068:	c6 07 40 00 	ld  [ %i5 ], %g3
   1206c:	c0 28 80 01 	clrb  [ %g2 + %g1 ]
   12070:	c0 27 40 00 	clr  [ %i5 ]
   12074:	80 a0 e0 01 	cmp  %g3, 1
   12078:	04 80 00 0a 	ble  120a0 <_stdio_openlist_dec_use+0x280>
   1207c:	82 10 20 8e 	mov  0x8e, %g1
   12080:	96 10 20 00 	clr  %o3
   12084:	94 10 20 01 	mov  1, %o2
   12088:	92 10 20 81 	mov  0x81, %o1
   1208c:	90 10 00 1d 	mov  %i5, %o0
   12090:	91 d0 20 10 	ta  0x10
   12094:	1a 80 00 03 	bcc  120a0 <_stdio_openlist_dec_use+0x280>
   12098:	82 10 00 08 	mov  %o0, %g1
   1209c:	82 20 00 08 	neg  %o0, %g1
   120a0:	81 c7 e0 08 	ret 
   120a4:	81 e8 00 00 	restore 
   120a8:	82 08 80 10 	and  %g2, %l0, %g1
   120ac:	83 28 60 10 	sll  %g1, 0x10, %g1
   120b0:	83 30 60 10 	srl  %g1, 0x10, %g1
   120b4:	80 a0 60 30 	cmp  %g1, 0x30
   120b8:	12 80 00 0a 	bne  120e0 <_stdio_openlist_dec_use+0x2c0>
   120bc:	e2 02 20 20 	ld  [ %o0 + 0x20 ], %l1
   120c0:	80 a6 20 00 	cmp  %i0, 0
   120c4:	32 80 00 03 	bne,a   120d0 <_stdio_openlist_dec_use+0x2b0>
   120c8:	e2 26 20 20 	st  %l1, [ %i0 + 0x20 ]
   120cc:	e2 26 40 00 	st  %l1, [ %i1 ]
   120d0:	80 8c 80 02 	btst  %l2, %g2
   120d4:	12 80 00 06 	bne  120ec <_stdio_openlist_dec_use+0x2cc>
   120d8:	01 00 00 00 	nop 
   120dc:	90 10 00 18 	mov  %i0, %o0
   120e0:	b0 10 00 08 	mov  %o0, %i0
   120e4:	10 bf ff a9 	b  11f88 <_stdio_openlist_dec_use+0x168>
   120e8:	90 10 00 11 	mov  %l1, %o0
   120ec:	40 00 09 ac 	call  1479c <free>
   120f0:	01 00 00 00 	nop 
   120f4:	10 bf ff fb 	b  120e0 <_stdio_openlist_dec_use+0x2c0>
   120f8:	90 10 00 18 	mov  %i0, %o0

000120fc <__GI_fflush_unlocked>:
   120fc:	9d e3 bf a0 	save  %sp, -96, %sp
   12100:	2f 00 00 b7 	sethi  %hi(0x2dc00), %l7
   12104:	7f ff f9 c8 	call  10824 <__sparc_get_pc_thunk.l7>
   12108:	ae 05 e1 c8 	add  %l7, 0x1c8, %l7	! 2ddc8 <__FRAME_END__+0x56d0>
   1210c:	3b 00 00 00 	sethi  %hi(0), %i5
   12110:	ba 1f 62 6c 	xor  %i5, 0x26c, %i5
   12114:	ba 05 c0 1d 	add  %l7, %i5, %i5
   12118:	80 a6 00 1d 	cmp  %i0, %i5
   1211c:	02 80 00 16 	be  12174 <__GI_fflush_unlocked+0x78>
   12120:	b8 10 00 18 	mov  %i0, %i4
   12124:	80 a6 20 00 	cmp  %i0, 0
   12128:	02 80 00 14 	be  12178 <__GI_fflush_unlocked+0x7c>
   1212c:	b6 10 21 00 	mov  0x100, %i3
   12130:	c2 16 00 00 	lduh  [ %i0 ], %g1
   12134:	80 88 60 40 	btst  0x40, %g1
   12138:	22 80 00 96 	be,a   12390 <__GI_fflush_unlocked+0x294>
   1213c:	b0 10 20 00 	clr  %i0
   12140:	90 10 00 18 	mov  %i0, %o0
   12144:	40 00 22 28 	call  1a9e4 <__stdio_wcommit>
   12148:	b0 10 3f ff 	mov  -1, %i0
   1214c:	80 a2 20 00 	cmp  %o0, 0
   12150:	12 80 00 90 	bne  12390 <__GI_fflush_unlocked+0x294>
   12154:	01 00 00 00 	nop 
   12158:	c2 07 20 08 	ld  [ %i4 + 8 ], %g1
   1215c:	c2 27 20 1c 	st  %g1, [ %i4 + 0x1c ]
   12160:	c2 17 00 00 	lduh  [ %i4 ], %g1
   12164:	82 08 7f bf 	and  %g1, -65, %g1
   12168:	c2 37 00 00 	sth  %g1, [ %i4 ]
   1216c:	81 c7 e0 08 	ret 
   12170:	91 e8 20 00 	restore  %g0, 0, %o0
   12174:	b6 10 20 00 	clr  %i3
   12178:	39 00 00 01 	sethi  %hi(0x400), %i4
   1217c:	b8 1f 23 8c 	xor  %i4, 0x38c, %i4
   12180:	b8 05 c0 1c 	add  %l7, %i4, %i4
   12184:	c2 07 20 08 	ld  [ %i4 + 8 ], %g1
   12188:	80 a0 40 07 	cmp  %g1, %g7
   1218c:	02 80 00 19 	be  121f0 <__GI_fflush_unlocked+0xf4>
   12190:	b4 10 00 07 	mov  %g7, %i2
   12194:	83 3f 20 02 	sra  %i4, 2, %g1
   12198:	85 3f 20 0c 	sra  %i4, 0xc, %g2
   1219c:	82 18 40 02 	xor  %g1, %g2, %g1
   121a0:	82 08 60 3f 	and  %g1, 0x3f, %g1
   121a4:	05 00 00 00 	sethi  %hi(0), %g2
   121a8:	84 18 a3 ac 	xor  %g2, 0x3ac, %g2
   121ac:	84 05 c0 02 	add  %l7, %g2, %g2
   121b0:	c6 68 80 01 	ldstub  [ %g2 + %g1 ], %g3
   121b4:	80 a0 e0 00 	cmp  %g3, 0
   121b8:	32 bf ff fc 	bne,a   121a8 <__GI_fflush_unlocked+0xac>
   121bc:	05 00 00 00 	sethi  %hi(0), %g2
   121c0:	c6 07 00 00 	ld  [ %i4 ], %g3
   121c4:	80 a0 e0 00 	cmp  %g3, 0
   121c8:	12 80 00 03 	bne  121d4 <__GI_fflush_unlocked+0xd8>
   121cc:	88 10 20 01 	mov  1, %g4
   121d0:	c8 27 00 00 	st  %g4, [ %i4 ]
   121d4:	c0 28 80 01 	clrb  [ %g2 + %g1 ]
   121d8:	80 a0 e0 00 	cmp  %g3, 0
   121dc:	22 80 00 05 	be,a   121f0 <__GI_fflush_unlocked+0xf4>
   121e0:	f4 27 20 08 	st  %i2, [ %i4 + 8 ]
   121e4:	40 00 0f fd 	call  161d8 <__lll_lock_wait_private>
   121e8:	90 10 00 1c 	mov  %i4, %o0
   121ec:	f4 27 20 08 	st  %i2, [ %i4 + 8 ]
   121f0:	03 00 00 01 	sethi  %hi(0x400), %g1
   121f4:	82 18 63 88 	xor  %g1, 0x388, %g1
   121f8:	82 05 c0 01 	add  %l7, %g1, %g1
   121fc:	c4 00 40 00 	ld  [ %g1 ], %g2
   12200:	84 00 a0 01 	inc  %g2
   12204:	c4 20 40 00 	st  %g2, [ %g1 ]
   12208:	c6 07 20 04 	ld  [ %i4 + 4 ], %g3
   1220c:	80 a0 e0 00 	cmp  %g3, 0
   12210:	32 80 00 1e 	bne,a   12288 <__GI_fflush_unlocked+0x18c>
   12214:	39 00 00 01 	sethi  %hi(0x400), %i4
   12218:	83 3f 20 02 	sra  %i4, 2, %g1
   1221c:	85 3f 20 0c 	sra  %i4, 0xc, %g2
   12220:	c0 27 20 08 	clr  [ %i4 + 8 ]
   12224:	82 18 40 02 	xor  %g1, %g2, %g1
   12228:	82 08 60 3f 	and  %g1, 0x3f, %g1
   1222c:	05 00 00 00 	sethi  %hi(0), %g2
   12230:	84 18 a3 ac 	xor  %g2, 0x3ac, %g2
   12234:	84 05 c0 02 	add  %l7, %g2, %g2
   12238:	c6 68 80 01 	ldstub  [ %g2 + %g1 ], %g3
   1223c:	80 a0 e0 00 	cmp  %g3, 0
   12240:	32 bf ff fc 	bne,a   12230 <__GI_fflush_unlocked+0x134>
   12244:	05 00 00 00 	sethi  %hi(0), %g2
   12248:	c6 07 00 00 	ld  [ %i4 ], %g3
   1224c:	c0 28 80 01 	clrb  [ %g2 + %g1 ]
   12250:	c0 27 00 00 	clr  [ %i4 ]
   12254:	80 a0 e0 01 	cmp  %g3, 1
   12258:	24 80 00 0c 	ble,a   12288 <__GI_fflush_unlocked+0x18c>
   1225c:	39 00 00 01 	sethi  %hi(0x400), %i4
   12260:	82 10 20 8e 	mov  0x8e, %g1
   12264:	96 10 20 00 	clr  %o3
   12268:	94 10 20 01 	mov  1, %o2
   1226c:	92 10 20 81 	mov  0x81, %o1
   12270:	90 10 00 1c 	mov  %i4, %o0
   12274:	91 d0 20 10 	ta  0x10
   12278:	1a 80 00 03 	bcc  12284 <__GI_fflush_unlocked+0x188>
   1227c:	82 10 00 08 	mov  %o0, %g1
   12280:	82 20 00 08 	neg  %o0, %g1
   12284:	39 00 00 01 	sethi  %hi(0x400), %i4
   12288:	b8 1f 23 98 	xor  %i4, 0x398, %i4
   1228c:	b8 05 c0 1c 	add  %l7, %i4, %i4
   12290:	c2 07 20 08 	ld  [ %i4 + 8 ], %g1
   12294:	80 a0 40 07 	cmp  %g1, %g7
   12298:	02 80 00 19 	be  122fc <__GI_fflush_unlocked+0x200>
   1229c:	b4 10 00 07 	mov  %g7, %i2
   122a0:	83 3f 20 02 	sra  %i4, 2, %g1
   122a4:	85 3f 20 0c 	sra  %i4, 0xc, %g2
   122a8:	82 18 40 02 	xor  %g1, %g2, %g1
   122ac:	82 08 60 3f 	and  %g1, 0x3f, %g1
   122b0:	05 00 00 00 	sethi  %hi(0), %g2
   122b4:	84 18 a3 ac 	xor  %g2, 0x3ac, %g2
   122b8:	84 05 c0 02 	add  %l7, %g2, %g2
   122bc:	c6 68 80 01 	ldstub  [ %g2 + %g1 ], %g3
   122c0:	80 a0 e0 00 	cmp  %g3, 0
   122c4:	32 bf ff fc 	bne,a   122b4 <__GI_fflush_unlocked+0x1b8>
   122c8:	05 00 00 00 	sethi  %hi(0), %g2
   122cc:	c6 07 00 00 	ld  [ %i4 ], %g3
   122d0:	80 a0 e0 00 	cmp  %g3, 0
   122d4:	12 80 00 03 	bne  122e0 <__GI_fflush_unlocked+0x1e4>
   122d8:	88 10 20 01 	mov  1, %g4
   122dc:	c8 27 00 00 	st  %g4, [ %i4 ]
   122e0:	c0 28 80 01 	clrb  [ %g2 + %g1 ]
   122e4:	80 a0 e0 00 	cmp  %g3, 0
   122e8:	22 80 00 05 	be,a   122fc <__GI_fflush_unlocked+0x200>
   122ec:	f4 27 20 08 	st  %i2, [ %i4 + 8 ]
   122f0:	40 00 0f ba 	call  161d8 <__lll_lock_wait_private>
   122f4:	90 10 00 1c 	mov  %i4, %o0
   122f8:	f4 27 20 08 	st  %i2, [ %i4 + 8 ]
   122fc:	c2 07 20 04 	ld  [ %i4 + 4 ], %g1
   12300:	80 a0 60 00 	cmp  %g1, 0
   12304:	12 80 00 1d 	bne  12378 <__GI_fflush_unlocked+0x27c>
   12308:	fa 07 40 00 	ld  [ %i5 ], %i5
   1230c:	83 3f 20 02 	sra  %i4, 2, %g1
   12310:	85 3f 20 0c 	sra  %i4, 0xc, %g2
   12314:	c0 27 20 08 	clr  [ %i4 + 8 ]
   12318:	82 18 40 02 	xor  %g1, %g2, %g1
   1231c:	82 08 60 3f 	and  %g1, 0x3f, %g1
   12320:	05 00 00 00 	sethi  %hi(0), %g2
   12324:	84 18 a3 ac 	xor  %g2, 0x3ac, %g2
   12328:	84 05 c0 02 	add  %l7, %g2, %g2
   1232c:	c6 68 80 01 	ldstub  [ %g2 + %g1 ], %g3
   12330:	80 a0 e0 00 	cmp  %g3, 0
   12334:	32 bf ff fc 	bne,a   12324 <__GI_fflush_unlocked+0x228>
   12338:	05 00 00 00 	sethi  %hi(0), %g2
   1233c:	c6 07 00 00 	ld  [ %i4 ], %g3
   12340:	c0 28 80 01 	clrb  [ %g2 + %g1 ]
   12344:	c0 27 00 00 	clr  [ %i4 ]
   12348:	80 a0 e0 01 	cmp  %g3, 1
   1234c:	04 80 00 0c 	ble  1237c <__GI_fflush_unlocked+0x280>
   12350:	b0 10 20 00 	clr  %i0
   12354:	82 10 20 8e 	mov  0x8e, %g1
   12358:	96 10 20 00 	clr  %o3
   1235c:	94 10 20 01 	mov  1, %o2
   12360:	92 10 20 81 	mov  0x81, %o1
   12364:	90 10 00 1c 	mov  %i4, %o0
   12368:	91 d0 20 10 	ta  0x10
   1236c:	1a 80 00 03 	bcc  12378 <__GI_fflush_unlocked+0x27c>
   12370:	82 10 00 08 	mov  %o0, %g1
   12374:	82 20 00 08 	neg  %o0, %g1
   12378:	b0 10 20 00 	clr  %i0
   1237c:	80 a7 60 00 	cmp  %i5, 0
   12380:	32 80 00 06 	bne,a   12398 <__GI_fflush_unlocked+0x29c>
   12384:	c2 17 40 00 	lduh  [ %i5 ], %g1
   12388:	7f ff fe a6 	call  11e20 <_stdio_openlist_dec_use>
   1238c:	01 00 00 00 	nop 
   12390:	81 c7 e0 08 	ret 
   12394:	81 e8 00 00 	restore 
   12398:	80 88 60 40 	btst  0x40, %g1
   1239c:	22 bf ff f8 	be,a   1237c <__GI_fflush_unlocked+0x280>
   123a0:	fa 07 60 20 	ld  [ %i5 + 0x20 ], %i5
   123a4:	03 00 00 00 	sethi  %hi(0), %g1
   123a8:	82 18 62 68 	xor  %g1, 0x268, %g1
   123ac:	b8 05 c0 01 	add  %l7, %g1, %i4
   123b0:	c2 07 00 00 	ld  [ %i4 ], %g1
   123b4:	80 a0 60 02 	cmp  %g1, 2
   123b8:	22 80 00 22 	be,a   12440 <__GI_fflush_unlocked+0x344>
   123bc:	c2 17 40 00 	lduh  [ %i5 ], %g1
   123c0:	c2 07 60 44 	ld  [ %i5 + 0x44 ], %g1
   123c4:	80 a0 40 07 	cmp  %g1, %g7
   123c8:	02 80 00 1a 	be  12430 <__GI_fflush_unlocked+0x334>
   123cc:	b4 10 00 07 	mov  %g7, %i2
   123d0:	90 07 60 3c 	add  %i5, 0x3c, %o0
   123d4:	83 3a 20 02 	sra  %o0, 2, %g1
   123d8:	85 3a 20 0c 	sra  %o0, 0xc, %g2
   123dc:	82 18 40 02 	xor  %g1, %g2, %g1
   123e0:	82 08 60 3f 	and  %g1, 0x3f, %g1
   123e4:	05 00 00 00 	sethi  %hi(0), %g2
   123e8:	84 18 a3 ac 	xor  %g2, 0x3ac, %g2
   123ec:	84 05 c0 02 	add  %l7, %g2, %g2
   123f0:	c6 68 80 01 	ldstub  [ %g2 + %g1 ], %g3
   123f4:	80 a0 e0 00 	cmp  %g3, 0
   123f8:	32 bf ff fc 	bne,a   123e8 <__GI_fflush_unlocked+0x2ec>
   123fc:	05 00 00 00 	sethi  %hi(0), %g2
   12400:	c6 07 60 3c 	ld  [ %i5 + 0x3c ], %g3
   12404:	80 a0 e0 00 	cmp  %g3, 0
   12408:	12 80 00 03 	bne  12414 <__GI_fflush_unlocked+0x318>
   1240c:	88 10 20 01 	mov  1, %g4
   12410:	c8 27 60 3c 	st  %g4, [ %i5 + 0x3c ]
   12414:	c0 28 80 01 	clrb  [ %g2 + %g1 ]
   12418:	80 a0 e0 00 	cmp  %g3, 0
   1241c:	22 80 00 05 	be,a   12430 <__GI_fflush_unlocked+0x334>
   12420:	f4 27 60 44 	st  %i2, [ %i5 + 0x44 ]
   12424:	40 00 0f 6d 	call  161d8 <__lll_lock_wait_private>
   12428:	01 00 00 00 	nop 
   1242c:	f4 27 60 44 	st  %i2, [ %i5 + 0x44 ]
   12430:	c2 07 60 40 	ld  [ %i5 + 0x40 ], %g1
   12434:	82 00 60 01 	inc  %g1
   12438:	c2 27 60 40 	st  %g1, [ %i5 + 0x40 ]
   1243c:	c2 17 40 00 	lduh  [ %i5 ], %g1
   12440:	82 10 40 1b 	or  %g1, %i3, %g1
   12444:	82 18 61 40 	xor  %g1, 0x140, %g1
   12448:	80 88 63 40 	btst  0x340, %g1
   1244c:	32 80 00 0d 	bne,a   12480 <__GI_fflush_unlocked+0x384>
   12450:	c2 07 00 00 	ld  [ %i4 ], %g1
   12454:	40 00 21 64 	call  1a9e4 <__stdio_wcommit>
   12458:	90 10 00 1d 	mov  %i5, %o0
   1245c:	80 a2 20 00 	cmp  %o0, 0
   12460:	32 80 00 07 	bne,a   1247c <__GI_fflush_unlocked+0x380>
   12464:	b0 10 3f ff 	mov  -1, %i0
   12468:	c2 07 60 08 	ld  [ %i5 + 8 ], %g1
   1246c:	c2 27 60 1c 	st  %g1, [ %i5 + 0x1c ]
   12470:	c2 17 40 00 	lduh  [ %i5 ], %g1
   12474:	82 08 7f bf 	and  %g1, -65, %g1
   12478:	c2 37 40 00 	sth  %g1, [ %i5 ]
   1247c:	c2 07 00 00 	ld  [ %i4 ], %g1
   12480:	80 a0 60 02 	cmp  %g1, 2
   12484:	22 bf ff be 	be,a   1237c <__GI_fflush_unlocked+0x280>
   12488:	fa 07 60 20 	ld  [ %i5 + 0x20 ], %i5
   1248c:	c2 07 60 40 	ld  [ %i5 + 0x40 ], %g1
   12490:	82 00 7f ff 	add  %g1, -1, %g1
   12494:	80 a0 60 00 	cmp  %g1, 0
   12498:	12 80 00 1d 	bne  1250c <__GI_fflush_unlocked+0x410>
   1249c:	c2 27 60 40 	st  %g1, [ %i5 + 0x40 ]
   124a0:	90 07 60 3c 	add  %i5, 0x3c, %o0
   124a4:	c0 27 60 44 	clr  [ %i5 + 0x44 ]
   124a8:	83 3a 20 02 	sra  %o0, 2, %g1
   124ac:	85 3a 20 0c 	sra  %o0, 0xc, %g2
   124b0:	82 18 40 02 	xor  %g1, %g2, %g1
   124b4:	82 08 60 3f 	and  %g1, 0x3f, %g1
   124b8:	05 00 00 00 	sethi  %hi(0), %g2
   124bc:	84 18 a3 ac 	xor  %g2, 0x3ac, %g2
   124c0:	84 05 c0 02 	add  %l7, %g2, %g2
   124c4:	c6 68 80 01 	ldstub  [ %g2 + %g1 ], %g3
   124c8:	80 a0 e0 00 	cmp  %g3, 0
   124cc:	32 bf ff fc 	bne,a   124bc <__GI_fflush_unlocked+0x3c0>
   124d0:	05 00 00 00 	sethi  %hi(0), %g2
   124d4:	c6 07 60 3c 	ld  [ %i5 + 0x3c ], %g3
   124d8:	c0 27 60 3c 	clr  [ %i5 + 0x3c ]
   124dc:	c0 28 80 01 	clrb  [ %g2 + %g1 ]
   124e0:	80 a0 e0 01 	cmp  %g3, 1
   124e4:	24 bf ff a6 	ble,a   1237c <__GI_fflush_unlocked+0x280>
   124e8:	fa 07 60 20 	ld  [ %i5 + 0x20 ], %i5
   124ec:	82 10 20 8e 	mov  0x8e, %g1
   124f0:	96 10 20 00 	clr  %o3
   124f4:	94 10 20 01 	mov  1, %o2
   124f8:	92 10 20 81 	mov  0x81, %o1
   124fc:	91 d0 20 10 	ta  0x10
   12500:	1a 80 00 03 	bcc  1250c <__GI_fflush_unlocked+0x410>
   12504:	82 10 00 08 	mov  %o0, %g1
   12508:	82 20 00 08 	neg  %o0, %g1
   1250c:	10 bf ff 9c 	b  1237c <__GI_fflush_unlocked+0x280>
   12510:	fa 07 60 20 	ld  [ %i5 + 0x20 ], %i5

00012514 <__GI_fputs_unlocked>:
   12514:	9d e3 bf a0 	save  %sp, -96, %sp
   12518:	40 00 07 3a 	call  14200 <__GI_strlen>
   1251c:	90 10 00 18 	mov  %i0, %o0
   12520:	96 10 00 19 	mov  %i1, %o3
   12524:	ba 10 00 08 	mov  %o0, %i5
   12528:	94 10 00 08 	mov  %o0, %o2
   1252c:	92 10 20 01 	mov  1, %o1
   12530:	90 10 00 18 	mov  %i0, %o0
   12534:	40 00 00 07 	call  12550 <__GI_fwrite_unlocked>
   12538:	b0 10 3f ff 	mov  -1, %i0
   1253c:	80 a2 00 1d 	cmp  %o0, %i5
   12540:	22 80 00 02 	be,a   12548 <__GI_fputs_unlocked+0x34>
   12544:	b0 10 00 08 	mov  %o0, %i0
   12548:	81 c7 e0 08 	ret 
   1254c:	81 e8 00 00 	restore 

00012550 <__GI_fwrite_unlocked>:
   12550:	9d e3 bf a0 	save  %sp, -96, %sp
   12554:	2f 00 00 b6 	sethi  %hi(0x2d800), %l7
   12558:	7f ff f8 b3 	call  10824 <__sparc_get_pc_thunk.l7>
   1255c:	ae 05 e1 74 	add  %l7, 0x174, %l7	! 2d974 <__FRAME_END__+0x527c>
   12560:	c2 16 c0 00 	lduh  [ %i3 ], %g1
   12564:	82 08 60 c0 	and  %g1, 0xc0, %g1
   12568:	80 a0 60 c0 	cmp  %g1, 0xc0
   1256c:	12 80 00 09 	bne  12590 <__GI_fwrite_unlocked+0x40>
   12570:	92 10 20 80 	mov  0x80, %o1
   12574:	80 a6 60 00 	cmp  %i1, 0
   12578:	02 80 00 04 	be  12588 <__GI_fwrite_unlocked+0x38>
   1257c:	80 a6 a0 00 	cmp  %i2, 0
   12580:	12 80 00 0a 	bne  125a8 <__GI_fwrite_unlocked+0x58>
   12584:	01 00 00 00 	nop 
   12588:	81 c7 e0 08 	ret 
   1258c:	91 e8 20 00 	restore  %g0, 0, %o0
   12590:	40 00 20 d0 	call  1a8d0 <__stdio_trans2w_o>
   12594:	90 10 00 1b 	mov  %i3, %o0
   12598:	80 a2 20 00 	cmp  %o0, 0
   1259c:	02 bf ff f7 	be  12578 <__GI_fwrite_unlocked+0x28>
   125a0:	80 a6 60 00 	cmp  %i1, 0
   125a4:	30 bf ff f9 	b,a   12588 <__GI_fwrite_unlocked+0x38>
   125a8:	80 56 40 1a 	umul  %i1, %i2, %g0
   125ac:	83 40 00 00 	rd  %y, %g1
   125b0:	80 a0 60 00 	cmp  %g1, 0
   125b4:	12 80 00 0c 	bne  125e4 <__GI_fwrite_unlocked+0x94>
   125b8:	94 10 00 1b 	mov  %i3, %o2
   125bc:	92 5e 40 1a 	smul  %i1, %i2, %o1
   125c0:	40 00 20 02 	call  1a5c8 <__stdio_fwrite>
   125c4:	90 10 00 18 	mov  %i0, %o0
   125c8:	81 80 20 00 	wr  %g0, %y
   125cc:	01 00 00 00 	nop 
   125d0:	01 00 00 00 	nop 
   125d4:	01 00 00 00 	nop 
   125d8:	b0 72 00 19 	udiv  %o0, %i1, %i0
   125dc:	81 c7 e0 08 	ret 
   125e0:	81 e8 00 00 	restore 
   125e4:	c2 16 c0 00 	lduh  [ %i3 ], %g1
   125e8:	82 10 60 08 	or  %g1, 8, %g1
   125ec:	c2 36 c0 00 	sth  %g1, [ %i3 ]
   125f0:	03 00 00 00 	sethi  %hi(0), %g1
   125f4:	82 18 7f f8 	xor  %g1, -8, %g1
   125f8:	ae 10 00 01 	mov  %g1, %l7
   125fc:	82 10 20 16 	mov  0x16, %g1
   12600:	10 bf ff e2 	b  12588 <__GI_fwrite_unlocked+0x38>
   12604:	c2 21 c0 17 	st  %g1, [ %g7 + %l7 ]
   12608:	80 8a 60 01 	btst  1, %o1
   1260c:	02 80 00 08 	be  1262c <__GI_fwrite_unlocked+0xdc>
   12610:	80 8a 60 02 	btst  2, %o1
   12614:	c4 0a 7f ff 	ldub  [ %o1 + -1 ], %g2
   12618:	92 22 60 01 	dec  %o1
   1261c:	c4 2a 3f ff 	stb  %g2, [ %o0 + -1 ]
   12620:	94 22 a0 01 	dec  %o2
   12624:	02 80 00 1a 	be  1268c <__GI_memmove+0x3c>
   12628:	90 22 20 01 	dec  %o0
   1262c:	c4 12 7f fe 	lduh  [ %o1 + -2 ], %g2
   12630:	92 22 60 02 	sub  %o1, 2, %o1
   12634:	c4 32 3f fe 	sth  %g2, [ %o0 + -2 ]
   12638:	94 22 a0 02 	sub  %o2, 2, %o2
   1263c:	10 80 00 14 	b  1268c <__GI_memmove+0x3c>
   12640:	90 22 20 02 	sub  %o0, 2, %o0

00012644 <bcopy>:
   12644:	96 10 00 08 	mov  %o0, %o3
   12648:	90 10 00 09 	mov  %o1, %o0
   1264c:	92 10 00 0b 	mov  %o3, %o1

00012650 <__GI_memmove>:
   12650:	80 a2 00 09 	cmp  %o0, %o1
   12654:	d0 23 a0 40 	st  %o0, [ %sp + 0x40 ]
   12658:	08 80 01 79 	bleu  12c3c <__GI_memcpy+0x8>
   1265c:	98 22 00 09 	sub  %o0, %o1, %o4
   12660:	96 02 40 0a 	add  %o1, %o2, %o3
   12664:	80 a2 c0 08 	cmp  %o3, %o0
   12668:	08 80 01 76 	bleu  12c40 <__GI_memcpy+0xc>
   1266c:	9a 8b 20 03 	andcc  %o4, 3, %o5
   12670:	92 02 40 0a 	add  %o1, %o2, %o1
   12674:	90 02 00 0a 	add  %o0, %o2, %o0
   12678:	12 80 00 f9 	bne  12a5c <__GI_memmove+0x40c>
   1267c:	80 a2 a0 0f 	cmp  %o2, 0xf
   12680:	08 80 00 eb 	bleu  12a2c <__GI_memmove+0x3dc>
   12684:	80 8a 60 03 	btst  3, %o1
   12688:	12 bf ff e0 	bne  12608 <__GI_fwrite_unlocked+0xb8>
   1268c:	80 8a 60 04 	btst  4, %o1
   12690:	02 80 00 07 	be  126ac <__GI_memmove+0x5c>
   12694:	82 10 00 0a 	mov  %o2, %g1
   12698:	d8 02 7f fc 	ld  [ %o1 + -4 ], %o4
   1269c:	82 20 60 04 	sub  %g1, 4, %g1
   126a0:	d8 22 3f fc 	st  %o4, [ %o0 + -4 ]
   126a4:	92 22 60 04 	sub  %o1, 4, %o1
   126a8:	90 22 20 04 	sub  %o0, 4, %o0
   126ac:	8c 88 7f 80 	andcc  %g1, -128, %g6
   126b0:	02 80 00 37 	be  1278c <__GI_memmove+0x13c>
   126b4:	80 8a 20 04 	btst  4, %o0
   126b8:	02 80 00 84 	be  128c8 <__GI_memmove+0x278>
   126bc:	d4 1a 7f e0 	ldd  [ %o1 + -32 ], %o2
   126c0:	d8 1a 7f e8 	ldd  [ %o1 + -24 ], %o4
   126c4:	c4 1a 7f f0 	ldd  [ %o1 + -16 ], %g2
   126c8:	c8 1a 7f f8 	ldd  [ %o1 + -8 ], %g4
   126cc:	d4 22 3f e0 	st  %o2, [ %o0 + -32 ]
   126d0:	d6 22 3f e4 	st  %o3, [ %o0 + -28 ]
   126d4:	d8 22 3f e8 	st  %o4, [ %o0 + -24 ]
   126d8:	da 22 3f ec 	st  %o5, [ %o0 + -20 ]
   126dc:	c4 22 3f f0 	st  %g2, [ %o0 + -16 ]
   126e0:	c6 22 3f f4 	st  %g3, [ %o0 + -12 ]
   126e4:	c8 22 3f f8 	st  %g4, [ %o0 + -8 ]
   126e8:	ca 22 3f fc 	st  %g5, [ %o0 + -4 ]
   126ec:	d4 1a 7f c0 	ldd  [ %o1 + -64 ], %o2
   126f0:	d8 1a 7f c8 	ldd  [ %o1 + -56 ], %o4
   126f4:	c4 1a 7f d0 	ldd  [ %o1 + -48 ], %g2
   126f8:	c8 1a 7f d8 	ldd  [ %o1 + -40 ], %g4
   126fc:	d4 22 3f c0 	st  %o2, [ %o0 + -64 ]
   12700:	d6 22 3f c4 	st  %o3, [ %o0 + -60 ]
   12704:	d8 22 3f c8 	st  %o4, [ %o0 + -56 ]
   12708:	da 22 3f cc 	st  %o5, [ %o0 + -52 ]
   1270c:	c4 22 3f d0 	st  %g2, [ %o0 + -48 ]
   12710:	c6 22 3f d4 	st  %g3, [ %o0 + -44 ]
   12714:	c8 22 3f d8 	st  %g4, [ %o0 + -40 ]
   12718:	ca 22 3f dc 	st  %g5, [ %o0 + -36 ]
   1271c:	d4 1a 7f a0 	ldd  [ %o1 + -96 ], %o2
   12720:	d8 1a 7f a8 	ldd  [ %o1 + -88 ], %o4
   12724:	c4 1a 7f b0 	ldd  [ %o1 + -80 ], %g2
   12728:	c8 1a 7f b8 	ldd  [ %o1 + -72 ], %g4
   1272c:	d4 22 3f a0 	st  %o2, [ %o0 + -96 ]
   12730:	d6 22 3f a4 	st  %o3, [ %o0 + -92 ]
   12734:	d8 22 3f a8 	st  %o4, [ %o0 + -88 ]
   12738:	da 22 3f ac 	st  %o5, [ %o0 + -84 ]
   1273c:	c4 22 3f b0 	st  %g2, [ %o0 + -80 ]
   12740:	c6 22 3f b4 	st  %g3, [ %o0 + -76 ]
   12744:	c8 22 3f b8 	st  %g4, [ %o0 + -72 ]
   12748:	ca 22 3f bc 	st  %g5, [ %o0 + -68 ]
   1274c:	d4 1a 7f 80 	ldd  [ %o1 + -128 ], %o2
   12750:	d8 1a 7f 88 	ldd  [ %o1 + -120 ], %o4
   12754:	c4 1a 7f 90 	ldd  [ %o1 + -112 ], %g2
   12758:	c8 1a 7f 98 	ldd  [ %o1 + -104 ], %g4
   1275c:	d4 22 3f 80 	st  %o2, [ %o0 + -128 ]
   12760:	d6 22 3f 84 	st  %o3, [ %o0 + -124 ]
   12764:	d8 22 3f 88 	st  %o4, [ %o0 + -120 ]
   12768:	da 22 3f 8c 	st  %o5, [ %o0 + -116 ]
   1276c:	c4 22 3f 90 	st  %g2, [ %o0 + -112 ]
   12770:	c6 22 3f 94 	st  %g3, [ %o0 + -108 ]
   12774:	c8 22 3f 98 	st  %g4, [ %o0 + -104 ]
   12778:	ca 22 3f 9c 	st  %g5, [ %o0 + -100 ]
   1277c:	8c a1 a0 80 	subcc  %g6, 0x80, %g6
   12780:	92 22 60 80 	sub  %o1, 0x80, %o1
   12784:	12 bf ff ce 	bne  126bc <__GI_memmove+0x6c>
   12788:	90 22 20 80 	sub  %o0, 0x80, %o0
   1278c:	8c 88 60 70 	andcc  %g1, 0x70, %g6
   12790:	02 80 00 34 	be  12860 <__GI_memmove+0x210>
   12794:	80 88 60 08 	btst  8, %g1
   12798:	99 31 a0 01 	srl  %g6, 1, %o4
   1279c:	84 10 00 0f 	mov  %o7, %g2
   127a0:	98 01 80 0c 	add  %g6, %o4, %o4
   127a4:	40 00 05 3d 	call  13c98 <__GI_memcpy+0x1064>
   127a8:	92 22 40 06 	sub  %o1, %g6, %o1
   127ac:	9e 10 00 02 	mov  %g2, %o7
   127b0:	81 c3 60 bc 	jmp  %o5 + 0xbc
   127b4:	90 22 00 06 	sub  %o0, %g6, %o0
   127b8:	c4 1a 60 60 	ldd  [ %o1 + 0x60 ], %g2
   127bc:	c8 1a 60 68 	ldd  [ %o1 + 0x68 ], %g4
   127c0:	c4 22 20 60 	st  %g2, [ %o0 + 0x60 ]
   127c4:	c6 22 20 64 	st  %g3, [ %o0 + 0x64 ]
   127c8:	c8 22 20 68 	st  %g4, [ %o0 + 0x68 ]
   127cc:	ca 22 20 6c 	st  %g5, [ %o0 + 0x6c ]
   127d0:	c4 1a 60 50 	ldd  [ %o1 + 0x50 ], %g2
   127d4:	c8 1a 60 58 	ldd  [ %o1 + 0x58 ], %g4
   127d8:	c4 22 20 50 	st  %g2, [ %o0 + 0x50 ]
   127dc:	c6 22 20 54 	st  %g3, [ %o0 + 0x54 ]
   127e0:	c8 22 20 58 	st  %g4, [ %o0 + 0x58 ]
   127e4:	ca 22 20 5c 	st  %g5, [ %o0 + 0x5c ]
   127e8:	c4 1a 60 40 	ldd  [ %o1 + 0x40 ], %g2
   127ec:	c8 1a 60 48 	ldd  [ %o1 + 0x48 ], %g4
   127f0:	c4 22 20 40 	st  %g2, [ %o0 + 0x40 ]
   127f4:	c6 22 20 44 	st  %g3, [ %o0 + 0x44 ]
   127f8:	c8 22 20 48 	st  %g4, [ %o0 + 0x48 ]
   127fc:	ca 22 20 4c 	st  %g5, [ %o0 + 0x4c ]
   12800:	c4 1a 60 30 	ldd  [ %o1 + 0x30 ], %g2
   12804:	c8 1a 60 38 	ldd  [ %o1 + 0x38 ], %g4
   12808:	c4 22 20 30 	st  %g2, [ %o0 + 0x30 ]
   1280c:	c6 22 20 34 	st  %g3, [ %o0 + 0x34 ]
   12810:	c8 22 20 38 	st  %g4, [ %o0 + 0x38 ]
   12814:	ca 22 20 3c 	st  %g5, [ %o0 + 0x3c ]
   12818:	c4 1a 60 20 	ldd  [ %o1 + 0x20 ], %g2
   1281c:	c8 1a 60 28 	ldd  [ %o1 + 0x28 ], %g4
   12820:	c4 22 20 20 	st  %g2, [ %o0 + 0x20 ]
   12824:	c6 22 20 24 	st  %g3, [ %o0 + 0x24 ]
   12828:	c8 22 20 28 	st  %g4, [ %o0 + 0x28 ]
   1282c:	ca 22 20 2c 	st  %g5, [ %o0 + 0x2c ]
   12830:	c4 1a 60 10 	ldd  [ %o1 + 0x10 ], %g2
   12834:	c8 1a 60 18 	ldd  [ %o1 + 0x18 ], %g4
   12838:	c4 22 20 10 	st  %g2, [ %o0 + 0x10 ]
   1283c:	c6 22 20 14 	st  %g3, [ %o0 + 0x14 ]
   12840:	c8 22 20 18 	st  %g4, [ %o0 + 0x18 ]
   12844:	ca 22 20 1c 	st  %g5, [ %o0 + 0x1c ]
   12848:	c4 1a 60 00 	ldd  [ %o1 ], %g2
   1284c:	c8 1a 60 08 	ldd  [ %o1 + 8 ], %g4
   12850:	c4 22 20 00 	st  %g2, [ %o0 ]
   12854:	c6 22 20 04 	st  %g3, [ %o0 + 4 ]
   12858:	c8 22 20 08 	st  %g4, [ %o0 + 8 ]
   1285c:	ca 22 20 0c 	st  %g5, [ %o0 + 0xc ]
   12860:	02 80 00 07 	be  1287c <__GI_memmove+0x22c>
   12864:	80 88 60 04 	btst  4, %g1
   12868:	c4 1a 7f f8 	ldd  [ %o1 + -8 ], %g2
   1286c:	90 22 20 08 	sub  %o0, 8, %o0
   12870:	92 22 60 08 	sub  %o1, 8, %o1
   12874:	c4 22 00 00 	st  %g2, [ %o0 ]
   12878:	c6 22 20 04 	st  %g3, [ %o0 + 4 ]
   1287c:	02 80 00 06 	be  12894 <__GI_memmove+0x244>
   12880:	80 88 60 02 	btst  2, %g1
   12884:	c4 02 7f fc 	ld  [ %o1 + -4 ], %g2
   12888:	92 22 60 04 	sub  %o1, 4, %o1
   1288c:	c4 22 3f fc 	st  %g2, [ %o0 + -4 ]
   12890:	90 22 20 04 	sub  %o0, 4, %o0
   12894:	02 80 00 06 	be  128ac <__GI_memmove+0x25c>
   12898:	80 88 60 01 	btst  1, %g1
   1289c:	c4 12 7f fe 	lduh  [ %o1 + -2 ], %g2
   128a0:	92 22 60 02 	sub  %o1, 2, %o1
   128a4:	c4 32 3f fe 	sth  %g2, [ %o0 + -2 ]
   128a8:	90 22 20 02 	sub  %o0, 2, %o0
   128ac:	02 80 00 04 	be  128bc <__GI_memmove+0x26c>
   128b0:	01 00 00 00 	nop 
   128b4:	c4 0a 7f ff 	ldub  [ %o1 + -1 ], %g2
   128b8:	c4 2a 3f ff 	stb  %g2, [ %o0 + -1 ]
   128bc:	81 c3 e0 08 	retl 
   128c0:	d0 03 a0 40 	ld  [ %sp + 0x40 ], %o0
   128c4:	d4 1a 7f e0 	ldd  [ %o1 + -32 ], %o2
   128c8:	d8 1a 7f e8 	ldd  [ %o1 + -24 ], %o4
   128cc:	c4 1a 7f f0 	ldd  [ %o1 + -16 ], %g2
   128d0:	c8 1a 7f f8 	ldd  [ %o1 + -8 ], %g4
   128d4:	d4 3a 3f e0 	std  %o2, [ %o0 + -32 ]
   128d8:	d8 3a 3f e8 	std  %o4, [ %o0 + -24 ]
   128dc:	c4 3a 3f f0 	std  %g2, [ %o0 + -16 ]
   128e0:	c8 3a 3f f8 	std  %g4, [ %o0 + -8 ]
   128e4:	d4 1a 7f c0 	ldd  [ %o1 + -64 ], %o2
   128e8:	d8 1a 7f c8 	ldd  [ %o1 + -56 ], %o4
   128ec:	c4 1a 7f d0 	ldd  [ %o1 + -48 ], %g2
   128f0:	c8 1a 7f d8 	ldd  [ %o1 + -40 ], %g4
   128f4:	d4 3a 3f c0 	std  %o2, [ %o0 + -64 ]
   128f8:	d8 3a 3f c8 	std  %o4, [ %o0 + -56 ]
   128fc:	c4 3a 3f d0 	std  %g2, [ %o0 + -48 ]
   12900:	c8 3a 3f d8 	std  %g4, [ %o0 + -40 ]
   12904:	d4 1a 7f a0 	ldd  [ %o1 + -96 ], %o2
   12908:	d8 1a 7f a8 	ldd  [ %o1 + -88 ], %o4
   1290c:	c4 1a 7f b0 	ldd  [ %o1 + -80 ], %g2
   12910:	c8 1a 7f b8 	ldd  [ %o1 + -72 ], %g4
   12914:	d4 3a 3f a0 	std  %o2, [ %o0 + -96 ]
   12918:	d8 3a 3f a8 	std  %o4, [ %o0 + -88 ]
   1291c:	c4 3a 3f b0 	std  %g2, [ %o0 + -80 ]
   12920:	c8 3a 3f b8 	std  %g4, [ %o0 + -72 ]
   12924:	d4 1a 7f 80 	ldd  [ %o1 + -128 ], %o2
   12928:	d8 1a 7f 88 	ldd  [ %o1 + -120 ], %o4
   1292c:	c4 1a 7f 90 	ldd  [ %o1 + -112 ], %g2
   12930:	c8 1a 7f 98 	ldd  [ %o1 + -104 ], %g4
   12934:	d4 3a 3f 80 	std  %o2, [ %o0 + -128 ]
   12938:	d8 3a 3f 88 	std  %o4, [ %o0 + -120 ]
   1293c:	c4 3a 3f 90 	std  %g2, [ %o0 + -112 ]
   12940:	c8 3a 3f 98 	std  %g4, [ %o0 + -104 ]
   12944:	8c a1 a0 80 	subcc  %g6, 0x80, %g6
   12948:	92 22 60 80 	sub  %o1, 0x80, %o1
   1294c:	12 bf ff de 	bne  128c4 <__GI_memmove+0x274>
   12950:	90 22 20 80 	sub  %o0, 0x80, %o0
   12954:	8c 88 60 70 	andcc  %g1, 0x70, %g6
   12958:	02 bf ff c2 	be  12860 <__GI_memmove+0x210>
   1295c:	80 88 60 08 	btst  8, %g1
   12960:	99 31 a0 01 	srl  %g6, 1, %o4
   12964:	84 10 00 0f 	mov  %o7, %g2
   12968:	98 01 80 0c 	add  %g6, %o4, %o4
   1296c:	40 00 04 cb 	call  13c98 <__GI_memcpy+0x1064>
   12970:	92 22 40 06 	sub  %o1, %g6, %o1
   12974:	9e 10 00 02 	mov  %g2, %o7
   12978:	81 c3 7e f4 	jmp  %o5 + -268
   1297c:	90 22 00 06 	sub  %o0, %g6, %o0
   12980:	96 0a a0 0e 	and  %o2, 0xe, %o3
   12984:	84 10 00 0f 	mov  %o7, %g2
   12988:	99 2a e0 03 	sll  %o3, 3, %o4
   1298c:	90 22 00 0b 	sub  %o0, %o3, %o0
   12990:	40 00 04 c2 	call  13c98 <__GI_memcpy+0x1064>
   12994:	92 22 40 0b 	sub  %o1, %o3, %o1
   12998:	9e 10 00 02 	mov  %g2, %o7
   1299c:	81 c3 60 84 	jmp  %o5 + 0x84
   129a0:	80 8a a0 01 	btst  1, %o2
   129a4:	c4 0a 60 0c 	ldub  [ %o1 + 0xc ], %g2
   129a8:	c6 0a 60 0d 	ldub  [ %o1 + 0xd ], %g3
   129ac:	c4 2a 20 0c 	stb  %g2, [ %o0 + 0xc ]
   129b0:	c6 2a 20 0d 	stb  %g3, [ %o0 + 0xd ]
   129b4:	c4 0a 60 0a 	ldub  [ %o1 + 0xa ], %g2
   129b8:	c6 0a 60 0b 	ldub  [ %o1 + 0xb ], %g3
   129bc:	c4 2a 20 0a 	stb  %g2, [ %o0 + 0xa ]
   129c0:	c6 2a 20 0b 	stb  %g3, [ %o0 + 0xb ]
   129c4:	c4 0a 60 08 	ldub  [ %o1 + 8 ], %g2
   129c8:	c6 0a 60 09 	ldub  [ %o1 + 9 ], %g3
   129cc:	c4 2a 20 08 	stb  %g2, [ %o0 + 8 ]
   129d0:	c6 2a 20 09 	stb  %g3, [ %o0 + 9 ]
   129d4:	c4 0a 60 06 	ldub  [ %o1 + 6 ], %g2
   129d8:	c6 0a 60 07 	ldub  [ %o1 + 7 ], %g3
   129dc:	c4 2a 20 06 	stb  %g2, [ %o0 + 6 ]
   129e0:	c6 2a 20 07 	stb  %g3, [ %o0 + 7 ]
   129e4:	c4 0a 60 04 	ldub  [ %o1 + 4 ], %g2
   129e8:	c6 0a 60 05 	ldub  [ %o1 + 5 ], %g3
   129ec:	c4 2a 20 04 	stb  %g2, [ %o0 + 4 ]
   129f0:	c6 2a 20 05 	stb  %g3, [ %o0 + 5 ]
   129f4:	c4 0a 60 02 	ldub  [ %o1 + 2 ], %g2
   129f8:	c6 0a 60 03 	ldub  [ %o1 + 3 ], %g3
   129fc:	c4 2a 20 02 	stb  %g2, [ %o0 + 2 ]
   12a00:	c6 2a 20 03 	stb  %g3, [ %o0 + 3 ]
   12a04:	c4 0a 60 00 	ldub  [ %o1 ], %g2
   12a08:	c6 0a 60 01 	ldub  [ %o1 + 1 ], %g3
   12a0c:	c4 2a 20 00 	stb  %g2, [ %o0 ]
   12a10:	c6 2a 20 01 	stb  %g3, [ %o0 + 1 ]
   12a14:	02 80 00 04 	be  12a24 <__GI_memmove+0x3d4>
   12a18:	01 00 00 00 	nop 
   12a1c:	c4 0a 7f ff 	ldub  [ %o1 + -1 ], %g2
   12a20:	c4 2a 3f ff 	stb  %g2, [ %o0 + -1 ]
   12a24:	81 c3 e0 08 	retl 
   12a28:	d0 03 a0 40 	ld  [ %sp + 0x40 ], %o0
   12a2c:	12 bf ff d5 	bne  12980 <__GI_memmove+0x330>
   12a30:	80 8a a0 08 	btst  8, %o2
   12a34:	02 80 00 08 	be  12a54 <__GI_memmove+0x404>
   12a38:	80 8a a0 04 	btst  4, %o2
   12a3c:	c4 02 7f f8 	ld  [ %o1 + -8 ], %g2
   12a40:	c6 02 7f fc 	ld  [ %o1 + -4 ], %g3
   12a44:	92 22 60 08 	sub  %o1, 8, %o1
   12a48:	c4 22 3f f8 	st  %g2, [ %o0 + -8 ]
   12a4c:	c6 22 3f fc 	st  %g3, [ %o0 + -4 ]
   12a50:	90 22 20 08 	sub  %o0, 8, %o0
   12a54:	10 bf ff 8a 	b  1287c <__GI_memmove+0x22c>
   12a58:	82 10 00 0a 	mov  %o2, %g1
   12a5c:	80 a2 a0 0f 	cmp  %o2, 0xf
   12a60:	08 bf ff c8 	bleu  12980 <__GI_memmove+0x330>
   12a64:	80 8a 20 03 	btst  3, %o0
   12a68:	02 80 00 11 	be  12aac <__GI_memmove+0x45c>
   12a6c:	80 8a 20 01 	btst  1, %o0
   12a70:	02 80 00 08 	be  12a90 <__GI_memmove+0x440>
   12a74:	80 8a 20 02 	btst  2, %o0
   12a78:	ca 0a 7f ff 	ldub  [ %o1 + -1 ], %g5
   12a7c:	92 22 60 01 	dec  %o1
   12a80:	ca 2a 3f ff 	stb  %g5, [ %o0 + -1 ]
   12a84:	90 22 20 01 	dec  %o0
   12a88:	02 80 00 09 	be  12aac <__GI_memmove+0x45c>
   12a8c:	94 22 a0 01 	dec  %o2
   12a90:	ca 0a 7f ff 	ldub  [ %o1 + -1 ], %g5
   12a94:	92 22 60 02 	sub  %o1, 2, %o1
   12a98:	ca 2a 3f ff 	stb  %g5, [ %o0 + -1 ]
   12a9c:	90 22 20 02 	sub  %o0, 2, %o0
   12aa0:	ca 0a 40 00 	ldub  [ %o1 ], %g5
   12aa4:	94 22 a0 02 	sub  %o2, 2, %o2
   12aa8:	ca 2a 00 00 	stb  %g5, [ %o0 ]
   12aac:	84 0a 60 03 	and  %o1, 3, %g2
   12ab0:	92 0a 7f fc 	and  %o1, -4, %o1
   12ab4:	86 0a a0 0c 	and  %o2, 0xc, %g3
   12ab8:	92 02 60 04 	add  %o1, 4, %o1
   12abc:	80 a0 e0 04 	cmp  %g3, 4
   12ac0:	89 28 a0 03 	sll  %g2, 3, %g4
   12ac4:	84 10 20 20 	mov  0x20, %g2
   12ac8:	02 80 00 18 	be  12b28 <__GI_memmove+0x4d8>
   12acc:	8c 20 80 04 	sub  %g2, %g4, %g6
   12ad0:	0a 80 00 10 	bcs  12b10 <__GI_memmove+0x4c0>
   12ad4:	80 a0 e0 08 	cmp  %g3, 8
   12ad8:	02 80 00 08 	be  12af8 <__GI_memmove+0x4a8>
   12adc:	87 32 a0 02 	srl  %o2, 2, %g3
   12ae0:	d6 02 7f fc 	ld  [ %o1 + -4 ], %o3
   12ae4:	90 02 3f f8 	add  %o0, -8, %o0
   12ae8:	d8 02 7f f8 	ld  [ %o1 + -8 ], %o4
   12aec:	92 02 7f f0 	add  %o1, -16, %o1
   12af0:	10 80 00 1e 	b  12b68 <__GI_memmove+0x518>
   12af4:	86 00 e0 01 	inc  %g3
   12af8:	d8 02 7f fc 	ld  [ %o1 + -4 ], %o4
   12afc:	90 02 3f fc 	add  %o0, -4, %o0
   12b00:	c2 02 7f f8 	ld  [ %o1 + -8 ], %g1
   12b04:	92 02 7f f4 	add  %o1, -12, %o1
   12b08:	10 80 00 1d 	b  12b7c <__GI_memmove+0x52c>
   12b0c:	86 00 e0 02 	add  %g3, 2, %g3
   12b10:	da 02 7f fc 	ld  [ %o1 + -4 ], %o5
   12b14:	90 02 3f f4 	add  %o0, -12, %o0
   12b18:	d6 02 7f f8 	ld  [ %o1 + -8 ], %o3
   12b1c:	92 02 7f ec 	add  %o1, -20, %o1
   12b20:	10 80 00 0d 	b  12b54 <__GI_memmove+0x504>
   12b24:	87 32 a0 02 	srl  %o2, 2, %g3
   12b28:	c2 02 7f fc 	ld  [ %o1 + -4 ], %g1
   12b2c:	87 32 a0 02 	srl  %o2, 2, %g3
   12b30:	da 02 7f f8 	ld  [ %o1 + -8 ], %o5
   12b34:	92 02 7f e8 	add  %o1, -24, %o1
   12b38:	90 02 3f f0 	add  %o0, -16, %o0
   12b3c:	86 00 ff ff 	add  %g3, -1, %g3
   12b40:	d6 02 60 0c 	ld  [ %o1 + 0xc ], %o3
   12b44:	85 2b 40 04 	sll  %o5, %g4, %g2
   12b48:	8b 30 40 06 	srl  %g1, %g6, %g5
   12b4c:	84 10 80 05 	or  %g2, %g5, %g2
   12b50:	c4 22 20 0c 	st  %g2, [ %o0 + 0xc ]
   12b54:	d8 02 60 08 	ld  [ %o1 + 8 ], %o4
   12b58:	85 2a c0 04 	sll  %o3, %g4, %g2
   12b5c:	8b 33 40 06 	srl  %o5, %g6, %g5
   12b60:	84 10 80 05 	or  %g2, %g5, %g2
   12b64:	c4 22 20 08 	st  %g2, [ %o0 + 8 ]
   12b68:	c2 02 60 04 	ld  [ %o1 + 4 ], %g1
   12b6c:	85 2b 00 04 	sll  %o4, %g4, %g2
   12b70:	8b 32 c0 06 	srl  %o3, %g6, %g5
   12b74:	84 10 80 05 	or  %g2, %g5, %g2
   12b78:	c4 22 20 04 	st  %g2, [ %o0 + 4 ]
   12b7c:	da 02 40 00 	ld  [ %o1 ], %o5
   12b80:	85 28 40 04 	sll  %g1, %g4, %g2
   12b84:	8b 33 00 06 	srl  %o4, %g6, %g5
   12b88:	86 80 ff fc 	addcc  %g3, -4, %g3
   12b8c:	84 10 80 05 	or  %g2, %g5, %g2
   12b90:	92 02 7f f0 	add  %o1, -16, %o1
   12b94:	c4 22 00 00 	st  %g2, [ %o0 ]
   12b98:	90 02 3f f0 	add  %o0, -16, %o0
   12b9c:	32 bf ff ea 	bne,a   12b44 <__GI_memmove+0x4f4>
   12ba0:	d6 02 60 0c 	ld  [ %o1 + 0xc ], %o3
   12ba4:	85 2b 40 04 	sll  %o5, %g4, %g2
   12ba8:	8b 30 40 06 	srl  %g1, %g6, %g5
   12bac:	87 31 20 03 	srl  %g4, 3, %g3
   12bb0:	84 10 80 05 	or  %g2, %g5, %g2
   12bb4:	92 02 40 03 	add  %o1, %g3, %o1
   12bb8:	80 8a a0 02 	btst  2, %o2
   12bbc:	c4 22 20 0c 	st  %g2, [ %o0 + 0xc ]
   12bc0:	02 80 00 08 	be  12be0 <__GI_memmove+0x590>
   12bc4:	80 8a a0 01 	btst  1, %o2
   12bc8:	ca 0a 60 0f 	ldub  [ %o1 + 0xf ], %g5
   12bcc:	92 02 7f fe 	add  %o1, -2, %o1
   12bd0:	ca 2a 20 0b 	stb  %g5, [ %o0 + 0xb ]
   12bd4:	90 02 3f fe 	add  %o0, -2, %o0
   12bd8:	ca 0a 60 10 	ldub  [ %o1 + 0x10 ], %g5
   12bdc:	ca 2a 20 0c 	stb  %g5, [ %o0 + 0xc ]
   12be0:	02 80 00 04 	be  12bf0 <__GI_memmove+0x5a0>
   12be4:	01 00 00 00 	nop 
   12be8:	ca 0a 60 0f 	ldub  [ %o1 + 0xf ], %g5
   12bec:	ca 2a 20 0b 	stb  %g5, [ %o0 + 0xb ]
   12bf0:	81 c3 e0 08 	retl 
   12bf4:	d0 03 a0 40 	ld  [ %sp + 0x40 ], %o0
   12bf8:	80 8a 60 01 	btst  1, %o1
   12bfc:	02 80 00 08 	be  12c1c <__GI_memmove+0x5cc>
   12c00:	80 8a 60 02 	btst  2, %o1
   12c04:	c4 0a 40 00 	ldub  [ %o1 ], %g2
   12c08:	92 02 60 01 	inc  %o1
   12c0c:	c4 2a 00 00 	stb  %g2, [ %o0 ]
   12c10:	94 22 a0 01 	dec  %o2
   12c14:	12 80 00 10 	bne  12c54 <__GI_memcpy+0x20>
   12c18:	90 02 20 01 	inc  %o0
   12c1c:	c4 12 40 00 	lduh  [ %o1 ], %g2
   12c20:	92 02 60 02 	add  %o1, 2, %o1
   12c24:	c4 32 00 00 	sth  %g2, [ %o0 ]
   12c28:	94 22 a0 02 	sub  %o2, 2, %o2
   12c2c:	10 80 00 0a 	b  12c54 <__GI_memcpy+0x20>
   12c30:	90 02 20 02 	add  %o0, 2, %o0

00012c34 <__GI_memcpy>:
   12c34:	98 22 00 09 	sub  %o0, %o1, %o4
   12c38:	d0 23 a0 40 	st  %o0, [ %sp + 0x40 ]
   12c3c:	9a 8b 20 03 	andcc  %o4, 3, %o5
   12c40:	12 80 00 f4 	bne  13010 <__GI_memcpy+0x3dc>
   12c44:	80 a2 a0 0f 	cmp  %o2, 0xf
   12c48:	08 80 04 08 	bleu  13c68 <__GI_memcpy+0x1034>
   12c4c:	80 8a 60 03 	btst  3, %o1
   12c50:	12 bf ff ea 	bne  12bf8 <__GI_memmove+0x5a8>
   12c54:	80 8a 60 04 	btst  4, %o1
   12c58:	02 80 00 07 	be  12c74 <__GI_memcpy+0x40>
   12c5c:	82 10 00 0a 	mov  %o2, %g1
   12c60:	d8 02 40 00 	ld  [ %o1 ], %o4
   12c64:	82 20 60 04 	sub  %g1, 4, %g1
   12c68:	d8 22 00 00 	st  %o4, [ %o0 ]
   12c6c:	92 02 60 04 	add  %o1, 4, %o1
   12c70:	90 02 20 04 	add  %o0, 4, %o0
   12c74:	8c 88 7f 80 	andcc  %g1, -128, %g6
   12c78:	02 80 00 37 	be  12d54 <__GI_memcpy+0x120>
   12c7c:	80 8a 20 04 	btst  4, %o0
   12c80:	02 80 00 84 	be  12e90 <__GI_memcpy+0x25c>
   12c84:	d4 1a 60 00 	ldd  [ %o1 ], %o2
   12c88:	d8 1a 60 08 	ldd  [ %o1 + 8 ], %o4
   12c8c:	c4 1a 60 10 	ldd  [ %o1 + 0x10 ], %g2
   12c90:	c8 1a 60 18 	ldd  [ %o1 + 0x18 ], %g4
   12c94:	d4 22 20 00 	st  %o2, [ %o0 ]
   12c98:	d6 22 20 04 	st  %o3, [ %o0 + 4 ]
   12c9c:	d8 22 20 08 	st  %o4, [ %o0 + 8 ]
   12ca0:	da 22 20 0c 	st  %o5, [ %o0 + 0xc ]
   12ca4:	c4 22 20 10 	st  %g2, [ %o0 + 0x10 ]
   12ca8:	c6 22 20 14 	st  %g3, [ %o0 + 0x14 ]
   12cac:	c8 22 20 18 	st  %g4, [ %o0 + 0x18 ]
   12cb0:	ca 22 20 1c 	st  %g5, [ %o0 + 0x1c ]
   12cb4:	d4 1a 60 20 	ldd  [ %o1 + 0x20 ], %o2
   12cb8:	d8 1a 60 28 	ldd  [ %o1 + 0x28 ], %o4
   12cbc:	c4 1a 60 30 	ldd  [ %o1 + 0x30 ], %g2
   12cc0:	c8 1a 60 38 	ldd  [ %o1 + 0x38 ], %g4
   12cc4:	d4 22 20 20 	st  %o2, [ %o0 + 0x20 ]
   12cc8:	d6 22 20 24 	st  %o3, [ %o0 + 0x24 ]
   12ccc:	d8 22 20 28 	st  %o4, [ %o0 + 0x28 ]
   12cd0:	da 22 20 2c 	st  %o5, [ %o0 + 0x2c ]
   12cd4:	c4 22 20 30 	st  %g2, [ %o0 + 0x30 ]
   12cd8:	c6 22 20 34 	st  %g3, [ %o0 + 0x34 ]
   12cdc:	c8 22 20 38 	st  %g4, [ %o0 + 0x38 ]
   12ce0:	ca 22 20 3c 	st  %g5, [ %o0 + 0x3c ]
   12ce4:	d4 1a 60 40 	ldd  [ %o1 + 0x40 ], %o2
   12ce8:	d8 1a 60 48 	ldd  [ %o1 + 0x48 ], %o4
   12cec:	c4 1a 60 50 	ldd  [ %o1 + 0x50 ], %g2
   12cf0:	c8 1a 60 58 	ldd  [ %o1 + 0x58 ], %g4
   12cf4:	d4 22 20 40 	st  %o2, [ %o0 + 0x40 ]
   12cf8:	d6 22 20 44 	st  %o3, [ %o0 + 0x44 ]
   12cfc:	d8 22 20 48 	st  %o4, [ %o0 + 0x48 ]
   12d00:	da 22 20 4c 	st  %o5, [ %o0 + 0x4c ]
   12d04:	c4 22 20 50 	st  %g2, [ %o0 + 0x50 ]
   12d08:	c6 22 20 54 	st  %g3, [ %o0 + 0x54 ]
   12d0c:	c8 22 20 58 	st  %g4, [ %o0 + 0x58 ]
   12d10:	ca 22 20 5c 	st  %g5, [ %o0 + 0x5c ]
   12d14:	d4 1a 60 60 	ldd  [ %o1 + 0x60 ], %o2
   12d18:	d8 1a 60 68 	ldd  [ %o1 + 0x68 ], %o4
   12d1c:	c4 1a 60 70 	ldd  [ %o1 + 0x70 ], %g2
   12d20:	c8 1a 60 78 	ldd  [ %o1 + 0x78 ], %g4
   12d24:	d4 22 20 60 	st  %o2, [ %o0 + 0x60 ]
   12d28:	d6 22 20 64 	st  %o3, [ %o0 + 0x64 ]
   12d2c:	d8 22 20 68 	st  %o4, [ %o0 + 0x68 ]
   12d30:	da 22 20 6c 	st  %o5, [ %o0 + 0x6c ]
   12d34:	c4 22 20 70 	st  %g2, [ %o0 + 0x70 ]
   12d38:	c6 22 20 74 	st  %g3, [ %o0 + 0x74 ]
   12d3c:	c8 22 20 78 	st  %g4, [ %o0 + 0x78 ]
   12d40:	ca 22 20 7c 	st  %g5, [ %o0 + 0x7c ]
   12d44:	8c a1 a0 80 	subcc  %g6, 0x80, %g6
   12d48:	92 02 60 80 	add  %o1, 0x80, %o1
   12d4c:	12 bf ff ce 	bne  12c84 <__GI_memcpy+0x50>
   12d50:	90 02 20 80 	add  %o0, 0x80, %o0
   12d54:	8c 88 60 70 	andcc  %g1, 0x70, %g6
   12d58:	02 80 00 34 	be  12e28 <__GI_memcpy+0x1f4>
   12d5c:	80 88 60 08 	btst  8, %g1
   12d60:	99 31 a0 01 	srl  %g6, 1, %o4
   12d64:	84 10 00 0f 	mov  %o7, %g2
   12d68:	98 01 80 0c 	add  %g6, %o4, %o4
   12d6c:	92 02 40 06 	add  %o1, %g6, %o1
   12d70:	40 00 03 ca 	call  13c98 <__GI_memcpy+0x1064>
   12d74:	90 02 00 06 	add  %o0, %g6, %o0
   12d78:	81 c3 60 b8 	jmp  %o5 + 0xb8
   12d7c:	9e 10 00 02 	mov  %g2, %o7
   12d80:	c4 1a 7f 90 	ldd  [ %o1 + -112 ], %g2
   12d84:	c8 1a 7f 98 	ldd  [ %o1 + -104 ], %g4
   12d88:	c4 22 3f 90 	st  %g2, [ %o0 + -112 ]
   12d8c:	c6 22 3f 94 	st  %g3, [ %o0 + -108 ]
   12d90:	c8 22 3f 98 	st  %g4, [ %o0 + -104 ]
   12d94:	ca 22 3f 9c 	st  %g5, [ %o0 + -100 ]
   12d98:	c4 1a 7f a0 	ldd  [ %o1 + -96 ], %g2
   12d9c:	c8 1a 7f a8 	ldd  [ %o1 + -88 ], %g4
   12da0:	c4 22 3f a0 	st  %g2, [ %o0 + -96 ]
   12da4:	c6 22 3f a4 	st  %g3, [ %o0 + -92 ]
   12da8:	c8 22 3f a8 	st  %g4, [ %o0 + -88 ]
   12dac:	ca 22 3f ac 	st  %g5, [ %o0 + -84 ]
   12db0:	c4 1a 7f b0 	ldd  [ %o1 + -80 ], %g2
   12db4:	c8 1a 7f b8 	ldd  [ %o1 + -72 ], %g4
   12db8:	c4 22 3f b0 	st  %g2, [ %o0 + -80 ]
   12dbc:	c6 22 3f b4 	st  %g3, [ %o0 + -76 ]
   12dc0:	c8 22 3f b8 	st  %g4, [ %o0 + -72 ]
   12dc4:	ca 22 3f bc 	st  %g5, [ %o0 + -68 ]
   12dc8:	c4 1a 7f c0 	ldd  [ %o1 + -64 ], %g2
   12dcc:	c8 1a 7f c8 	ldd  [ %o1 + -56 ], %g4
   12dd0:	c4 22 3f c0 	st  %g2, [ %o0 + -64 ]
   12dd4:	c6 22 3f c4 	st  %g3, [ %o0 + -60 ]
   12dd8:	c8 22 3f c8 	st  %g4, [ %o0 + -56 ]
   12ddc:	ca 22 3f cc 	st  %g5, [ %o0 + -52 ]
   12de0:	c4 1a 7f d0 	ldd  [ %o1 + -48 ], %g2
   12de4:	c8 1a 7f d8 	ldd  [ %o1 + -40 ], %g4
   12de8:	c4 22 3f d0 	st  %g2, [ %o0 + -48 ]
   12dec:	c6 22 3f d4 	st  %g3, [ %o0 + -44 ]
   12df0:	c8 22 3f d8 	st  %g4, [ %o0 + -40 ]
   12df4:	ca 22 3f dc 	st  %g5, [ %o0 + -36 ]
   12df8:	c4 1a 7f e0 	ldd  [ %o1 + -32 ], %g2
   12dfc:	c8 1a 7f e8 	ldd  [ %o1 + -24 ], %g4
   12e00:	c4 22 3f e0 	st  %g2, [ %o0 + -32 ]
   12e04:	c6 22 3f e4 	st  %g3, [ %o0 + -28 ]
   12e08:	c8 22 3f e8 	st  %g4, [ %o0 + -24 ]
   12e0c:	ca 22 3f ec 	st  %g5, [ %o0 + -20 ]
   12e10:	c4 1a 7f f0 	ldd  [ %o1 + -16 ], %g2
   12e14:	c8 1a 7f f8 	ldd  [ %o1 + -8 ], %g4
   12e18:	c4 22 3f f0 	st  %g2, [ %o0 + -16 ]
   12e1c:	c6 22 3f f4 	st  %g3, [ %o0 + -12 ]
   12e20:	c8 22 3f f8 	st  %g4, [ %o0 + -8 ]
   12e24:	ca 22 3f fc 	st  %g5, [ %o0 + -4 ]
   12e28:	02 80 00 07 	be  12e44 <__GI_memcpy+0x210>
   12e2c:	80 88 60 04 	btst  4, %g1
   12e30:	c4 1a 40 00 	ldd  [ %o1 ], %g2
   12e34:	90 02 20 08 	add  %o0, 8, %o0
   12e38:	c4 22 3f f8 	st  %g2, [ %o0 + -8 ]
   12e3c:	92 02 60 08 	add  %o1, 8, %o1
   12e40:	c6 22 3f fc 	st  %g3, [ %o0 + -4 ]
   12e44:	02 80 00 06 	be  12e5c <__GI_memcpy+0x228>
   12e48:	80 88 60 02 	btst  2, %g1
   12e4c:	c4 02 40 00 	ld  [ %o1 ], %g2
   12e50:	92 02 60 04 	add  %o1, 4, %o1
   12e54:	c4 22 00 00 	st  %g2, [ %o0 ]
   12e58:	90 02 20 04 	add  %o0, 4, %o0
   12e5c:	02 80 00 06 	be  12e74 <__GI_memcpy+0x240>
   12e60:	80 88 60 01 	btst  1, %g1
   12e64:	c4 12 40 00 	lduh  [ %o1 ], %g2
   12e68:	92 02 60 02 	add  %o1, 2, %o1
   12e6c:	c4 32 00 00 	sth  %g2, [ %o0 ]
   12e70:	90 02 20 02 	add  %o0, 2, %o0
   12e74:	02 80 00 04 	be  12e84 <__GI_memcpy+0x250>
   12e78:	01 00 00 00 	nop 
   12e7c:	c4 0a 40 00 	ldub  [ %o1 ], %g2
   12e80:	c4 2a 00 00 	stb  %g2, [ %o0 ]
   12e84:	81 c3 e0 08 	retl 
   12e88:	d0 03 a0 40 	ld  [ %sp + 0x40 ], %o0
   12e8c:	d4 1a 60 00 	ldd  [ %o1 ], %o2
   12e90:	d8 1a 60 08 	ldd  [ %o1 + 8 ], %o4
   12e94:	c4 1a 60 10 	ldd  [ %o1 + 0x10 ], %g2
   12e98:	c8 1a 60 18 	ldd  [ %o1 + 0x18 ], %g4
   12e9c:	d4 3a 20 00 	std  %o2, [ %o0 ]
   12ea0:	d8 3a 20 08 	std  %o4, [ %o0 + 8 ]
   12ea4:	c4 3a 20 10 	std  %g2, [ %o0 + 0x10 ]
   12ea8:	c8 3a 20 18 	std  %g4, [ %o0 + 0x18 ]
   12eac:	d4 1a 60 20 	ldd  [ %o1 + 0x20 ], %o2
   12eb0:	d8 1a 60 28 	ldd  [ %o1 + 0x28 ], %o4
   12eb4:	c4 1a 60 30 	ldd  [ %o1 + 0x30 ], %g2
   12eb8:	c8 1a 60 38 	ldd  [ %o1 + 0x38 ], %g4
   12ebc:	d4 3a 20 20 	std  %o2, [ %o0 + 0x20 ]
   12ec0:	d8 3a 20 28 	std  %o4, [ %o0 + 0x28 ]
   12ec4:	c4 3a 20 30 	std  %g2, [ %o0 + 0x30 ]
   12ec8:	c8 3a 20 38 	std  %g4, [ %o0 + 0x38 ]
   12ecc:	d4 1a 60 40 	ldd  [ %o1 + 0x40 ], %o2
   12ed0:	d8 1a 60 48 	ldd  [ %o1 + 0x48 ], %o4
   12ed4:	c4 1a 60 50 	ldd  [ %o1 + 0x50 ], %g2
   12ed8:	c8 1a 60 58 	ldd  [ %o1 + 0x58 ], %g4
   12edc:	d4 3a 20 40 	std  %o2, [ %o0 + 0x40 ]
   12ee0:	d8 3a 20 48 	std  %o4, [ %o0 + 0x48 ]
   12ee4:	c4 3a 20 50 	std  %g2, [ %o0 + 0x50 ]
   12ee8:	c8 3a 20 58 	std  %g4, [ %o0 + 0x58 ]
   12eec:	d4 1a 60 60 	ldd  [ %o1 + 0x60 ], %o2
   12ef0:	d8 1a 60 68 	ldd  [ %o1 + 0x68 ], %o4
   12ef4:	c4 1a 60 70 	ldd  [ %o1 + 0x70 ], %g2
   12ef8:	c8 1a 60 78 	ldd  [ %o1 + 0x78 ], %g4
   12efc:	d4 3a 20 60 	std  %o2, [ %o0 + 0x60 ]
   12f00:	d8 3a 20 68 	std  %o4, [ %o0 + 0x68 ]
   12f04:	c4 3a 20 70 	std  %g2, [ %o0 + 0x70 ]
   12f08:	c8 3a 20 78 	std  %g4, [ %o0 + 0x78 ]
   12f0c:	8c a1 a0 80 	subcc  %g6, 0x80, %g6
   12f10:	92 02 60 80 	add  %o1, 0x80, %o1
   12f14:	12 bf ff de 	bne  12e8c <__GI_memcpy+0x258>
   12f18:	90 02 20 80 	add  %o0, 0x80, %o0
   12f1c:	8c 88 60 70 	andcc  %g1, 0x70, %g6
   12f20:	02 80 00 24 	be  12fb0 <__GI_memcpy+0x37c>
   12f24:	80 88 60 08 	btst  8, %g1
   12f28:	84 10 00 0f 	mov  %o7, %g2
   12f2c:	40 00 03 5d 	call  13ca0 <__GI_memcpy+0x106c>
   12f30:	92 02 40 06 	add  %o1, %g6, %o1
   12f34:	9e 10 00 02 	mov  %g2, %o7
   12f38:	81 c3 60 84 	jmp  %o5 + 0x84
   12f3c:	90 02 00 06 	add  %o0, %g6, %o0
   12f40:	c4 1a 7f 90 	ldd  [ %o1 + -112 ], %g2
   12f44:	c8 1a 7f 98 	ldd  [ %o1 + -104 ], %g4
   12f48:	c4 3a 3f 90 	std  %g2, [ %o0 + -112 ]
   12f4c:	c8 3a 3f 98 	std  %g4, [ %o0 + -104 ]
   12f50:	c4 1a 7f a0 	ldd  [ %o1 + -96 ], %g2
   12f54:	c8 1a 7f a8 	ldd  [ %o1 + -88 ], %g4
   12f58:	c4 3a 3f a0 	std  %g2, [ %o0 + -96 ]
   12f5c:	c8 3a 3f a8 	std  %g4, [ %o0 + -88 ]
   12f60:	c4 1a 7f b0 	ldd  [ %o1 + -80 ], %g2
   12f64:	c8 1a 7f b8 	ldd  [ %o1 + -72 ], %g4
   12f68:	c4 3a 3f b0 	std  %g2, [ %o0 + -80 ]
   12f6c:	c8 3a 3f b8 	std  %g4, [ %o0 + -72 ]
   12f70:	c4 1a 7f c0 	ldd  [ %o1 + -64 ], %g2
   12f74:	c8 1a 7f c8 	ldd  [ %o1 + -56 ], %g4
   12f78:	c4 3a 3f c0 	std  %g2, [ %o0 + -64 ]
   12f7c:	c8 3a 3f c8 	std  %g4, [ %o0 + -56 ]
   12f80:	c4 1a 7f d0 	ldd  [ %o1 + -48 ], %g2
   12f84:	c8 1a 7f d8 	ldd  [ %o1 + -40 ], %g4
   12f88:	c4 3a 3f d0 	std  %g2, [ %o0 + -48 ]
   12f8c:	c8 3a 3f d8 	std  %g4, [ %o0 + -40 ]
   12f90:	c4 1a 7f e0 	ldd  [ %o1 + -32 ], %g2
   12f94:	c8 1a 7f e8 	ldd  [ %o1 + -24 ], %g4
   12f98:	c4 3a 3f e0 	std  %g2, [ %o0 + -32 ]
   12f9c:	c8 3a 3f e8 	std  %g4, [ %o0 + -24 ]
   12fa0:	c4 1a 7f f0 	ldd  [ %o1 + -16 ], %g2
   12fa4:	c8 1a 7f f8 	ldd  [ %o1 + -8 ], %g4
   12fa8:	c4 3a 3f f0 	std  %g2, [ %o0 + -16 ]
   12fac:	c8 3a 3f f8 	std  %g4, [ %o0 + -8 ]
   12fb0:	02 80 00 06 	be  12fc8 <__GI_memcpy+0x394>
   12fb4:	80 88 60 04 	btst  4, %g1
   12fb8:	c4 1a 40 00 	ldd  [ %o1 ], %g2
   12fbc:	90 02 20 08 	add  %o0, 8, %o0
   12fc0:	c4 3a 3f f8 	std  %g2, [ %o0 + -8 ]
   12fc4:	92 02 60 08 	add  %o1, 8, %o1
   12fc8:	02 80 00 06 	be  12fe0 <__GI_memcpy+0x3ac>
   12fcc:	80 88 60 02 	btst  2, %g1
   12fd0:	c4 02 40 00 	ld  [ %o1 ], %g2
   12fd4:	92 02 60 04 	add  %o1, 4, %o1
   12fd8:	c4 22 00 00 	st  %g2, [ %o0 ]
   12fdc:	90 02 20 04 	add  %o0, 4, %o0
   12fe0:	02 80 00 06 	be  12ff8 <__GI_memcpy+0x3c4>
   12fe4:	80 88 60 01 	btst  1, %g1
   12fe8:	c4 12 40 00 	lduh  [ %o1 ], %g2
   12fec:	92 02 60 02 	add  %o1, 2, %o1
   12ff0:	c4 32 00 00 	sth  %g2, [ %o0 ]
   12ff4:	90 02 20 02 	add  %o0, 2, %o0
   12ff8:	02 80 00 04 	be  13008 <__GI_memcpy+0x3d4>
   12ffc:	01 00 00 00 	nop 
   13000:	c4 0a 40 00 	ldub  [ %o1 ], %g2
   13004:	c4 2a 00 00 	stb  %g2, [ %o0 ]
   13008:	81 c3 e0 08 	retl 
   1300c:	d0 03 a0 40 	ld  [ %sp + 0x40 ], %o0
   13010:	80 a2 a0 06 	cmp  %o2, 6
   13014:	08 80 02 ea 	bleu  13bbc <__GI_memcpy+0xf88>
   13018:	80 a2 a1 00 	cmp  %o2, 0x100
   1301c:	1a 80 00 65 	bcc  131b0 <__GI_memcpy+0x57c>
   13020:	80 8a 20 03 	btst  3, %o0
   13024:	02 80 00 11 	be  13068 <__GI_memcpy+0x434>
   13028:	80 8a 20 01 	btst  1, %o0
   1302c:	02 80 00 08 	be  1304c <__GI_memcpy+0x418>
   13030:	80 8a 20 02 	btst  2, %o0
   13034:	ca 0a 40 00 	ldub  [ %o1 ], %g5
   13038:	92 02 60 01 	inc  %o1
   1303c:	ca 2a 00 00 	stb  %g5, [ %o0 ]
   13040:	94 22 a0 01 	dec  %o2
   13044:	12 80 00 09 	bne  13068 <__GI_memcpy+0x434>
   13048:	90 02 20 01 	inc  %o0
   1304c:	c6 0a 40 00 	ldub  [ %o1 ], %g3
   13050:	92 02 60 02 	add  %o1, 2, %o1
   13054:	c6 2a 00 00 	stb  %g3, [ %o0 ]
   13058:	94 22 a0 02 	sub  %o2, 2, %o2
   1305c:	c6 0a 7f ff 	ldub  [ %o1 + -1 ], %g3
   13060:	90 02 20 02 	add  %o0, 2, %o0
   13064:	c6 2a 3f ff 	stb  %g3, [ %o0 + -1 ]
   13068:	84 0a 60 03 	and  %o1, 3, %g2
   1306c:	86 0a a0 0c 	and  %o2, 0xc, %g3
   13070:	92 0a 7f fc 	and  %o1, -4, %o1
   13074:	80 a0 e0 04 	cmp  %g3, 4
   13078:	89 28 a0 03 	sll  %g2, 3, %g4
   1307c:	84 10 20 20 	mov  0x20, %g2
   13080:	02 80 00 17 	be  130dc <__GI_memcpy+0x4a8>
   13084:	8c 20 80 04 	sub  %g2, %g4, %g6
   13088:	0a 80 00 0f 	bcs  130c4 <__GI_memcpy+0x490>
   1308c:	80 a0 e0 08 	cmp  %g3, 8
   13090:	02 80 00 07 	be  130ac <__GI_memcpy+0x478>
   13094:	87 32 a0 02 	srl  %o2, 2, %g3
   13098:	d6 02 40 00 	ld  [ %o1 ], %o3
   1309c:	90 02 3f f8 	add  %o0, -8, %o0
   130a0:	d8 02 60 04 	ld  [ %o1 + 4 ], %o4
   130a4:	10 80 00 1f 	b  13120 <__GI_memcpy+0x4ec>
   130a8:	86 00 e0 01 	inc  %g3
   130ac:	d8 02 40 00 	ld  [ %o1 ], %o4
   130b0:	90 02 3f f4 	add  %o0, -12, %o0
   130b4:	da 02 60 04 	ld  [ %o1 + 4 ], %o5
   130b8:	86 00 e0 02 	add  %g3, 2, %g3
   130bc:	10 80 00 1e 	b  13134 <__GI_memcpy+0x500>
   130c0:	92 02 7f fc 	add  %o1, -4, %o1
   130c4:	c2 02 40 00 	ld  [ %o1 ], %g1
   130c8:	90 02 3f fc 	add  %o0, -4, %o0
   130cc:	d6 02 60 04 	ld  [ %o1 + 4 ], %o3
   130d0:	87 32 a0 02 	srl  %o2, 2, %g3
   130d4:	10 80 00 0e 	b  1310c <__GI_memcpy+0x4d8>
   130d8:	92 02 60 04 	add  %o1, 4, %o1
   130dc:	da 02 40 00 	ld  [ %o1 ], %o5
   130e0:	80 a2 a0 07 	cmp  %o2, 7
   130e4:	c2 02 60 04 	ld  [ %o1 + 4 ], %g1
   130e8:	87 32 a0 02 	srl  %o2, 2, %g3
   130ec:	08 80 00 1c 	bleu  1315c <__GI_memcpy+0x528>
   130f0:	92 02 60 08 	add  %o1, 8, %o1
   130f4:	d6 02 40 00 	ld  [ %o1 ], %o3
   130f8:	86 00 ff ff 	add  %g3, -1, %g3
   130fc:	85 2b 40 04 	sll  %o5, %g4, %g2
   13100:	8b 30 40 06 	srl  %g1, %g6, %g5
   13104:	84 10 80 05 	or  %g2, %g5, %g2
   13108:	c4 22 00 00 	st  %g2, [ %o0 ]
   1310c:	d8 02 60 04 	ld  [ %o1 + 4 ], %o4
   13110:	85 28 40 04 	sll  %g1, %g4, %g2
   13114:	8b 32 c0 06 	srl  %o3, %g6, %g5
   13118:	84 10 80 05 	or  %g2, %g5, %g2
   1311c:	c4 22 20 04 	st  %g2, [ %o0 + 4 ]
   13120:	da 02 60 08 	ld  [ %o1 + 8 ], %o5
   13124:	85 2a c0 04 	sll  %o3, %g4, %g2
   13128:	8b 33 00 06 	srl  %o4, %g6, %g5
   1312c:	84 10 80 05 	or  %g2, %g5, %g2
   13130:	c4 22 20 08 	st  %g2, [ %o0 + 8 ]
   13134:	c2 02 60 0c 	ld  [ %o1 + 0xc ], %g1
   13138:	85 2b 00 04 	sll  %o4, %g4, %g2
   1313c:	8b 33 40 06 	srl  %o5, %g6, %g5
   13140:	86 80 ff fc 	addcc  %g3, -4, %g3
   13144:	84 10 80 05 	or  %g2, %g5, %g2
   13148:	92 02 60 10 	add  %o1, 0x10, %o1
   1314c:	c4 22 20 0c 	st  %g2, [ %o0 + 0xc ]
   13150:	90 02 20 10 	add  %o0, 0x10, %o0
   13154:	32 bf ff ea 	bne,a   130fc <__GI_memcpy+0x4c8>
   13158:	d6 02 40 00 	ld  [ %o1 ], %o3
   1315c:	85 2b 40 04 	sll  %o5, %g4, %g2
   13160:	8b 30 40 06 	srl  %g1, %g6, %g5
   13164:	87 31 a0 03 	srl  %g6, 3, %g3
   13168:	84 10 80 05 	or  %g2, %g5, %g2
   1316c:	92 22 40 03 	sub  %o1, %g3, %o1
   13170:	80 8a a0 02 	btst  2, %o2
   13174:	c4 22 00 00 	st  %g2, [ %o0 ]
   13178:	02 80 00 08 	be  13198 <__GI_memcpy+0x564>
   1317c:	80 8a a0 01 	btst  1, %o2
   13180:	c4 0a 40 00 	ldub  [ %o1 ], %g2
   13184:	92 02 60 02 	add  %o1, 2, %o1
   13188:	c4 2a 20 04 	stb  %g2, [ %o0 + 4 ]
   1318c:	90 02 20 02 	add  %o0, 2, %o0
   13190:	c4 0a 7f ff 	ldub  [ %o1 + -1 ], %g2
   13194:	c4 2a 20 03 	stb  %g2, [ %o0 + 3 ]
   13198:	02 80 00 04 	be  131a8 <__GI_memcpy+0x574>
   1319c:	01 00 00 00 	nop 
   131a0:	c4 0a 40 00 	ldub  [ %o1 ], %g2
   131a4:	c4 2a 20 04 	stb  %g2, [ %o0 + 4 ]
   131a8:	81 c3 e0 08 	retl 
   131ac:	d0 03 a0 40 	ld  [ %sp + 0x40 ], %o0
   131b0:	80 8a 60 03 	btst  3, %o1
   131b4:	02 80 00 11 	be  131f8 <__GI_memcpy+0x5c4>
   131b8:	80 8a 60 01 	btst  1, %o1
   131bc:	02 80 00 08 	be  131dc <__GI_memcpy+0x5a8>
   131c0:	80 8a 60 02 	btst  2, %o1
   131c4:	c4 0a 40 00 	ldub  [ %o1 ], %g2
   131c8:	92 02 60 01 	inc  %o1
   131cc:	c4 2a 00 00 	stb  %g2, [ %o0 ]
   131d0:	94 22 a0 01 	dec  %o2
   131d4:	12 80 00 09 	bne  131f8 <__GI_memcpy+0x5c4>
   131d8:	90 02 20 01 	inc  %o0
   131dc:	c4 12 40 00 	lduh  [ %o1 ], %g2
   131e0:	92 02 60 02 	add  %o1, 2, %o1
   131e4:	87 30 a0 08 	srl  %g2, 8, %g3
   131e8:	94 22 a0 02 	sub  %o2, 2, %o2
   131ec:	c6 2a 00 00 	stb  %g3, [ %o0 ]
   131f0:	90 02 20 02 	add  %o0, 2, %o0
   131f4:	c4 2a 3f ff 	stb  %g2, [ %o0 + -1 ]
   131f8:	80 8a 60 04 	btst  4, %o1
   131fc:	12 80 00 0d 	bne  13230 <__GI_memcpy+0x5fc>
   13200:	80 a3 60 01 	cmp  %o5, 1
   13204:	d8 02 40 00 	ld  [ %o1 ], %o4
   13208:	85 33 20 18 	srl  %o4, 0x18, %g2
   1320c:	c4 2a 00 00 	stb  %g2, [ %o0 ]
   13210:	87 33 20 10 	srl  %o4, 0x10, %g3
   13214:	c6 2a 20 01 	stb  %g3, [ %o0 + 1 ]
   13218:	85 33 20 08 	srl  %o4, 8, %g2
   1321c:	c4 2a 20 02 	stb  %g2, [ %o0 + 2 ]
   13220:	94 22 a0 04 	sub  %o2, 4, %o2
   13224:	d8 2a 20 03 	stb  %o4, [ %o0 + 3 ]
   13228:	92 02 60 04 	add  %o1, 4, %o1
   1322c:	90 02 20 04 	add  %o0, 4, %o0
   13230:	02 80 00 da 	be  13598 <__GI_memcpy+0x964>
   13234:	80 a3 60 02 	cmp  %o5, 2
   13238:	02 80 00 6e 	be  133f0 <__GI_memcpy+0x7bc>
   1323c:	94 22 a0 04 	sub  %o2, 4, %o2
   13240:	c4 02 40 00 	ld  [ %o1 ], %g2
   13244:	92 02 60 04 	add  %o1, 4, %o1
   13248:	87 30 a0 18 	srl  %g2, 0x18, %g3
   1324c:	8a 0a 20 07 	and  %o0, 7, %g5
   13250:	c6 2a 00 00 	stb  %g3, [ %o0 ]
   13254:	80 a1 60 07 	cmp  %g5, 7
   13258:	83 28 a0 08 	sll  %g2, 8, %g1
   1325c:	90 02 20 04 	add  %o0, 4, %o0
   13260:	02 80 01 3b 	be  1374c <__GI_memcpy+0xb18>
   13264:	96 0a bf c0 	and  %o2, -64, %o3
   13268:	d8 02 3f f9 	ld  [ %o0 + -7 ], %o4
   1326c:	c4 1a 60 00 	ldd  [ %o1 ], %g2
   13270:	c8 1a 60 08 	ldd  [ %o1 + 8 ], %g4
   13274:	9b 30 a0 18 	srl  %g2, 0x18, %o5
   13278:	8d 30 e0 18 	srl  %g3, 0x18, %g6
   1327c:	85 28 a0 08 	sll  %g2, 8, %g2
   13280:	9a 13 40 01 	or  %o5, %g1, %o5
   13284:	83 28 e0 08 	sll  %g3, 8, %g1
   13288:	84 11 80 02 	or  %g6, %g2, %g2
   1328c:	87 31 20 18 	srl  %g4, 0x18, %g3
   13290:	8d 31 60 18 	srl  %g5, 0x18, %g6
   13294:	89 29 20 08 	sll  %g4, 8, %g4
   13298:	86 10 c0 01 	or  %g3, %g1, %g3
   1329c:	d8 3a 3f f9 	std  %o4, [ %o0 + -7 ]
   132a0:	c4 3a 20 01 	std  %g2, [ %o0 + 1 ]
   132a4:	83 29 60 08 	sll  %g5, 8, %g1
   132a8:	98 11 80 04 	or  %g6, %g4, %o4
   132ac:	c4 1a 60 10 	ldd  [ %o1 + 0x10 ], %g2
   132b0:	c8 1a 60 18 	ldd  [ %o1 + 0x18 ], %g4
   132b4:	9b 30 a0 18 	srl  %g2, 0x18, %o5
   132b8:	8d 30 e0 18 	srl  %g3, 0x18, %g6
   132bc:	85 28 a0 08 	sll  %g2, 8, %g2
   132c0:	9a 13 40 01 	or  %o5, %g1, %o5
   132c4:	83 28 e0 08 	sll  %g3, 8, %g1
   132c8:	84 11 80 02 	or  %g6, %g2, %g2
   132cc:	87 31 20 18 	srl  %g4, 0x18, %g3
   132d0:	8d 31 60 18 	srl  %g5, 0x18, %g6
   132d4:	89 29 20 08 	sll  %g4, 8, %g4
   132d8:	86 10 c0 01 	or  %g3, %g1, %g3
   132dc:	d8 3a 20 09 	std  %o4, [ %o0 + 9 ]
   132e0:	c4 3a 20 11 	std  %g2, [ %o0 + 0x11 ]
   132e4:	83 29 60 08 	sll  %g5, 8, %g1
   132e8:	98 11 80 04 	or  %g6, %g4, %o4
   132ec:	c4 1a 60 20 	ldd  [ %o1 + 0x20 ], %g2
   132f0:	c8 1a 60 28 	ldd  [ %o1 + 0x28 ], %g4
   132f4:	9b 30 a0 18 	srl  %g2, 0x18, %o5
   132f8:	8d 30 e0 18 	srl  %g3, 0x18, %g6
   132fc:	85 28 a0 08 	sll  %g2, 8, %g2
   13300:	9a 13 40 01 	or  %o5, %g1, %o5
   13304:	83 28 e0 08 	sll  %g3, 8, %g1
   13308:	84 11 80 02 	or  %g6, %g2, %g2
   1330c:	87 31 20 18 	srl  %g4, 0x18, %g3
   13310:	8d 31 60 18 	srl  %g5, 0x18, %g6
   13314:	89 29 20 08 	sll  %g4, 8, %g4
   13318:	86 10 c0 01 	or  %g3, %g1, %g3
   1331c:	d8 3a 20 19 	std  %o4, [ %o0 + 0x19 ]
   13320:	c4 3a 20 21 	std  %g2, [ %o0 + 0x21 ]
   13324:	83 29 60 08 	sll  %g5, 8, %g1
   13328:	98 11 80 04 	or  %g6, %g4, %o4
   1332c:	c4 1a 60 30 	ldd  [ %o1 + 0x30 ], %g2
   13330:	c8 1a 60 38 	ldd  [ %o1 + 0x38 ], %g4
   13334:	9b 30 a0 18 	srl  %g2, 0x18, %o5
   13338:	8d 30 e0 18 	srl  %g3, 0x18, %g6
   1333c:	85 28 a0 08 	sll  %g2, 8, %g2
   13340:	9a 13 40 01 	or  %o5, %g1, %o5
   13344:	83 28 e0 08 	sll  %g3, 8, %g1
   13348:	84 11 80 02 	or  %g6, %g2, %g2
   1334c:	87 31 20 18 	srl  %g4, 0x18, %g3
   13350:	8d 31 60 18 	srl  %g5, 0x18, %g6
   13354:	89 29 20 08 	sll  %g4, 8, %g4
   13358:	86 10 c0 01 	or  %g3, %g1, %g3
   1335c:	d8 3a 20 29 	std  %o4, [ %o0 + 0x29 ]
   13360:	c4 3a 20 31 	std  %g2, [ %o0 + 0x31 ]
   13364:	83 29 60 08 	sll  %g5, 8, %g1
   13368:	98 11 80 04 	or  %g6, %g4, %o4
   1336c:	96 a2 e0 40 	subcc  %o3, 0x40, %o3
   13370:	92 02 60 40 	add  %o1, 0x40, %o1
   13374:	12 bf ff be 	bne  1326c <__GI_memcpy+0x638>
   13378:	90 02 20 40 	add  %o0, 0x40, %o0
   1337c:	96 8a a0 30 	andcc  %o2, 0x30, %o3
   13380:	22 80 00 17 	be,a   133dc <__GI_memcpy+0x7a8>
   13384:	85 30 60 10 	srl  %g1, 0x10, %g2
   13388:	c4 1a 60 00 	ldd  [ %o1 ], %g2
   1338c:	c8 1a 60 08 	ldd  [ %o1 + 8 ], %g4
   13390:	9b 30 a0 18 	srl  %g2, 0x18, %o5
   13394:	8d 30 e0 18 	srl  %g3, 0x18, %g6
   13398:	85 28 a0 08 	sll  %g2, 8, %g2
   1339c:	9a 13 40 01 	or  %o5, %g1, %o5
   133a0:	83 28 e0 08 	sll  %g3, 8, %g1
   133a4:	84 11 80 02 	or  %g6, %g2, %g2
   133a8:	87 31 20 18 	srl  %g4, 0x18, %g3
   133ac:	8d 31 60 18 	srl  %g5, 0x18, %g6
   133b0:	89 29 20 08 	sll  %g4, 8, %g4
   133b4:	86 10 c0 01 	or  %g3, %g1, %g3
   133b8:	d8 3a 3f f9 	std  %o4, [ %o0 + -7 ]
   133bc:	c4 3a 20 01 	std  %g2, [ %o0 + 1 ]
   133c0:	83 29 60 08 	sll  %g5, 8, %g1
   133c4:	98 11 80 04 	or  %g6, %g4, %o4
   133c8:	96 a2 e0 10 	subcc  %o3, 0x10, %o3
   133cc:	92 02 60 10 	add  %o1, 0x10, %o1
   133d0:	12 bf ff ee 	bne  13388 <__GI_memcpy+0x754>
   133d4:	90 02 20 10 	add  %o0, 0x10, %o0
   133d8:	85 30 60 10 	srl  %g1, 0x10, %g2
   133dc:	d8 22 3f f9 	st  %o4, [ %o0 + -7 ]
   133e0:	c4 32 3f fd 	sth  %g2, [ %o0 + -3 ]
   133e4:	89 30 60 08 	srl  %g1, 8, %g4
   133e8:	10 80 01 f5 	b  13bbc <__GI_memcpy+0xf88>
   133ec:	c8 2a 3f ff 	stb  %g4, [ %o0 + -1 ]
   133f0:	c4 02 40 00 	ld  [ %o1 ], %g2
   133f4:	92 02 60 04 	add  %o1, 4, %o1
   133f8:	87 30 a0 10 	srl  %g2, 0x10, %g3
   133fc:	8a 0a 20 07 	and  %o0, 7, %g5
   13400:	c6 32 00 00 	sth  %g3, [ %o0 ]
   13404:	80 a1 60 06 	cmp  %g5, 6
   13408:	83 28 a0 10 	sll  %g2, 0x10, %g1
   1340c:	90 02 20 04 	add  %o0, 4, %o0
   13410:	02 80 01 8e 	be  13a48 <__GI_memcpy+0xe14>
   13414:	96 0a bf c0 	and  %o2, -64, %o3
   13418:	d8 02 3f fa 	ld  [ %o0 + -6 ], %o4
   1341c:	c4 1a 60 00 	ldd  [ %o1 ], %g2
   13420:	c8 1a 60 08 	ldd  [ %o1 + 8 ], %g4
   13424:	9b 30 a0 10 	srl  %g2, 0x10, %o5
   13428:	8d 30 e0 10 	srl  %g3, 0x10, %g6
   1342c:	85 28 a0 10 	sll  %g2, 0x10, %g2
   13430:	9a 13 40 01 	or  %o5, %g1, %o5
   13434:	83 28 e0 10 	sll  %g3, 0x10, %g1
   13438:	84 11 80 02 	or  %g6, %g2, %g2
   1343c:	87 31 20 10 	srl  %g4, 0x10, %g3
   13440:	8d 31 60 10 	srl  %g5, 0x10, %g6
   13444:	89 29 20 10 	sll  %g4, 0x10, %g4
   13448:	86 10 c0 01 	or  %g3, %g1, %g3
   1344c:	d8 3a 3f fa 	std  %o4, [ %o0 + -6 ]
   13450:	c4 3a 20 02 	std  %g2, [ %o0 + 2 ]
   13454:	83 29 60 10 	sll  %g5, 0x10, %g1
   13458:	98 11 80 04 	or  %g6, %g4, %o4
   1345c:	c4 1a 60 10 	ldd  [ %o1 + 0x10 ], %g2
   13460:	c8 1a 60 18 	ldd  [ %o1 + 0x18 ], %g4
   13464:	9b 30 a0 10 	srl  %g2, 0x10, %o5
   13468:	8d 30 e0 10 	srl  %g3, 0x10, %g6
   1346c:	85 28 a0 10 	sll  %g2, 0x10, %g2
   13470:	9a 13 40 01 	or  %o5, %g1, %o5
   13474:	83 28 e0 10 	sll  %g3, 0x10, %g1
   13478:	84 11 80 02 	or  %g6, %g2, %g2
   1347c:	87 31 20 10 	srl  %g4, 0x10, %g3
   13480:	8d 31 60 10 	srl  %g5, 0x10, %g6
   13484:	89 29 20 10 	sll  %g4, 0x10, %g4
   13488:	86 10 c0 01 	or  %g3, %g1, %g3
   1348c:	d8 3a 20 0a 	std  %o4, [ %o0 + 0xa ]
   13490:	c4 3a 20 12 	std  %g2, [ %o0 + 0x12 ]
   13494:	83 29 60 10 	sll  %g5, 0x10, %g1
   13498:	98 11 80 04 	or  %g6, %g4, %o4
   1349c:	c4 1a 60 20 	ldd  [ %o1 + 0x20 ], %g2
   134a0:	c8 1a 60 28 	ldd  [ %o1 + 0x28 ], %g4
   134a4:	9b 30 a0 10 	srl  %g2, 0x10, %o5
   134a8:	8d 30 e0 10 	srl  %g3, 0x10, %g6
   134ac:	85 28 a0 10 	sll  %g2, 0x10, %g2
   134b0:	9a 13 40 01 	or  %o5, %g1, %o5
   134b4:	83 28 e0 10 	sll  %g3, 0x10, %g1
   134b8:	84 11 80 02 	or  %g6, %g2, %g2
   134bc:	87 31 20 10 	srl  %g4, 0x10, %g3
   134c0:	8d 31 60 10 	srl  %g5, 0x10, %g6
   134c4:	89 29 20 10 	sll  %g4, 0x10, %g4
   134c8:	86 10 c0 01 	or  %g3, %g1, %g3
   134cc:	d8 3a 20 1a 	std  %o4, [ %o0 + 0x1a ]
   134d0:	c4 3a 20 22 	std  %g2, [ %o0 + 0x22 ]
   134d4:	83 29 60 10 	sll  %g5, 0x10, %g1
   134d8:	98 11 80 04 	or  %g6, %g4, %o4
   134dc:	c4 1a 60 30 	ldd  [ %o1 + 0x30 ], %g2
   134e0:	c8 1a 60 38 	ldd  [ %o1 + 0x38 ], %g4
   134e4:	9b 30 a0 10 	srl  %g2, 0x10, %o5
   134e8:	8d 30 e0 10 	srl  %g3, 0x10, %g6
   134ec:	85 28 a0 10 	sll  %g2, 0x10, %g2
   134f0:	9a 13 40 01 	or  %o5, %g1, %o5
   134f4:	83 28 e0 10 	sll  %g3, 0x10, %g1
   134f8:	84 11 80 02 	or  %g6, %g2, %g2
   134fc:	87 31 20 10 	srl  %g4, 0x10, %g3
   13500:	8d 31 60 10 	srl  %g5, 0x10, %g6
   13504:	89 29 20 10 	sll  %g4, 0x10, %g4
   13508:	86 10 c0 01 	or  %g3, %g1, %g3
   1350c:	d8 3a 20 2a 	std  %o4, [ %o0 + 0x2a ]
   13510:	c4 3a 20 32 	std  %g2, [ %o0 + 0x32 ]
   13514:	83 29 60 10 	sll  %g5, 0x10, %g1
   13518:	98 11 80 04 	or  %g6, %g4, %o4
   1351c:	96 a2 e0 40 	subcc  %o3, 0x40, %o3
   13520:	92 02 60 40 	add  %o1, 0x40, %o1
   13524:	12 bf ff be 	bne  1341c <__GI_memcpy+0x7e8>
   13528:	90 02 20 40 	add  %o0, 0x40, %o0
   1352c:	96 8a a0 30 	andcc  %o2, 0x30, %o3
   13530:	22 80 00 17 	be,a   1358c <__GI_memcpy+0x958>
   13534:	85 30 60 10 	srl  %g1, 0x10, %g2
   13538:	c4 1a 60 00 	ldd  [ %o1 ], %g2
   1353c:	c8 1a 60 08 	ldd  [ %o1 + 8 ], %g4
   13540:	9b 30 a0 10 	srl  %g2, 0x10, %o5
   13544:	8d 30 e0 10 	srl  %g3, 0x10, %g6
   13548:	85 28 a0 10 	sll  %g2, 0x10, %g2
   1354c:	9a 13 40 01 	or  %o5, %g1, %o5
   13550:	83 28 e0 10 	sll  %g3, 0x10, %g1
   13554:	84 11 80 02 	or  %g6, %g2, %g2
   13558:	87 31 20 10 	srl  %g4, 0x10, %g3
   1355c:	8d 31 60 10 	srl  %g5, 0x10, %g6
   13560:	89 29 20 10 	sll  %g4, 0x10, %g4
   13564:	86 10 c0 01 	or  %g3, %g1, %g3
   13568:	d8 3a 3f fa 	std  %o4, [ %o0 + -6 ]
   1356c:	c4 3a 20 02 	std  %g2, [ %o0 + 2 ]
   13570:	83 29 60 10 	sll  %g5, 0x10, %g1
   13574:	98 11 80 04 	or  %g6, %g4, %o4
   13578:	96 a2 e0 10 	subcc  %o3, 0x10, %o3
   1357c:	92 02 60 10 	add  %o1, 0x10, %o1
   13580:	12 bf ff ee 	bne  13538 <__GI_memcpy+0x904>
   13584:	90 02 20 10 	add  %o0, 0x10, %o0
   13588:	85 30 60 10 	srl  %g1, 0x10, %g2
   1358c:	d8 22 3f fa 	st  %o4, [ %o0 + -6 ]
   13590:	10 80 01 8b 	b  13bbc <__GI_memcpy+0xf88>
   13594:	c4 32 3f fe 	sth  %g2, [ %o0 + -2 ]
   13598:	c4 02 40 00 	ld  [ %o1 ], %g2
   1359c:	94 22 a0 04 	sub  %o2, 4, %o2
   135a0:	87 30 a0 18 	srl  %g2, 0x18, %g3
   135a4:	8a 0a 20 07 	and  %o0, 7, %g5
   135a8:	c6 2a 00 00 	stb  %g3, [ %o0 ]
   135ac:	80 a1 60 05 	cmp  %g5, 5
   135b0:	89 30 a0 08 	srl  %g2, 8, %g4
   135b4:	83 28 a0 18 	sll  %g2, 0x18, %g1
   135b8:	c8 32 20 01 	sth  %g4, [ %o0 + 1 ]
   135bc:	92 02 60 04 	add  %o1, 4, %o1
   135c0:	02 80 00 c3 	be  138cc <__GI_memcpy+0xc98>
   135c4:	96 0a bf c0 	and  %o2, -64, %o3
   135c8:	d8 02 3f ff 	ld  [ %o0 + -1 ], %o4
   135cc:	90 02 20 04 	add  %o0, 4, %o0
   135d0:	c4 1a 60 00 	ldd  [ %o1 ], %g2
   135d4:	c8 1a 60 08 	ldd  [ %o1 + 8 ], %g4
   135d8:	9b 30 a0 08 	srl  %g2, 8, %o5
   135dc:	8d 30 e0 08 	srl  %g3, 8, %g6
   135e0:	85 28 a0 18 	sll  %g2, 0x18, %g2
   135e4:	9a 13 40 01 	or  %o5, %g1, %o5
   135e8:	83 28 e0 18 	sll  %g3, 0x18, %g1
   135ec:	84 11 80 02 	or  %g6, %g2, %g2
   135f0:	87 31 20 08 	srl  %g4, 8, %g3
   135f4:	8d 31 60 08 	srl  %g5, 8, %g6
   135f8:	89 29 20 18 	sll  %g4, 0x18, %g4
   135fc:	86 10 c0 01 	or  %g3, %g1, %g3
   13600:	d8 3a 3f fb 	std  %o4, [ %o0 + -5 ]
   13604:	c4 3a 20 03 	std  %g2, [ %o0 + 3 ]
   13608:	83 29 60 18 	sll  %g5, 0x18, %g1
   1360c:	98 11 80 04 	or  %g6, %g4, %o4
   13610:	c4 1a 60 10 	ldd  [ %o1 + 0x10 ], %g2
   13614:	c8 1a 60 18 	ldd  [ %o1 + 0x18 ], %g4
   13618:	9b 30 a0 08 	srl  %g2, 8, %o5
   1361c:	8d 30 e0 08 	srl  %g3, 8, %g6
   13620:	85 28 a0 18 	sll  %g2, 0x18, %g2
   13624:	9a 13 40 01 	or  %o5, %g1, %o5
   13628:	83 28 e0 18 	sll  %g3, 0x18, %g1
   1362c:	84 11 80 02 	or  %g6, %g2, %g2
   13630:	87 31 20 08 	srl  %g4, 8, %g3
   13634:	8d 31 60 08 	srl  %g5, 8, %g6
   13638:	89 29 20 18 	sll  %g4, 0x18, %g4
   1363c:	86 10 c0 01 	or  %g3, %g1, %g3
   13640:	d8 3a 20 0b 	std  %o4, [ %o0 + 0xb ]
   13644:	c4 3a 20 13 	std  %g2, [ %o0 + 0x13 ]
   13648:	83 29 60 18 	sll  %g5, 0x18, %g1
   1364c:	98 11 80 04 	or  %g6, %g4, %o4
   13650:	c4 1a 60 20 	ldd  [ %o1 + 0x20 ], %g2
   13654:	c8 1a 60 28 	ldd  [ %o1 + 0x28 ], %g4
   13658:	9b 30 a0 08 	srl  %g2, 8, %o5
   1365c:	8d 30 e0 08 	srl  %g3, 8, %g6
   13660:	85 28 a0 18 	sll  %g2, 0x18, %g2
   13664:	9a 13 40 01 	or  %o5, %g1, %o5
   13668:	83 28 e0 18 	sll  %g3, 0x18, %g1
   1366c:	84 11 80 02 	or  %g6, %g2, %g2
   13670:	87 31 20 08 	srl  %g4, 8, %g3
   13674:	8d 31 60 08 	srl  %g5, 8, %g6
   13678:	89 29 20 18 	sll  %g4, 0x18, %g4
   1367c:	86 10 c0 01 	or  %g3, %g1, %g3
   13680:	d8 3a 20 1b 	std  %o4, [ %o0 + 0x1b ]
   13684:	c4 3a 20 23 	std  %g2, [ %o0 + 0x23 ]
   13688:	83 29 60 18 	sll  %g5, 0x18, %g1
   1368c:	98 11 80 04 	or  %g6, %g4, %o4
   13690:	c4 1a 60 30 	ldd  [ %o1 + 0x30 ], %g2
   13694:	c8 1a 60 38 	ldd  [ %o1 + 0x38 ], %g4
   13698:	9b 30 a0 08 	srl  %g2, 8, %o5
   1369c:	8d 30 e0 08 	srl  %g3, 8, %g6
   136a0:	85 28 a0 18 	sll  %g2, 0x18, %g2
   136a4:	9a 13 40 01 	or  %o5, %g1, %o5
   136a8:	83 28 e0 18 	sll  %g3, 0x18, %g1
   136ac:	84 11 80 02 	or  %g6, %g2, %g2
   136b0:	87 31 20 08 	srl  %g4, 8, %g3
   136b4:	8d 31 60 08 	srl  %g5, 8, %g6
   136b8:	89 29 20 18 	sll  %g4, 0x18, %g4
   136bc:	86 10 c0 01 	or  %g3, %g1, %g3
   136c0:	d8 3a 20 2b 	std  %o4, [ %o0 + 0x2b ]
   136c4:	c4 3a 20 33 	std  %g2, [ %o0 + 0x33 ]
   136c8:	83 29 60 18 	sll  %g5, 0x18, %g1
   136cc:	98 11 80 04 	or  %g6, %g4, %o4
   136d0:	96 a2 e0 40 	subcc  %o3, 0x40, %o3
   136d4:	92 02 60 40 	add  %o1, 0x40, %o1
   136d8:	12 bf ff be 	bne  135d0 <__GI_memcpy+0x99c>
   136dc:	90 02 20 40 	add  %o0, 0x40, %o0
   136e0:	96 8a a0 30 	andcc  %o2, 0x30, %o3
   136e4:	22 80 00 17 	be,a   13740 <__GI_memcpy+0xb0c>
   136e8:	85 30 60 18 	srl  %g1, 0x18, %g2
   136ec:	c4 1a 60 00 	ldd  [ %o1 ], %g2
   136f0:	c8 1a 60 08 	ldd  [ %o1 + 8 ], %g4
   136f4:	9b 30 a0 08 	srl  %g2, 8, %o5
   136f8:	8d 30 e0 08 	srl  %g3, 8, %g6
   136fc:	85 28 a0 18 	sll  %g2, 0x18, %g2
   13700:	9a 13 40 01 	or  %o5, %g1, %o5
   13704:	83 28 e0 18 	sll  %g3, 0x18, %g1
   13708:	84 11 80 02 	or  %g6, %g2, %g2
   1370c:	87 31 20 08 	srl  %g4, 8, %g3
   13710:	8d 31 60 08 	srl  %g5, 8, %g6
   13714:	89 29 20 18 	sll  %g4, 0x18, %g4
   13718:	86 10 c0 01 	or  %g3, %g1, %g3
   1371c:	d8 3a 3f fb 	std  %o4, [ %o0 + -5 ]
   13720:	c4 3a 20 03 	std  %g2, [ %o0 + 3 ]
   13724:	83 29 60 18 	sll  %g5, 0x18, %g1
   13728:	98 11 80 04 	or  %g6, %g4, %o4
   1372c:	96 a2 e0 10 	subcc  %o3, 0x10, %o3
   13730:	92 02 60 10 	add  %o1, 0x10, %o1
   13734:	12 bf ff ee 	bne  136ec <__GI_memcpy+0xab8>
   13738:	90 02 20 10 	add  %o0, 0x10, %o0
   1373c:	85 30 60 18 	srl  %g1, 0x18, %g2
   13740:	d8 22 3f fb 	st  %o4, [ %o0 + -5 ]
   13744:	10 80 01 1e 	b  13bbc <__GI_memcpy+0xf88>
   13748:	c4 2a 3f ff 	stb  %g2, [ %o0 + -1 ]
   1374c:	c4 1a 60 00 	ldd  [ %o1 ], %g2
   13750:	c8 1a 60 08 	ldd  [ %o1 + 8 ], %g4
   13754:	99 30 a0 18 	srl  %g2, 0x18, %o4
   13758:	9b 30 e0 18 	srl  %g3, 0x18, %o5
   1375c:	8d 28 a0 08 	sll  %g2, 8, %g6
   13760:	84 13 00 01 	or  %o4, %g1, %g2
   13764:	83 28 e0 08 	sll  %g3, 8, %g1
   13768:	86 13 40 06 	or  %o5, %g6, %g3
   1376c:	99 31 20 18 	srl  %g4, 0x18, %o4
   13770:	9b 31 60 18 	srl  %g5, 0x18, %o5
   13774:	8d 29 20 08 	sll  %g4, 8, %g6
   13778:	88 13 00 01 	or  %o4, %g1, %g4
   1377c:	83 29 60 08 	sll  %g5, 8, %g1
   13780:	8a 13 40 06 	or  %o5, %g6, %g5
   13784:	c4 3a 3f fd 	std  %g2, [ %o0 + -3 ]
   13788:	c8 3a 20 05 	std  %g4, [ %o0 + 5 ]
   1378c:	c4 1a 60 10 	ldd  [ %o1 + 0x10 ], %g2
   13790:	c8 1a 60 18 	ldd  [ %o1 + 0x18 ], %g4
   13794:	99 30 a0 18 	srl  %g2, 0x18, %o4
   13798:	9b 30 e0 18 	srl  %g3, 0x18, %o5
   1379c:	8d 28 a0 08 	sll  %g2, 8, %g6
   137a0:	84 13 00 01 	or  %o4, %g1, %g2
   137a4:	83 28 e0 08 	sll  %g3, 8, %g1
   137a8:	86 13 40 06 	or  %o5, %g6, %g3
   137ac:	99 31 20 18 	srl  %g4, 0x18, %o4
   137b0:	9b 31 60 18 	srl  %g5, 0x18, %o5
   137b4:	8d 29 20 08 	sll  %g4, 8, %g6
   137b8:	88 13 00 01 	or  %o4, %g1, %g4
   137bc:	83 29 60 08 	sll  %g5, 8, %g1
   137c0:	8a 13 40 06 	or  %o5, %g6, %g5
   137c4:	c4 3a 20 0d 	std  %g2, [ %o0 + 0xd ]
   137c8:	c8 3a 20 15 	std  %g4, [ %o0 + 0x15 ]
   137cc:	c4 1a 60 20 	ldd  [ %o1 + 0x20 ], %g2
   137d0:	c8 1a 60 28 	ldd  [ %o1 + 0x28 ], %g4
   137d4:	99 30 a0 18 	srl  %g2, 0x18, %o4
   137d8:	9b 30 e0 18 	srl  %g3, 0x18, %o5
   137dc:	8d 28 a0 08 	sll  %g2, 8, %g6
   137e0:	84 13 00 01 	or  %o4, %g1, %g2
   137e4:	83 28 e0 08 	sll  %g3, 8, %g1
   137e8:	86 13 40 06 	or  %o5, %g6, %g3
   137ec:	99 31 20 18 	srl  %g4, 0x18, %o4
   137f0:	9b 31 60 18 	srl  %g5, 0x18, %o5
   137f4:	8d 29 20 08 	sll  %g4, 8, %g6
   137f8:	88 13 00 01 	or  %o4, %g1, %g4
   137fc:	83 29 60 08 	sll  %g5, 8, %g1
   13800:	8a 13 40 06 	or  %o5, %g6, %g5
   13804:	c4 3a 20 1d 	std  %g2, [ %o0 + 0x1d ]
   13808:	c8 3a 20 25 	std  %g4, [ %o0 + 0x25 ]
   1380c:	c4 1a 60 30 	ldd  [ %o1 + 0x30 ], %g2
   13810:	c8 1a 60 38 	ldd  [ %o1 + 0x38 ], %g4
   13814:	99 30 a0 18 	srl  %g2, 0x18, %o4
   13818:	9b 30 e0 18 	srl  %g3, 0x18, %o5
   1381c:	8d 28 a0 08 	sll  %g2, 8, %g6
   13820:	84 13 00 01 	or  %o4, %g1, %g2
   13824:	83 28 e0 08 	sll  %g3, 8, %g1
   13828:	86 13 40 06 	or  %o5, %g6, %g3
   1382c:	99 31 20 18 	srl  %g4, 0x18, %o4
   13830:	9b 31 60 18 	srl  %g5, 0x18, %o5
   13834:	8d 29 20 08 	sll  %g4, 8, %g6
   13838:	88 13 00 01 	or  %o4, %g1, %g4
   1383c:	83 29 60 08 	sll  %g5, 8, %g1
   13840:	8a 13 40 06 	or  %o5, %g6, %g5
   13844:	c4 3a 20 2d 	std  %g2, [ %o0 + 0x2d ]
   13848:	c8 3a 20 35 	std  %g4, [ %o0 + 0x35 ]
   1384c:	96 a2 e0 40 	subcc  %o3, 0x40, %o3
   13850:	92 02 60 40 	add  %o1, 0x40, %o1
   13854:	12 bf ff be 	bne  1374c <__GI_memcpy+0xb18>
   13858:	90 02 20 40 	add  %o0, 0x40, %o0
   1385c:	96 8a a0 30 	andcc  %o2, 0x30, %o3
   13860:	22 80 00 17 	be,a   138bc <__GI_memcpy+0xc88>
   13864:	85 30 60 10 	srl  %g1, 0x10, %g2
   13868:	c4 1a 60 00 	ldd  [ %o1 ], %g2
   1386c:	c8 1a 60 08 	ldd  [ %o1 + 8 ], %g4
   13870:	99 30 a0 18 	srl  %g2, 0x18, %o4
   13874:	9b 30 e0 18 	srl  %g3, 0x18, %o5
   13878:	8d 28 a0 08 	sll  %g2, 8, %g6
   1387c:	84 13 00 01 	or  %o4, %g1, %g2
   13880:	83 28 e0 08 	sll  %g3, 8, %g1
   13884:	86 13 40 06 	or  %o5, %g6, %g3
   13888:	99 31 20 18 	srl  %g4, 0x18, %o4
   1388c:	9b 31 60 18 	srl  %g5, 0x18, %o5
   13890:	8d 29 20 08 	sll  %g4, 8, %g6
   13894:	88 13 00 01 	or  %o4, %g1, %g4
   13898:	83 29 60 08 	sll  %g5, 8, %g1
   1389c:	8a 13 40 06 	or  %o5, %g6, %g5
   138a0:	c4 3a 3f fd 	std  %g2, [ %o0 + -3 ]
   138a4:	c8 3a 20 05 	std  %g4, [ %o0 + 5 ]
   138a8:	96 a2 e0 10 	subcc  %o3, 0x10, %o3
   138ac:	92 02 60 10 	add  %o1, 0x10, %o1
   138b0:	12 bf ff ee 	bne  13868 <__GI_memcpy+0xc34>
   138b4:	90 02 20 10 	add  %o0, 0x10, %o0
   138b8:	85 30 60 10 	srl  %g1, 0x10, %g2
   138bc:	c4 32 3f fd 	sth  %g2, [ %o0 + -3 ]
   138c0:	89 30 60 08 	srl  %g1, 8, %g4
   138c4:	10 80 00 be 	b  13bbc <__GI_memcpy+0xf88>
   138c8:	c8 2a 3f ff 	stb  %g4, [ %o0 + -1 ]
   138cc:	c4 1a 60 00 	ldd  [ %o1 ], %g2
   138d0:	c8 1a 60 08 	ldd  [ %o1 + 8 ], %g4
   138d4:	99 30 a0 08 	srl  %g2, 8, %o4
   138d8:	9b 30 e0 08 	srl  %g3, 8, %o5
   138dc:	8d 28 a0 18 	sll  %g2, 0x18, %g6
   138e0:	84 13 00 01 	or  %o4, %g1, %g2
   138e4:	83 28 e0 18 	sll  %g3, 0x18, %g1
   138e8:	86 13 40 06 	or  %o5, %g6, %g3
   138ec:	99 31 20 08 	srl  %g4, 8, %o4
   138f0:	9b 31 60 08 	srl  %g5, 8, %o5
   138f4:	8d 29 20 18 	sll  %g4, 0x18, %g6
   138f8:	88 13 00 01 	or  %o4, %g1, %g4
   138fc:	83 29 60 18 	sll  %g5, 0x18, %g1
   13900:	8a 13 40 06 	or  %o5, %g6, %g5
   13904:	c4 3a 20 03 	std  %g2, [ %o0 + 3 ]
   13908:	c8 3a 20 0b 	std  %g4, [ %o0 + 0xb ]
   1390c:	c4 1a 60 10 	ldd  [ %o1 + 0x10 ], %g2
   13910:	c8 1a 60 18 	ldd  [ %o1 + 0x18 ], %g4
   13914:	99 30 a0 08 	srl  %g2, 8, %o4
   13918:	9b 30 e0 08 	srl  %g3, 8, %o5
   1391c:	8d 28 a0 18 	sll  %g2, 0x18, %g6
   13920:	84 13 00 01 	or  %o4, %g1, %g2
   13924:	83 28 e0 18 	sll  %g3, 0x18, %g1
   13928:	86 13 40 06 	or  %o5, %g6, %g3
   1392c:	99 31 20 08 	srl  %g4, 8, %o4
   13930:	9b 31 60 08 	srl  %g5, 8, %o5
   13934:	8d 29 20 18 	sll  %g4, 0x18, %g6
   13938:	88 13 00 01 	or  %o4, %g1, %g4
   1393c:	83 29 60 18 	sll  %g5, 0x18, %g1
   13940:	8a 13 40 06 	or  %o5, %g6, %g5
   13944:	c4 3a 20 13 	std  %g2, [ %o0 + 0x13 ]
   13948:	c8 3a 20 1b 	std  %g4, [ %o0 + 0x1b ]
   1394c:	c4 1a 60 20 	ldd  [ %o1 + 0x20 ], %g2
   13950:	c8 1a 60 28 	ldd  [ %o1 + 0x28 ], %g4
   13954:	99 30 a0 08 	srl  %g2, 8, %o4
   13958:	9b 30 e0 08 	srl  %g3, 8, %o5
   1395c:	8d 28 a0 18 	sll  %g2, 0x18, %g6
   13960:	84 13 00 01 	or  %o4, %g1, %g2
   13964:	83 28 e0 18 	sll  %g3, 0x18, %g1
   13968:	86 13 40 06 	or  %o5, %g6, %g3
   1396c:	99 31 20 08 	srl  %g4, 8, %o4
   13970:	9b 31 60 08 	srl  %g5, 8, %o5
   13974:	8d 29 20 18 	sll  %g4, 0x18, %g6
   13978:	88 13 00 01 	or  %o4, %g1, %g4
   1397c:	83 29 60 18 	sll  %g5, 0x18, %g1
   13980:	8a 13 40 06 	or  %o5, %g6, %g5
   13984:	c4 3a 20 23 	std  %g2, [ %o0 + 0x23 ]
   13988:	c8 3a 20 2b 	std  %g4, [ %o0 + 0x2b ]
   1398c:	c4 1a 60 30 	ldd  [ %o1 + 0x30 ], %g2
   13990:	c8 1a 60 38 	ldd  [ %o1 + 0x38 ], %g4
   13994:	99 30 a0 08 	srl  %g2, 8, %o4
   13998:	9b 30 e0 08 	srl  %g3, 8, %o5
   1399c:	8d 28 a0 18 	sll  %g2, 0x18, %g6
   139a0:	84 13 00 01 	or  %o4, %g1, %g2
   139a4:	83 28 e0 18 	sll  %g3, 0x18, %g1
   139a8:	86 13 40 06 	or  %o5, %g6, %g3
   139ac:	99 31 20 08 	srl  %g4, 8, %o4
   139b0:	9b 31 60 08 	srl  %g5, 8, %o5
   139b4:	8d 29 20 18 	sll  %g4, 0x18, %g6
   139b8:	88 13 00 01 	or  %o4, %g1, %g4
   139bc:	83 29 60 18 	sll  %g5, 0x18, %g1
   139c0:	8a 13 40 06 	or  %o5, %g6, %g5
   139c4:	c4 3a 20 33 	std  %g2, [ %o0 + 0x33 ]
   139c8:	c8 3a 20 3b 	std  %g4, [ %o0 + 0x3b ]
   139cc:	96 a2 e0 40 	subcc  %o3, 0x40, %o3
   139d0:	92 02 60 40 	add  %o1, 0x40, %o1
   139d4:	12 bf ff be 	bne  138cc <__GI_memcpy+0xc98>
   139d8:	90 02 20 40 	add  %o0, 0x40, %o0
   139dc:	96 8a a0 30 	andcc  %o2, 0x30, %o3
   139e0:	22 80 00 17 	be,a   13a3c <__GI_memcpy+0xe08>
   139e4:	85 30 60 18 	srl  %g1, 0x18, %g2
   139e8:	c4 1a 60 00 	ldd  [ %o1 ], %g2
   139ec:	c8 1a 60 08 	ldd  [ %o1 + 8 ], %g4
   139f0:	99 30 a0 08 	srl  %g2, 8, %o4
   139f4:	9b 30 e0 08 	srl  %g3, 8, %o5
   139f8:	8d 28 a0 18 	sll  %g2, 0x18, %g6
   139fc:	84 13 00 01 	or  %o4, %g1, %g2
   13a00:	83 28 e0 18 	sll  %g3, 0x18, %g1
   13a04:	86 13 40 06 	or  %o5, %g6, %g3
   13a08:	99 31 20 08 	srl  %g4, 8, %o4
   13a0c:	9b 31 60 08 	srl  %g5, 8, %o5
   13a10:	8d 29 20 18 	sll  %g4, 0x18, %g6
   13a14:	88 13 00 01 	or  %o4, %g1, %g4
   13a18:	83 29 60 18 	sll  %g5, 0x18, %g1
   13a1c:	8a 13 40 06 	or  %o5, %g6, %g5
   13a20:	c4 3a 20 03 	std  %g2, [ %o0 + 3 ]
   13a24:	c8 3a 20 0b 	std  %g4, [ %o0 + 0xb ]
   13a28:	96 a2 e0 10 	subcc  %o3, 0x10, %o3
   13a2c:	92 02 60 10 	add  %o1, 0x10, %o1
   13a30:	12 bf ff ee 	bne  139e8 <__GI_memcpy+0xdb4>
   13a34:	90 02 20 10 	add  %o0, 0x10, %o0
   13a38:	85 30 60 18 	srl  %g1, 0x18, %g2
   13a3c:	c4 2a 20 03 	stb  %g2, [ %o0 + 3 ]
   13a40:	10 80 00 5f 	b  13bbc <__GI_memcpy+0xf88>
   13a44:	90 02 20 04 	add  %o0, 4, %o0
   13a48:	c4 1a 60 00 	ldd  [ %o1 ], %g2
   13a4c:	c8 1a 60 08 	ldd  [ %o1 + 8 ], %g4
   13a50:	99 30 a0 10 	srl  %g2, 0x10, %o4
   13a54:	9b 30 e0 10 	srl  %g3, 0x10, %o5
   13a58:	8d 28 a0 10 	sll  %g2, 0x10, %g6
   13a5c:	84 13 00 01 	or  %o4, %g1, %g2
   13a60:	83 28 e0 10 	sll  %g3, 0x10, %g1
   13a64:	86 13 40 06 	or  %o5, %g6, %g3
   13a68:	99 31 20 10 	srl  %g4, 0x10, %o4
   13a6c:	9b 31 60 10 	srl  %g5, 0x10, %o5
   13a70:	8d 29 20 10 	sll  %g4, 0x10, %g6
   13a74:	88 13 00 01 	or  %o4, %g1, %g4
   13a78:	83 29 60 10 	sll  %g5, 0x10, %g1
   13a7c:	8a 13 40 06 	or  %o5, %g6, %g5
   13a80:	c4 3a 3f fe 	std  %g2, [ %o0 + -2 ]
   13a84:	c8 3a 20 06 	std  %g4, [ %o0 + 6 ]
   13a88:	c4 1a 60 10 	ldd  [ %o1 + 0x10 ], %g2
   13a8c:	c8 1a 60 18 	ldd  [ %o1 + 0x18 ], %g4
   13a90:	99 30 a0 10 	srl  %g2, 0x10, %o4
   13a94:	9b 30 e0 10 	srl  %g3, 0x10, %o5
   13a98:	8d 28 a0 10 	sll  %g2, 0x10, %g6
   13a9c:	84 13 00 01 	or  %o4, %g1, %g2
   13aa0:	83 28 e0 10 	sll  %g3, 0x10, %g1
   13aa4:	86 13 40 06 	or  %o5, %g6, %g3
   13aa8:	99 31 20 10 	srl  %g4, 0x10, %o4
   13aac:	9b 31 60 10 	srl  %g5, 0x10, %o5
   13ab0:	8d 29 20 10 	sll  %g4, 0x10, %g6
   13ab4:	88 13 00 01 	or  %o4, %g1, %g4
   13ab8:	83 29 60 10 	sll  %g5, 0x10, %g1
   13abc:	8a 13 40 06 	or  %o5, %g6, %g5
   13ac0:	c4 3a 20 0e 	std  %g2, [ %o0 + 0xe ]
   13ac4:	c8 3a 20 16 	std  %g4, [ %o0 + 0x16 ]
   13ac8:	c4 1a 60 20 	ldd  [ %o1 + 0x20 ], %g2
   13acc:	c8 1a 60 28 	ldd  [ %o1 + 0x28 ], %g4
   13ad0:	99 30 a0 10 	srl  %g2, 0x10, %o4
   13ad4:	9b 30 e0 10 	srl  %g3, 0x10, %o5
   13ad8:	8d 28 a0 10 	sll  %g2, 0x10, %g6
   13adc:	84 13 00 01 	or  %o4, %g1, %g2
   13ae0:	83 28 e0 10 	sll  %g3, 0x10, %g1
   13ae4:	86 13 40 06 	or  %o5, %g6, %g3
   13ae8:	99 31 20 10 	srl  %g4, 0x10, %o4
   13aec:	9b 31 60 10 	srl  %g5, 0x10, %o5
   13af0:	8d 29 20 10 	sll  %g4, 0x10, %g6
   13af4:	88 13 00 01 	or  %o4, %g1, %g4
   13af8:	83 29 60 10 	sll  %g5, 0x10, %g1
   13afc:	8a 13 40 06 	or  %o5, %g6, %g5
   13b00:	c4 3a 20 1e 	std  %g2, [ %o0 + 0x1e ]
   13b04:	c8 3a 20 26 	std  %g4, [ %o0 + 0x26 ]
   13b08:	c4 1a 60 30 	ldd  [ %o1 + 0x30 ], %g2
   13b0c:	c8 1a 60 38 	ldd  [ %o1 + 0x38 ], %g4
   13b10:	99 30 a0 10 	srl  %g2, 0x10, %o4
   13b14:	9b 30 e0 10 	srl  %g3, 0x10, %o5
   13b18:	8d 28 a0 10 	sll  %g2, 0x10, %g6
   13b1c:	84 13 00 01 	or  %o4, %g1, %g2
   13b20:	83 28 e0 10 	sll  %g3, 0x10, %g1
   13b24:	86 13 40 06 	or  %o5, %g6, %g3
   13b28:	99 31 20 10 	srl  %g4, 0x10, %o4
   13b2c:	9b 31 60 10 	srl  %g5, 0x10, %o5
   13b30:	8d 29 20 10 	sll  %g4, 0x10, %g6
   13b34:	88 13 00 01 	or  %o4, %g1, %g4
   13b38:	83 29 60 10 	sll  %g5, 0x10, %g1
   13b3c:	8a 13 40 06 	or  %o5, %g6, %g5
   13b40:	c4 3a 20 2e 	std  %g2, [ %o0 + 0x2e ]
   13b44:	c8 3a 20 36 	std  %g4, [ %o0 + 0x36 ]
   13b48:	96 a2 e0 40 	subcc  %o3, 0x40, %o3
   13b4c:	92 02 60 40 	add  %o1, 0x40, %o1
   13b50:	12 bf ff be 	bne  13a48 <__GI_memcpy+0xe14>
   13b54:	90 02 20 40 	add  %o0, 0x40, %o0
   13b58:	96 8a a0 30 	andcc  %o2, 0x30, %o3
   13b5c:	22 80 00 17 	be,a   13bb8 <__GI_memcpy+0xf84>
   13b60:	85 30 60 10 	srl  %g1, 0x10, %g2
   13b64:	c4 1a 60 00 	ldd  [ %o1 ], %g2
   13b68:	c8 1a 60 08 	ldd  [ %o1 + 8 ], %g4
   13b6c:	99 30 a0 10 	srl  %g2, 0x10, %o4
   13b70:	9b 30 e0 10 	srl  %g3, 0x10, %o5
   13b74:	8d 28 a0 10 	sll  %g2, 0x10, %g6
   13b78:	84 13 00 01 	or  %o4, %g1, %g2
   13b7c:	83 28 e0 10 	sll  %g3, 0x10, %g1
   13b80:	86 13 40 06 	or  %o5, %g6, %g3
   13b84:	99 31 20 10 	srl  %g4, 0x10, %o4
   13b88:	9b 31 60 10 	srl  %g5, 0x10, %o5
   13b8c:	8d 29 20 10 	sll  %g4, 0x10, %g6
   13b90:	88 13 00 01 	or  %o4, %g1, %g4
   13b94:	83 29 60 10 	sll  %g5, 0x10, %g1
   13b98:	8a 13 40 06 	or  %o5, %g6, %g5
   13b9c:	c4 3a 3f fe 	std  %g2, [ %o0 + -2 ]
   13ba0:	c8 3a 20 06 	std  %g4, [ %o0 + 6 ]
   13ba4:	96 a2 e0 10 	subcc  %o3, 0x10, %o3
   13ba8:	92 02 60 10 	add  %o1, 0x10, %o1
   13bac:	12 bf ff ee 	bne  13b64 <__GI_memcpy+0xf30>
   13bb0:	90 02 20 10 	add  %o0, 0x10, %o0
   13bb4:	85 30 60 10 	srl  %g1, 0x10, %g2
   13bb8:	c4 32 3f fe 	sth  %g2, [ %o0 + -2 ]
   13bbc:	96 0a a0 0e 	and  %o2, 0xe, %o3
   13bc0:	84 10 00 0f 	mov  %o7, %g2
   13bc4:	99 2a e0 03 	sll  %o3, 3, %o4
   13bc8:	90 02 00 0b 	add  %o0, %o3, %o0
   13bcc:	40 00 00 33 	call  13c98 <__GI_memcpy+0x1064>
   13bd0:	92 02 40 0b 	add  %o1, %o3, %o1
   13bd4:	9e 10 00 02 	mov  %g2, %o7
   13bd8:	81 c3 60 84 	jmp  %o5 + 0x84
   13bdc:	80 8a a0 01 	btst  1, %o2
   13be0:	c4 0a 7f f2 	ldub  [ %o1 + -14 ], %g2
   13be4:	c6 0a 7f f3 	ldub  [ %o1 + -13 ], %g3
   13be8:	c4 2a 3f f2 	stb  %g2, [ %o0 + -14 ]
   13bec:	c6 2a 3f f3 	stb  %g3, [ %o0 + -13 ]
   13bf0:	c4 0a 7f f4 	ldub  [ %o1 + -12 ], %g2
   13bf4:	c6 0a 7f f5 	ldub  [ %o1 + -11 ], %g3
   13bf8:	c4 2a 3f f4 	stb  %g2, [ %o0 + -12 ]
   13bfc:	c6 2a 3f f5 	stb  %g3, [ %o0 + -11 ]
   13c00:	c4 0a 7f f6 	ldub  [ %o1 + -10 ], %g2
   13c04:	c6 0a 7f f7 	ldub  [ %o1 + -9 ], %g3
   13c08:	c4 2a 3f f6 	stb  %g2, [ %o0 + -10 ]
   13c0c:	c6 2a 3f f7 	stb  %g3, [ %o0 + -9 ]
   13c10:	c4 0a 7f f8 	ldub  [ %o1 + -8 ], %g2
   13c14:	c6 0a 7f f9 	ldub  [ %o1 + -7 ], %g3
   13c18:	c4 2a 3f f8 	stb  %g2, [ %o0 + -8 ]
   13c1c:	c6 2a 3f f9 	stb  %g3, [ %o0 + -7 ]
   13c20:	c4 0a 7f fa 	ldub  [ %o1 + -6 ], %g2
   13c24:	c6 0a 7f fb 	ldub  [ %o1 + -5 ], %g3
   13c28:	c4 2a 3f fa 	stb  %g2, [ %o0 + -6 ]
   13c2c:	c6 2a 3f fb 	stb  %g3, [ %o0 + -5 ]
   13c30:	c4 0a 7f fc 	ldub  [ %o1 + -4 ], %g2
   13c34:	c6 0a 7f fd 	ldub  [ %o1 + -3 ], %g3
   13c38:	c4 2a 3f fc 	stb  %g2, [ %o0 + -4 ]
   13c3c:	c6 2a 3f fd 	stb  %g3, [ %o0 + -3 ]
   13c40:	c4 0a 7f fe 	ldub  [ %o1 + -2 ], %g2
   13c44:	c6 0a 7f ff 	ldub  [ %o1 + -1 ], %g3
   13c48:	c4 2a 3f fe 	stb  %g2, [ %o0 + -2 ]
   13c4c:	c6 2a 3f ff 	stb  %g3, [ %o0 + -1 ]
   13c50:	02 80 00 04 	be  13c60 <__GI_memcpy+0x102c>
   13c54:	01 00 00 00 	nop 
   13c58:	c4 0a 40 00 	ldub  [ %o1 ], %g2
   13c5c:	c4 2a 00 00 	stb  %g2, [ %o0 ]
   13c60:	81 c3 e0 08 	retl 
   13c64:	d0 03 a0 40 	ld  [ %sp + 0x40 ], %o0
   13c68:	12 bf ff d5 	bne  13bbc <__GI_memcpy+0xf88>
   13c6c:	80 8a a0 08 	btst  8, %o2
   13c70:	02 80 00 08 	be  13c90 <__GI_memcpy+0x105c>
   13c74:	80 8a a0 04 	btst  4, %o2
   13c78:	c4 02 60 00 	ld  [ %o1 ], %g2
   13c7c:	c6 02 60 04 	ld  [ %o1 + 4 ], %g3
   13c80:	92 02 60 08 	add  %o1, 8, %o1
   13c84:	c4 22 20 00 	st  %g2, [ %o0 ]
   13c88:	c6 22 20 04 	st  %g3, [ %o0 + 4 ]
   13c8c:	90 02 20 08 	add  %o0, 8, %o0
   13c90:	10 bf fc 6d 	b  12e44 <__GI_memcpy+0x210>
   13c94:	82 10 00 0a 	mov  %o2, %g1
   13c98:	81 c3 e0 08 	retl 
   13c9c:	9a 23 c0 0c 	sub  %o7, %o4, %o5
   13ca0:	81 c3 e0 08 	retl 
   13ca4:	9a 23 c0 06 	sub  %o7, %g6, %o5

00013ca8 <bzero>:
   13ca8:	10 80 00 13 	b  13cf4 <__GI_memset+0x18>
   13cac:	86 10 00 00 	mov  %g0, %g3
   13cb0:	80 a2 a0 03 	cmp  %o2, 3
   13cb4:	02 80 00 06 	be  13ccc <bzero+0x24>
   13cb8:	c6 2a 00 00 	stb  %g3, [ %o0 ]
   13cbc:	80 a2 a0 02 	cmp  %o2, 2
   13cc0:	02 80 00 03 	be  13ccc <bzero+0x24>
   13cc4:	c6 2a 20 01 	stb  %g3, [ %o0 + 1 ]
   13cc8:	c6 2a 20 02 	stb  %g3, [ %o0 + 2 ]
   13ccc:	94 22 a0 04 	sub  %o2, 4, %o2
   13cd0:	92 02 40 0a 	add  %o1, %o2, %o1
   13cd4:	10 80 00 0d 	b  13d08 <__GI_memset+0x2c>
   13cd8:	90 22 00 0a 	sub  %o0, %o2, %o0

00013cdc <__GI_memset>:
   13cdc:	86 0a 60 ff 	and  %o1, 0xff, %g3
   13ce0:	85 28 e0 08 	sll  %g3, 8, %g2
   13ce4:	86 10 c0 02 	or  %g3, %g2, %g3
   13ce8:	85 28 e0 10 	sll  %g3, 0x10, %g2
   13cec:	86 10 c0 02 	or  %g3, %g2, %g3
   13cf0:	92 92 80 00 	orcc  %o2, %g0, %o1
   13cf4:	80 a2 60 07 	cmp  %o1, 7
   13cf8:	08 80 00 49 	bleu  13e1c <__GI_memset+0x140>
   13cfc:	82 10 00 08 	mov  %o0, %g1
   13d00:	94 8a 20 03 	andcc  %o0, 3, %o2
   13d04:	12 bf ff eb 	bne  13cb0 <bzero+0x8>
   13d08:	80 8a 20 04 	btst  4, %o0
   13d0c:	02 80 00 05 	be  13d20 <__GI_memset+0x44>
   13d10:	84 10 00 03 	mov  %g3, %g2
   13d14:	c6 22 00 00 	st  %g3, [ %o0 ]
   13d18:	92 22 60 04 	sub  %o1, 4, %o1
   13d1c:	90 02 20 04 	add  %o0, 4, %o0
   13d20:	96 8a 7f 80 	andcc  %o1, -128, %o3
   13d24:	02 80 00 16 	be  13d7c <__GI_memset+0xa0>
   13d28:	94 8a 60 78 	andcc  %o1, 0x78, %o2
   13d2c:	c4 3a 20 00 	std  %g2, [ %o0 ]
   13d30:	c4 3a 20 08 	std  %g2, [ %o0 + 8 ]
   13d34:	c4 3a 20 10 	std  %g2, [ %o0 + 0x10 ]
   13d38:	c4 3a 20 18 	std  %g2, [ %o0 + 0x18 ]
   13d3c:	c4 3a 20 20 	std  %g2, [ %o0 + 0x20 ]
   13d40:	c4 3a 20 28 	std  %g2, [ %o0 + 0x28 ]
   13d44:	c4 3a 20 30 	std  %g2, [ %o0 + 0x30 ]
   13d48:	c4 3a 20 38 	std  %g2, [ %o0 + 0x38 ]
   13d4c:	96 a2 e0 80 	subcc  %o3, 0x80, %o3
   13d50:	c4 3a 20 40 	std  %g2, [ %o0 + 0x40 ]
   13d54:	c4 3a 20 48 	std  %g2, [ %o0 + 0x48 ]
   13d58:	c4 3a 20 50 	std  %g2, [ %o0 + 0x50 ]
   13d5c:	c4 3a 20 58 	std  %g2, [ %o0 + 0x58 ]
   13d60:	c4 3a 20 60 	std  %g2, [ %o0 + 0x60 ]
   13d64:	c4 3a 20 68 	std  %g2, [ %o0 + 0x68 ]
   13d68:	c4 3a 20 70 	std  %g2, [ %o0 + 0x70 ]
   13d6c:	c4 3a 20 78 	std  %g2, [ %o0 + 0x78 ]
   13d70:	12 bf ff ef 	bne  13d2c <__GI_memset+0x50>
   13d74:	90 02 20 80 	add  %o0, 0x80, %o0
   13d78:	80 92 80 00 	tst  %o2
   13d7c:	02 80 00 1a 	be  13de4 <__GI_memset+0x108>
   13d80:	92 8a 60 07 	andcc  %o1, 7, %o1
   13d84:	88 10 00 0f 	mov  %o7, %g4
   13d88:	40 00 00 05 	call  13d9c <__GI_memset+0xc0>
   13d8c:	97 32 a0 01 	srl  %o2, 1, %o3
   13d90:	9e 10 00 04 	mov  %g4, %o7
   13d94:	81 c3 20 5c 	jmp  %o4 + 0x5c
   13d98:	90 02 00 0a 	add  %o0, %o2, %o0
   13d9c:	81 c3 e0 08 	retl 
   13da0:	98 23 c0 0b 	sub  %o7, %o3, %o4
   13da4:	c4 3a 3f 80 	std  %g2, [ %o0 + -128 ]
   13da8:	c4 3a 3f 88 	std  %g2, [ %o0 + -120 ]
   13dac:	c4 3a 3f 90 	std  %g2, [ %o0 + -112 ]
   13db0:	c4 3a 3f 98 	std  %g2, [ %o0 + -104 ]
   13db4:	c4 3a 3f a0 	std  %g2, [ %o0 + -96 ]
   13db8:	c4 3a 3f a8 	std  %g2, [ %o0 + -88 ]
   13dbc:	c4 3a 3f b0 	std  %g2, [ %o0 + -80 ]
   13dc0:	c4 3a 3f b8 	std  %g2, [ %o0 + -72 ]
   13dc4:	c4 3a 3f c0 	std  %g2, [ %o0 + -64 ]
   13dc8:	c4 3a 3f c8 	std  %g2, [ %o0 + -56 ]
   13dcc:	c4 3a 3f d0 	std  %g2, [ %o0 + -48 ]
   13dd0:	c4 3a 3f d8 	std  %g2, [ %o0 + -40 ]
   13dd4:	c4 3a 3f e0 	std  %g2, [ %o0 + -32 ]
   13dd8:	c4 3a 3f e8 	std  %g2, [ %o0 + -24 ]
   13ddc:	c4 3a 3f f0 	std  %g2, [ %o0 + -16 ]
   13de0:	c4 3a 3f f8 	std  %g2, [ %o0 + -8 ]
   13de4:	02 80 00 0c 	be  13e14 <__GI_memset+0x138>
   13de8:	80 8a 60 04 	btst  4, %o1
   13dec:	02 80 00 04 	be  13dfc <__GI_memset+0x120>
   13df0:	80 8a 60 02 	btst  2, %o1
   13df4:	c6 22 00 00 	st  %g3, [ %o0 ]
   13df8:	90 02 20 04 	add  %o0, 4, %o0
   13dfc:	02 80 00 04 	be  13e0c <__GI_memset+0x130>
   13e00:	80 8a 60 01 	btst  1, %o1
   13e04:	c6 32 00 00 	sth  %g3, [ %o0 ]
   13e08:	90 02 20 02 	add  %o0, 2, %o0
   13e0c:	32 80 00 02 	bne,a   13e14 <__GI_memset+0x138>
   13e10:	c6 2a 00 00 	stb  %g3, [ %o0 ]
   13e14:	81 c3 e0 08 	retl 
   13e18:	90 10 00 01 	mov  %g1, %o0
   13e1c:	80 92 60 00 	tst  %o1
   13e20:	02 80 00 15 	be  13e74 <__GI_memset+0x198>
   13e24:	92 a2 60 01 	deccc  %o1
   13e28:	c6 2a 00 00 	stb  %g3, [ %o0 ]
   13e2c:	02 80 00 12 	be  13e74 <__GI_memset+0x198>
   13e30:	92 a2 60 01 	deccc  %o1
   13e34:	c6 2a 20 01 	stb  %g3, [ %o0 + 1 ]
   13e38:	02 80 00 0f 	be  13e74 <__GI_memset+0x198>
   13e3c:	92 a2 60 01 	deccc  %o1
   13e40:	c6 2a 20 02 	stb  %g3, [ %o0 + 2 ]
   13e44:	02 80 00 0c 	be  13e74 <__GI_memset+0x198>
   13e48:	92 a2 60 01 	deccc  %o1
   13e4c:	c6 2a 20 03 	stb  %g3, [ %o0 + 3 ]
   13e50:	02 80 00 09 	be  13e74 <__GI_memset+0x198>
   13e54:	92 a2 60 01 	deccc  %o1
   13e58:	c6 2a 20 04 	stb  %g3, [ %o0 + 4 ]
   13e5c:	02 80 00 06 	be  13e74 <__GI_memset+0x198>
   13e60:	92 a2 60 01 	deccc  %o1
   13e64:	c6 2a 20 05 	stb  %g3, [ %o0 + 5 ]
   13e68:	02 80 00 03 	be  13e74 <__GI_memset+0x198>
   13e6c:	92 a2 60 01 	deccc  %o1
   13e70:	c6 2a 20 06 	stb  %g3, [ %o0 + 6 ]
   13e74:	81 c3 e0 08 	retl 
   13e78:	01 00 00 00 	nop 
   13e7c:	d8 0a 00 00 	ldub  [ %o0 ], %o4
   13e80:	90 02 20 01 	inc  %o0
   13e84:	da 0a 40 00 	ldub  [ %o1 ], %o5
   13e88:	80 a3 20 00 	cmp  %o4, 0
   13e8c:	92 02 60 01 	inc  %o1
   13e90:	02 80 00 1e 	be  13f08 <__GI_memset+0x22c>
   13e94:	98 a3 00 0d 	subcc  %o4, %o5, %o4
   13e98:	12 80 00 1c 	bne  13f08 <__GI_memset+0x22c>
   13e9c:	80 8a 20 03 	btst  3, %o0
   13ea0:	02 80 00 20 	be  13f20 <__GI_strcmp+0x10>
   13ea4:	96 10 60 80 	or  %g1, 0x80, %o3
   13ea8:	d8 0a 00 00 	ldub  [ %o0 ], %o4
   13eac:	90 02 20 01 	inc  %o0
   13eb0:	da 0a 40 00 	ldub  [ %o1 ], %o5
   13eb4:	80 a3 20 00 	cmp  %o4, 0
   13eb8:	92 02 60 01 	inc  %o1
   13ebc:	02 80 00 13 	be  13f08 <__GI_memset+0x22c>
   13ec0:	98 a3 00 0d 	subcc  %o4, %o5, %o4
   13ec4:	12 80 00 11 	bne  13f08 <__GI_memset+0x22c>
   13ec8:	80 8a 20 03 	btst  3, %o0
   13ecc:	02 80 00 16 	be  13f24 <__GI_strcmp+0x14>
   13ed0:	03 00 40 40 	sethi  %hi(0x1010000), %g1
   13ed4:	d8 0a 00 00 	ldub  [ %o0 ], %o4
   13ed8:	90 02 20 01 	inc  %o0
   13edc:	da 0a 40 00 	ldub  [ %o1 ], %o5
   13ee0:	80 a3 20 00 	cmp  %o4, 0
   13ee4:	92 02 60 01 	inc  %o1
   13ee8:	02 80 00 08 	be  13f08 <__GI_memset+0x22c>
   13eec:	98 a3 00 0d 	subcc  %o4, %o5, %o4
   13ef0:	12 80 00 06 	bne  13f08 <__GI_memset+0x22c>
   13ef4:	84 8a 60 03 	andcc  %o1, 3, %g2
   13ef8:	12 80 00 3c 	bne  13fe8 <__GI_strcmp+0xd8>
   13efc:	94 10 61 01 	or  %g1, 0x101, %o2
   13f00:	10 80 00 0d 	b  13f34 <__GI_strcmp+0x24>
   13f04:	d8 02 00 00 	ld  [ %o0 ], %o4
   13f08:	81 c3 e0 08 	retl 
   13f0c:	90 10 00 0c 	mov  %o4, %o0

00013f10 <__GI_strcmp>:
   13f10:	80 8a 20 03 	btst  3, %o0
   13f14:	12 bf ff da 	bne  13e7c <__GI_memset+0x1a0>
   13f18:	03 20 20 20 	sethi  %hi(0x80808000), %g1
   13f1c:	96 10 60 80 	or  %g1, 0x80, %o3	! 80808080 <_end+0x807c48e0>
   13f20:	03 00 40 40 	sethi  %hi(0x1010000), %g1
   13f24:	84 8a 60 03 	andcc  %o1, 3, %g2
   13f28:	12 80 00 30 	bne  13fe8 <__GI_strcmp+0xd8>
   13f2c:	94 10 61 01 	or  %g1, 0x101, %o2
   13f30:	d8 02 00 00 	ld  [ %o0 ], %o4
   13f34:	da 02 40 00 	ld  [ %o1 ], %o5
   13f38:	82 23 00 0a 	sub  %o4, %o2, %g1
   13f3c:	90 02 20 04 	add  %o0, 4, %o0
   13f40:	80 a3 00 0d 	cmp  %o4, %o5
   13f44:	12 80 00 12 	bne  13f8c <__GI_strcmp+0x7c>
   13f48:	80 88 40 0b 	btst  %g1, %o3
   13f4c:	02 bf ff f9 	be  13f30 <__GI_strcmp+0x20>
   13f50:	92 02 60 04 	add  %o1, 4, %o1
   13f54:	89 33 20 18 	srl  %o4, 0x18, %g4
   13f58:	80 89 20 ff 	btst  0xff, %g4
   13f5c:	02 80 00 0a 	be  13f84 <__GI_strcmp+0x74>
   13f60:	89 33 20 10 	srl  %o4, 0x10, %g4
   13f64:	80 89 20 ff 	btst  0xff, %g4
   13f68:	02 80 00 07 	be  13f84 <__GI_strcmp+0x74>
   13f6c:	89 33 20 08 	srl  %o4, 8, %g4
   13f70:	80 89 20 ff 	btst  0xff, %g4
   13f74:	02 80 00 04 	be  13f84 <__GI_strcmp+0x74>
   13f78:	80 8b 20 ff 	btst  0xff, %o4
   13f7c:	32 bf ff ee 	bne,a   13f34 <__GI_strcmp+0x24>
   13f80:	d8 02 00 00 	ld  [ %o0 ], %o4
   13f84:	81 c3 e0 08 	retl 
   13f88:	90 10 00 00 	mov  %g0, %o0
   13f8c:	89 33 20 18 	srl  %o4, 0x18, %g4
   13f90:	8b 33 60 18 	srl  %o5, 0x18, %g5
   13f94:	80 89 20 ff 	btst  0xff, %g4
   13f98:	02 80 00 12 	be  13fe0 <__GI_strcmp+0xd0>
   13f9c:	88 a1 00 05 	subcc  %g4, %g5, %g4
   13fa0:	12 80 00 10 	bne  13fe0 <__GI_strcmp+0xd0>
   13fa4:	8b 33 60 10 	srl  %o5, 0x10, %g5
   13fa8:	89 33 20 10 	srl  %o4, 0x10, %g4
   13fac:	80 89 20 ff 	btst  0xff, %g4
   13fb0:	02 80 00 0c 	be  13fe0 <__GI_strcmp+0xd0>
   13fb4:	88 a1 00 05 	subcc  %g4, %g5, %g4
   13fb8:	12 80 00 0a 	bne  13fe0 <__GI_strcmp+0xd0>
   13fbc:	8b 33 60 08 	srl  %o5, 8, %g5
   13fc0:	89 33 20 08 	srl  %o4, 8, %g4
   13fc4:	80 89 20 ff 	btst  0xff, %g4
   13fc8:	02 80 00 06 	be  13fe0 <__GI_strcmp+0xd0>
   13fcc:	88 a1 00 05 	subcc  %g4, %g5, %g4
   13fd0:	12 80 00 04 	bne  13fe0 <__GI_strcmp+0xd0>
   13fd4:	98 a3 00 0d 	subcc  %o4, %o5, %o4
   13fd8:	81 c3 e0 08 	retl 
   13fdc:	90 10 00 0c 	mov  %o4, %o0
   13fe0:	81 c3 e0 08 	retl 
   13fe4:	90 10 00 04 	mov  %g4, %o0
   13fe8:	9d e3 bf c0 	save  %sp, -64, %sp
   13fec:	f8 06 00 00 	ld  [ %i0 ], %i4
   13ff0:	87 28 a0 03 	sll  %g2, 3, %g3
   13ff4:	b2 2e 60 03 	andn  %i1, 3, %i1
   13ff8:	a2 10 20 20 	mov  0x20, %l1
   13ffc:	e4 06 40 00 	ld  [ %i1 ], %l2
   14000:	8c 10 3f ff 	mov  -1, %g6
   14004:	b2 06 60 04 	add  %i1, 4, %i1
   14008:	a2 24 40 03 	sub  %l1, %g3, %l1
   1400c:	8d 29 80 03 	sll  %g6, %g3, %g6
   14010:	8b 2c 80 03 	sll  %l2, %g3, %g5
   14014:	a6 0f 00 06 	and  %i4, %g6, %l3
   14018:	82 27 00 1a 	sub  %i4, %i2, %g1
   1401c:	82 88 40 1b 	andcc  %g1, %i3, %g1
   14020:	12 80 00 14 	bne  14070 <__GI_strcmp+0x160>
   14024:	80 a1 40 13 	cmp  %g5, %l3
   14028:	12 80 00 0c 	bne  14058 <__GI_strcmp+0x148>
   1402c:	b0 06 20 04 	add  %i0, 4, %i0
   14030:	e4 06 40 00 	ld  [ %i1 ], %l2
   14034:	b2 06 60 04 	add  %i1, 4, %i1
   14038:	a9 34 80 11 	srl  %l2, %l1, %l4
   1403c:	a8 15 00 05 	or  %l4, %g5, %l4
   14040:	80 a5 00 1c 	cmp  %l4, %i4
   14044:	22 bf ff f3 	be,a   14010 <__GI_strcmp+0x100>
   14048:	f8 06 00 00 	ld  [ %i0 ], %i4
   1404c:	97 ed 00 00 	restore  %l4, %g0, %o3
   14050:	81 c3 e0 08 	retl 
   14054:	90 23 00 0b 	sub  %o4, %o3, %o0
   14058:	b5 2c 80 03 	sll  %l2, %g3, %i2
   1405c:	b7 37 00 03 	srl  %i4, %g3, %i3
   14060:	b5 36 80 03 	srl  %i2, %g3, %i2
   14064:	81 e8 00 00 	restore 
   14068:	81 c3 e0 08 	retl 
   1406c:	90 22 c0 0a 	sub  %o3, %o2, %o0
   14070:	89 37 20 18 	srl  %i4, 0x18, %g4
   14074:	ad 31 60 18 	srl  %g5, 0x18, %l6
   14078:	80 89 20 ff 	btst  0xff, %g4
   1407c:	02 80 00 1c 	be  140ec <__GI_strcmp+0x1dc>
   14080:	88 a1 00 16 	subcc  %g4, %l6, %g4
   14084:	12 80 00 1a 	bne  140ec <__GI_strcmp+0x1dc>
   14088:	80 a0 a0 03 	cmp  %g2, 3
   1408c:	02 80 00 2b 	be  14138 <__GI_strcmp+0x228>
   14090:	89 37 20 10 	srl  %i4, 0x10, %g4
   14094:	ad 31 60 10 	srl  %g5, 0x10, %l6
   14098:	80 89 20 ff 	btst  0xff, %g4
   1409c:	02 80 00 14 	be  140ec <__GI_strcmp+0x1dc>
   140a0:	88 a1 00 16 	subcc  %g4, %l6, %g4
   140a4:	12 80 00 12 	bne  140ec <__GI_strcmp+0x1dc>
   140a8:	80 a0 a0 02 	cmp  %g2, 2
   140ac:	02 80 00 12 	be  140f4 <__GI_strcmp+0x1e4>
   140b0:	89 37 20 08 	srl  %i4, 8, %g4
   140b4:	ad 31 60 08 	srl  %g5, 8, %l6
   140b8:	80 89 20 ff 	btst  0xff, %g4
   140bc:	02 80 00 0c 	be  140ec <__GI_strcmp+0x1dc>
   140c0:	88 a1 00 16 	subcc  %g4, %l6, %g4
   140c4:	12 80 00 0a 	bne  140ec <__GI_strcmp+0x1dc>
   140c8:	b0 06 20 04 	add  %i0, 4, %i0
   140cc:	e4 06 40 00 	ld  [ %i1 ], %l2
   140d0:	b2 06 60 04 	add  %i1, 4, %i1
   140d4:	8b 34 a0 18 	srl  %l2, 0x18, %g5
   140d8:	88 8f 20 ff 	andcc  %i4, 0xff, %g4
   140dc:	02 80 00 04 	be  140ec <__GI_strcmp+0x1dc>
   140e0:	88 a1 00 05 	subcc  %g4, %g5, %g4
   140e4:	22 bf ff cb 	be,a   14010 <__GI_strcmp+0x100>
   140e8:	f8 06 00 00 	ld  [ %i0 ], %i4
   140ec:	81 c7 e0 08 	ret 
   140f0:	91 e9 00 00 	restore  %g4, %g0, %o0
   140f4:	e4 06 40 00 	ld  [ %i1 ], %l2
   140f8:	b2 06 60 04 	add  %i1, 4, %i1
   140fc:	b0 06 20 04 	add  %i0, 4, %i0
   14100:	ad 34 a0 18 	srl  %l2, 0x18, %l6
   14104:	88 89 20 ff 	andcc  %g4, 0xff, %g4
   14108:	02 bf ff f9 	be  140ec <__GI_strcmp+0x1dc>
   1410c:	88 a1 00 16 	subcc  %g4, %l6, %g4
   14110:	12 bf ff f7 	bne  140ec <__GI_strcmp+0x1dc>
   14114:	ad 34 a0 10 	srl  %l2, 0x10, %l6
   14118:	88 8f 20 ff 	andcc  %i4, 0xff, %g4
   1411c:	ac 0d a0 ff 	and  %l6, 0xff, %l6
   14120:	02 bf ff f3 	be  140ec <__GI_strcmp+0x1dc>
   14124:	88 a1 00 16 	subcc  %g4, %l6, %g4
   14128:	22 bf ff ba 	be,a   14010 <__GI_strcmp+0x100>
   1412c:	f8 06 00 00 	ld  [ %i0 ], %i4
   14130:	81 c7 e0 08 	ret 
   14134:	91 e9 00 00 	restore  %g4, %g0, %o0
   14138:	e4 06 40 00 	ld  [ %i1 ], %l2
   1413c:	b2 06 60 04 	add  %i1, 4, %i1
   14140:	b0 06 20 04 	add  %i0, 4, %i0
   14144:	ad 34 a0 18 	srl  %l2, 0x18, %l6
   14148:	88 89 20 ff 	andcc  %g4, 0xff, %g4
   1414c:	02 bf ff e8 	be  140ec <__GI_strcmp+0x1dc>
   14150:	88 a1 00 16 	subcc  %g4, %l6, %g4
   14154:	12 bf ff e6 	bne  140ec <__GI_strcmp+0x1dc>
   14158:	ad 34 a0 10 	srl  %l2, 0x10, %l6
   1415c:	89 37 20 08 	srl  %i4, 8, %g4
   14160:	ac 0d a0 ff 	and  %l6, 0xff, %l6
   14164:	88 89 20 ff 	andcc  %g4, 0xff, %g4
   14168:	02 bf ff e1 	be  140ec <__GI_strcmp+0x1dc>
   1416c:	88 a1 00 16 	subcc  %g4, %l6, %g4
   14170:	12 bf ff df 	bne  140ec <__GI_strcmp+0x1dc>
   14174:	ad 34 a0 08 	srl  %l2, 8, %l6
   14178:	88 8f 20 ff 	andcc  %i4, 0xff, %g4
   1417c:	ac 0d a0 ff 	and  %l6, 0xff, %l6
   14180:	02 bf ff db 	be  140ec <__GI_strcmp+0x1dc>
   14184:	88 a1 00 16 	subcc  %g4, %l6, %g4
   14188:	22 bf ff a2 	be,a   14010 <__GI_strcmp+0x100>
   1418c:	f8 06 00 00 	ld  [ %i0 ], %i4
   14190:	81 c7 e0 08 	ret 
   14194:	91 e9 00 00 	restore  %g4, %g0, %o0
   14198:	da 0a 00 00 	ldub  [ %o0 ], %o5
   1419c:	80 a3 60 00 	cmp  %o5, 0
   141a0:	02 80 00 12 	be  141e8 <__GI_strcmp+0x2d8>
   141a4:	90 02 20 01 	inc  %o0
   141a8:	80 8a 20 03 	btst  3, %o0
   141ac:	02 80 00 1a 	be  14214 <__GI_strlen+0x14>
   141b0:	96 13 20 80 	or  %o4, 0x80, %o3
   141b4:	da 0a 00 00 	ldub  [ %o0 ], %o5
   141b8:	80 a3 60 00 	cmp  %o5, 0
   141bc:	02 80 00 0d 	be  141f0 <__GI_strcmp+0x2e0>
   141c0:	90 02 20 01 	inc  %o0
   141c4:	80 8a 20 03 	btst  3, %o0
   141c8:	02 80 00 14 	be  14218 <__GI_strlen+0x18>
   141cc:	19 00 40 40 	sethi  %hi(0x1010000), %o4
   141d0:	da 0a 00 00 	ldub  [ %o0 ], %o5
   141d4:	80 a3 60 00 	cmp  %o5, 0
   141d8:	02 80 00 08 	be  141f8 <__GI_strcmp+0x2e8>
   141dc:	90 02 20 01 	inc  %o0
   141e0:	10 80 00 0f 	b  1421c <__GI_strlen+0x1c>
   141e4:	94 13 21 01 	or  %o4, 0x101, %o2
   141e8:	81 c3 e0 08 	retl 
   141ec:	90 10 20 00 	clr  %o0
   141f0:	81 c3 e0 08 	retl 
   141f4:	90 10 20 01 	mov  1, %o0
   141f8:	81 c3 e0 08 	retl 
   141fc:	90 10 20 02 	mov  2, %o0

00014200 <__GI_strlen>:
   14200:	92 10 00 08 	mov  %o0, %o1
   14204:	80 8a 20 03 	btst  3, %o0
   14208:	12 bf ff e4 	bne  14198 <__GI_strcmp+0x288>
   1420c:	19 20 20 20 	sethi  %hi(0x80808000), %o4
   14210:	96 13 20 80 	or  %o4, 0x80, %o3	! 80808080 <_end+0x807c48e0>
   14214:	19 00 40 40 	sethi  %hi(0x1010000), %o4
   14218:	94 13 21 01 	or  %o4, 0x101, %o2	! 1010101 <_end+0xfcc961>
   1421c:	da 02 00 00 	ld  [ %o0 ], %o5
   14220:	98 23 40 0a 	sub  %o5, %o2, %o4
   14224:	80 8b 00 0b 	btst  %o4, %o3
   14228:	02 bf ff fd 	be  1421c <__GI_strlen+0x1c>
   1422c:	90 02 20 04 	add  %o0, 4, %o0
   14230:	8b 33 60 18 	srl  %o5, 0x18, %g5
   14234:	80 89 60 ff 	btst  0xff, %g5
   14238:	02 80 00 0e 	be  14270 <__GI_strlen+0x70>
   1423c:	98 02 3f fc 	add  %o0, -4, %o4
   14240:	8b 33 60 10 	srl  %o5, 0x10, %g5
   14244:	80 89 60 ff 	btst  0xff, %g5
   14248:	02 80 00 0a 	be  14270 <__GI_strlen+0x70>
   1424c:	98 03 20 01 	inc  %o4
   14250:	8b 33 60 08 	srl  %o5, 8, %g5
   14254:	80 89 60 ff 	btst  0xff, %g5
   14258:	02 80 00 06 	be  14270 <__GI_strlen+0x70>
   1425c:	98 03 20 01 	inc  %o4
   14260:	80 8b 60 ff 	btst  0xff, %o5
   14264:	32 bf ff ef 	bne,a   14220 <__GI_strlen+0x20>
   14268:	da 02 00 00 	ld  [ %o0 ], %o5
   1426c:	98 03 20 01 	inc  %o4
   14270:	81 c3 e0 08 	retl 
   14274:	90 23 00 09 	sub  %o4, %o1, %o0

00014278 <__GI_strnlen>:
   14278:	9d e3 bf a0 	save  %sp, -96, %sp
   1427c:	80 a6 60 00 	cmp  %i1, 0
   14280:	02 80 00 28 	be  14320 <__GI_strnlen+0xa8>
   14284:	01 00 00 00 	nop 
   14288:	b2 06 00 19 	add  %i0, %i1, %i1
   1428c:	80 a6 00 19 	cmp  %i0, %i1
   14290:	38 80 00 02 	bgu,a   14298 <__GI_strnlen+0x20>
   14294:	b2 10 3f ff 	mov  -1, %i1
   14298:	82 10 00 18 	mov  %i0, %g1
   1429c:	80 88 60 03 	btst  3, %g1
   142a0:	32 80 00 19 	bne,a   14304 <__GI_strnlen+0x8c>
   142a4:	c4 08 40 00 	ldub  [ %g1 ], %g2
   142a8:	09 3f bf bf 	sethi  %hi(0xfefefc00), %g4
   142ac:	3b 20 20 20 	sethi  %hi(0x80808000), %i5
   142b0:	84 10 00 01 	mov  %g1, %g2
   142b4:	88 11 22 ff 	or  %g4, 0x2ff, %g4
   142b8:	ba 17 60 80 	or  %i5, 0x80, %i5
   142bc:	80 a0 80 19 	cmp  %g2, %i1
   142c0:	1a 80 00 14 	bcc  14310 <__GI_strnlen+0x98>
   142c4:	86 00 a0 04 	add  %g2, 4, %g3
   142c8:	c2 00 ff fc 	ld  [ %g3 + -4 ], %g1
   142cc:	82 00 40 04 	add  %g1, %g4, %g1
   142d0:	80 88 40 1d 	btst  %g1, %i5
   142d4:	02 80 00 1f 	be  14350 <__GI_strnlen+0xd8>
   142d8:	82 10 00 19 	mov  %i1, %g1
   142dc:	c2 08 ff fc 	ldub  [ %g3 + -4 ], %g1
   142e0:	80 a0 60 00 	cmp  %g1, 0
   142e4:	02 80 00 0b 	be  14310 <__GI_strnlen+0x98>
   142e8:	82 10 00 02 	mov  %g2, %g1
   142ec:	c2 08 ff fd 	ldub  [ %g3 + -3 ], %g1
   142f0:	80 a0 60 00 	cmp  %g1, 0
   142f4:	32 80 00 0d 	bne,a   14328 <__GI_strnlen+0xb0>
   142f8:	c2 08 ff fe 	ldub  [ %g3 + -2 ], %g1
   142fc:	10 80 00 05 	b  14310 <__GI_strnlen+0x98>
   14300:	82 00 a0 01 	add  %g2, 1, %g1
   14304:	80 a0 a0 00 	cmp  %g2, 0
   14308:	32 bf ff e5 	bne,a   1429c <__GI_strnlen+0x24>
   1430c:	82 00 60 01 	inc  %g1
   14310:	80 a0 40 19 	cmp  %g1, %i1
   14314:	2a 80 00 02 	bcs,a   1431c <__GI_strnlen+0xa4>
   14318:	b2 10 00 01 	mov  %g1, %i1
   1431c:	b2 26 40 18 	sub  %i1, %i0, %i1
   14320:	81 c7 e0 08 	ret 
   14324:	91 e8 00 19 	restore  %g0, %i1, %o0
   14328:	80 a0 60 00 	cmp  %g1, 0
   1432c:	32 80 00 04 	bne,a   1433c <__GI_strnlen+0xc4>
   14330:	c2 08 ff ff 	ldub  [ %g3 + -1 ], %g1
   14334:	10 bf ff f7 	b  14310 <__GI_strnlen+0x98>
   14338:	82 00 a0 02 	add  %g2, 2, %g1
   1433c:	80 a0 60 00 	cmp  %g1, 0
   14340:	32 80 00 04 	bne,a   14350 <__GI_strnlen+0xd8>
   14344:	82 10 00 19 	mov  %i1, %g1
   14348:	10 bf ff f2 	b  14310 <__GI_strnlen+0x98>
   1434c:	82 00 a0 03 	add  %g2, 3, %g1
   14350:	10 bf ff db 	b  142bc <__GI_strnlen+0x44>
   14354:	84 10 00 03 	mov  %g3, %g2

00014358 <__GI___glibc_strerror_r>:
   14358:	9d e3 bf a0 	save  %sp, -96, %sp
   1435c:	94 10 00 1a 	mov  %i2, %o2
   14360:	92 10 00 19 	mov  %i1, %o1
   14364:	90 10 00 18 	mov  %i0, %o0
   14368:	40 00 00 04 	call  14378 <__GI___xpg_strerror_r>
   1436c:	b0 10 00 19 	mov  %i1, %i0
   14370:	81 c7 e0 08 	ret 
   14374:	81 e8 00 00 	restore 

00014378 <__GI___xpg_strerror_r>:
   14378:	9d e3 bf 68 	save  %sp, -152, %sp
   1437c:	2f 00 00 ae 	sethi  %hi(0x2b800), %l7
   14380:	7f ff f1 29 	call  10824 <__sparc_get_pc_thunk.l7>
   14384:	ae 05 e3 4c 	add  %l7, 0x34c, %l7	! 2bb4c <__FRAME_END__+0x3454>
   14388:	ba 10 20 00 	clr  %i5
   1438c:	03 00 00 81 	sethi  %hi(0x20400), %g1
   14390:	82 18 7f ac 	xor  %g1, -84, %g1
   14394:	82 05 c0 01 	add  %l7, %g1, %g1
   14398:	c2 08 40 1d 	ldub  [ %g1 + %i5 ], %g1
   1439c:	80 a0 40 18 	cmp  %g1, %i0
   143a0:	02 80 00 31 	be  14464 <__GI___xpg_strerror_r+0xec>
   143a4:	39 00 00 80 	sethi  %hi(0x20000), %i4
   143a8:	ba 07 60 01 	inc  %i5
   143ac:	80 a7 60 7e 	cmp  %i5, 0x7e
   143b0:	12 bf ff f8 	bne  14390 <__GI___xpg_strerror_r+0x18>
   143b4:	03 00 00 81 	sethi  %hi(0x20400), %g1
   143b8:	98 10 20 00 	clr  %o4
   143bc:	96 10 3f f6 	mov  -10, %o3
   143c0:	93 3e 20 1f 	sra  %i0, 0x1f, %o1
   143c4:	94 10 00 18 	mov  %i0, %o2
   143c8:	40 00 19 ce 	call  1ab00 <_uintmaxtostr>
   143cc:	90 07 bf f9 	add  %fp, -7, %o0
   143d0:	94 10 20 0e 	mov  0xe, %o2
   143d4:	b8 02 3f f2 	add  %o0, -14, %i4
   143d8:	13 00 00 82 	sethi  %hi(0x20800), %o1
   143dc:	90 10 00 1c 	mov  %i4, %o0
   143e0:	92 1a 7f 8c 	xor  %o1, -116, %o1
   143e4:	ba 10 20 16 	mov  0x16, %i5
   143e8:	7f ff fa 13 	call  12c34 <__GI_memcpy>
   143ec:	92 05 c0 09 	add  %l7, %o1, %o1
   143f0:	10 80 00 0d 	b  14424 <__GI___xpg_strerror_r+0xac>
   143f4:	80 a6 60 00 	cmp  %i1, 0
   143f8:	80 a0 60 00 	cmp  %g1, 0
   143fc:	22 80 00 02 	be,a   14404 <__GI___xpg_strerror_r+0x8c>
   14400:	ba 07 7f ff 	add  %i5, -1, %i5
   14404:	b8 07 20 01 	inc  %i4
   14408:	80 a7 60 00 	cmp  %i5, 0
   1440c:	12 bf ff fb 	bne  143f8 <__GI___xpg_strerror_r+0x80>
   14410:	c2 0f 00 00 	ldub  [ %i4 ], %g1
   14414:	80 a0 60 00 	cmp  %g1, 0
   14418:	02 bf ff e9 	be  143bc <__GI___xpg_strerror_r+0x44>
   1441c:	98 10 20 00 	clr  %o4
   14420:	80 a6 60 00 	cmp  %i1, 0
   14424:	22 80 00 02 	be,a   1442c <__GI___xpg_strerror_r+0xb4>
   14428:	b4 10 20 00 	clr  %i2
   1442c:	7f ff ff 75 	call  14200 <__GI_strlen>
   14430:	90 10 00 1c 	mov  %i4, %o0
   14434:	94 02 20 01 	add  %o0, 1, %o2
   14438:	80 a2 80 1a 	cmp  %o2, %i2
   1443c:	28 80 00 0d 	bleu,a   14470 <__GI___xpg_strerror_r+0xf8>
   14440:	b4 92 a0 00 	orcc  %o2, 0, %i2
   14444:	80 a6 a0 00 	cmp  %i2, 0
   14448:	12 80 00 0c 	bne  14478 <__GI___xpg_strerror_r+0x100>
   1444c:	ba 10 20 22 	mov  0x22, %i5
   14450:	03 00 00 00 	sethi  %hi(0), %g1
   14454:	82 18 7f f8 	xor  %g1, -8, %g1
   14458:	ae 10 00 01 	mov  %g1, %l7
   1445c:	10 80 00 10 	b  1449c <__GI___xpg_strerror_r+0x124>
   14460:	fa 21 c0 17 	st  %i5, [ %g7 + %l7 ]
   14464:	b8 1f 3c fc 	xor  %i4, -772, %i4
   14468:	10 bf ff e8 	b  14408 <__GI___xpg_strerror_r+0x90>
   1446c:	b8 05 c0 1c 	add  %l7, %i4, %i4
   14470:	02 80 00 09 	be  14494 <__GI___xpg_strerror_r+0x11c>
   14474:	80 a7 60 00 	cmp  %i5, 0
   14478:	90 10 00 19 	mov  %i1, %o0
   1447c:	94 10 00 1a 	mov  %i2, %o2
   14480:	92 10 00 1c 	mov  %i4, %o1
   14484:	7f ff f9 ec 	call  12c34 <__GI_memcpy>
   14488:	b2 06 40 1a 	add  %i1, %i2, %i1
   1448c:	c0 2e 7f ff 	clrb  [ %i1 + -1 ]
   14490:	80 a7 60 00 	cmp  %i5, 0
   14494:	12 bf ff f0 	bne  14454 <__GI___xpg_strerror_r+0xdc>
   14498:	03 00 00 00 	sethi  %hi(0), %g1
   1449c:	81 c7 e0 08 	ret 
   144a0:	91 e8 00 1d 	restore  %g0, %i5, %o0

000144a4 <__malloc_trim.constprop.0>:
   144a4:	9d e3 bf a0 	save  %sp, -96, %sp
   144a8:	03 00 00 0a 	sethi  %hi(0x2800), %g1
   144ac:	82 18 60 00 	xor  %g1, 0, %g1
   144b0:	2f 00 00 ae 	sethi  %hi(0x2b800), %l7
   144b4:	7f ff f0 dc 	call  10824 <__sparc_get_pc_thunk.l7>
   144b8:	ae 05 e2 18 	add  %l7, 0x218, %l7	! 2ba18 <__FRAME_END__+0x3320>
   144bc:	ae 05 c0 01 	add  %l7, %g1, %l7
   144c0:	c2 05 e0 2c 	ld  [ %l7 + 0x2c ], %g1
   144c4:	c4 05 e3 5c 	ld  [ %l7 + 0x35c ], %g2
   144c8:	fa 00 60 04 	ld  [ %g1 + 4 ], %i5
   144cc:	82 00 bf ef 	add  %g2, -17, %g1
   144d0:	ba 0f 7f fc 	and  %i5, -4, %i5
   144d4:	82 00 40 1d 	add  %g1, %i5, %g1
   144d8:	b0 20 40 18 	sub  %g1, %i0, %i0
   144dc:	81 80 20 00 	wr  %g0, %y
   144e0:	01 00 00 00 	nop 
   144e4:	01 00 00 00 	nop 
   144e8:	01 00 00 00 	nop 
   144ec:	b0 76 00 02 	udiv  %i0, %g2, %i0
   144f0:	b0 06 3f ff 	add  %i0, -1, %i0
   144f4:	b0 de 00 02 	smulcc  %i0, %g2, %i0
   144f8:	14 80 00 04 	bg  14508 <__malloc_trim.constprop.0+0x64>
   144fc:	01 00 00 00 	nop 
   14500:	81 c7 e0 08 	ret 
   14504:	91 e8 20 00 	restore  %g0, 0, %o0
   14508:	40 00 16 54 	call  19e58 <__GI_sbrk>
   1450c:	90 10 20 00 	clr  %o0
   14510:	c2 05 e0 2c 	ld  [ %l7 + 0x2c ], %g1
   14514:	82 00 40 1d 	add  %g1, %i5, %g1
   14518:	80 a2 00 01 	cmp  %o0, %g1
   1451c:	12 bf ff f9 	bne  14500 <__malloc_trim.constprop.0+0x5c>
   14520:	b8 10 00 08 	mov  %o0, %i4
   14524:	40 00 16 4d 	call  19e58 <__GI_sbrk>
   14528:	90 20 00 18 	neg  %i0, %o0
   1452c:	40 00 16 4b 	call  19e58 <__GI_sbrk>
   14530:	90 10 20 00 	clr  %o0
   14534:	80 a2 3f ff 	cmp  %o0, -1
   14538:	02 bf ff f2 	be  14500 <__malloc_trim.constprop.0+0x5c>
   1453c:	b8 a7 00 08 	subcc  %i4, %o0, %i4
   14540:	02 bf ff f0 	be  14500 <__malloc_trim.constprop.0+0x5c>
   14544:	ba 27 40 1c 	sub  %i5, %i4, %i5
   14548:	c2 05 e3 68 	ld  [ %l7 + 0x368 ], %g1
   1454c:	82 20 40 1c 	sub  %g1, %i4, %g1
   14550:	c2 25 e3 68 	st  %g1, [ %l7 + 0x368 ]
   14554:	c2 05 e0 2c 	ld  [ %l7 + 0x2c ], %g1
   14558:	ba 17 60 01 	or  %i5, 1, %i5
   1455c:	fa 20 60 04 	st  %i5, [ %g1 + 4 ]
   14560:	81 c7 e0 08 	ret 
   14564:	91 e8 20 01 	restore  %g0, 1, %o0

00014568 <__malloc_consolidate>:
   14568:	9d e3 bf a0 	save  %sp, -96, %sp
   1456c:	c2 06 00 00 	ld  [ %i0 ], %g1
   14570:	80 a0 60 00 	cmp  %g1, 0
   14574:	02 80 00 56 	be  146cc <__malloc_consolidate+0x164>
   14578:	b4 06 20 34 	add  %i0, 0x34, %i2
   1457c:	82 08 7f fd 	and  %g1, -3, %g1
   14580:	b8 10 00 18 	mov  %i0, %i4
   14584:	87 30 60 03 	srl  %g1, 3, %g3
   14588:	c2 26 00 00 	st  %g1, [ %i0 ]
   1458c:	86 00 ff ff 	add  %g3, -1, %g3
   14590:	87 28 e0 02 	sll  %g3, 2, %g3
   14594:	86 06 00 03 	add  %i0, %g3, %g3
   14598:	c2 07 20 04 	ld  [ %i4 + 4 ], %g1
   1459c:	80 a0 60 00 	cmp  %g1, 0
   145a0:	32 80 00 08 	bne,a   145c0 <__malloc_consolidate+0x58>
   145a4:	c0 27 20 04 	clr  [ %i4 + 4 ]
   145a8:	b8 07 20 04 	add  %i4, 4, %i4
   145ac:	80 a0 c0 1c 	cmp  %g3, %i4
   145b0:	32 bf ff fb 	bne,a   1459c <__malloc_consolidate+0x34>
   145b4:	c2 07 20 04 	ld  [ %i4 + 4 ], %g1
   145b8:	81 c7 e0 08 	ret 
   145bc:	81 e8 00 00 	restore 
   145c0:	80 88 60 07 	btst  7, %g1
   145c4:	22 80 00 04 	be,a   145d4 <__malloc_consolidate+0x6c>
   145c8:	f2 00 60 04 	ld  [ %g1 + 4 ], %i1
   145cc:	40 00 03 3e 	call  152c4 <__GI_abort>
   145d0:	01 00 00 00 	nop 
   145d4:	b6 00 60 08 	add  %g1, 8, %i3
   145d8:	da 00 60 08 	ld  [ %g1 + 8 ], %o5
   145dc:	b7 36 e0 0c 	srl  %i3, 0xc, %i3
   145e0:	84 0e 7f fe 	and  %i1, -2, %g2
   145e4:	98 1e c0 0d 	xor  %i3, %o5, %o4
   145e8:	88 00 40 02 	add  %g1, %g2, %g4
   145ec:	80 8e 60 01 	btst  1, %i1
   145f0:	fa 01 20 04 	ld  [ %g4 + 4 ], %i5
   145f4:	12 80 00 10 	bne  14634 <__malloc_consolidate+0xcc>
   145f8:	ba 0f 7f fc 	and  %i5, -4, %i5
   145fc:	f2 00 40 00 	ld  [ %g1 ], %i1
   14600:	82 20 40 19 	sub  %g1, %i1, %g1
   14604:	84 00 80 19 	add  %g2, %i1, %g2
   14608:	de 00 60 08 	ld  [ %g1 + 8 ], %o7
   1460c:	d6 03 e0 0c 	ld  [ %o7 + 0xc ], %o3
   14610:	80 a2 c0 01 	cmp  %o3, %g1
   14614:	12 bf ff ee 	bne  145cc <__malloc_consolidate+0x64>
   14618:	f2 00 60 0c 	ld  [ %g1 + 0xc ], %i1
   1461c:	d6 06 60 08 	ld  [ %i1 + 8 ], %o3
   14620:	80 a2 c0 01 	cmp  %o3, %g1
   14624:	12 bf ff ea 	bne  145cc <__malloc_consolidate+0x64>
   14628:	01 00 00 00 	nop 
   1462c:	f2 23 e0 0c 	st  %i1, [ %o7 + 0xc ]
   14630:	de 26 60 08 	st  %o7, [ %i1 + 8 ]
   14634:	f2 06 20 2c 	ld  [ %i0 + 0x2c ], %i1
   14638:	80 a6 40 04 	cmp  %i1, %g4
   1463c:	02 80 00 1f 	be  146b8 <__malloc_consolidate+0x150>
   14640:	b2 01 00 1d 	add  %g4, %i5, %i1
   14644:	f2 06 60 04 	ld  [ %i1 + 4 ], %i1
   14648:	80 8e 60 01 	btst  1, %i1
   1464c:	12 80 00 0e 	bne  14684 <__malloc_consolidate+0x11c>
   14650:	fa 21 20 04 	st  %i5, [ %g4 + 4 ]
   14654:	84 00 80 1d 	add  %g2, %i5, %g2
   14658:	f2 01 20 08 	ld  [ %g4 + 8 ], %i1
   1465c:	de 06 60 0c 	ld  [ %i1 + 0xc ], %o7
   14660:	80 a3 c0 04 	cmp  %o7, %g4
   14664:	12 bf ff da 	bne  145cc <__malloc_consolidate+0x64>
   14668:	fa 01 20 0c 	ld  [ %g4 + 0xc ], %i5
   1466c:	de 07 60 08 	ld  [ %i5 + 8 ], %o7
   14670:	80 a3 c0 04 	cmp  %o7, %g4
   14674:	12 bf ff d6 	bne  145cc <__malloc_consolidate+0x64>
   14678:	01 00 00 00 	nop 
   1467c:	fa 26 60 0c 	st  %i5, [ %i1 + 0xc ]
   14680:	f2 27 60 08 	st  %i1, [ %i5 + 8 ]
   14684:	c8 06 20 3c 	ld  [ %i0 + 0x3c ], %g4
   14688:	c2 26 20 3c 	st  %g1, [ %i0 + 0x3c ]
   1468c:	c2 21 20 0c 	st  %g1, [ %g4 + 0xc ]
   14690:	ba 10 a0 01 	or  %g2, 1, %i5
   14694:	f4 20 60 0c 	st  %i2, [ %g1 + 0xc ]
   14698:	fa 20 60 04 	st  %i5, [ %g1 + 4 ]
   1469c:	c8 20 60 08 	st  %g4, [ %g1 + 8 ]
   146a0:	c4 20 40 02 	st  %g2, [ %g1 + %g2 ]
   146a4:	80 a6 c0 0d 	cmp  %i3, %o5
   146a8:	22 bf ff c1 	be,a   145ac <__malloc_consolidate+0x44>
   146ac:	b8 07 20 04 	add  %i4, 4, %i4
   146b0:	10 bf ff c4 	b  145c0 <__malloc_consolidate+0x58>
   146b4:	82 10 00 0c 	mov  %o4, %g1
   146b8:	84 00 80 1d 	add  %g2, %i5, %g2
   146bc:	84 10 a0 01 	or  %g2, 1, %g2
   146c0:	c4 20 60 04 	st  %g2, [ %g1 + 4 ]
   146c4:	10 bf ff f8 	b  146a4 <__malloc_consolidate+0x13c>
   146c8:	c2 26 20 2c 	st  %g1, [ %i0 + 0x2c ]
   146cc:	82 10 00 1a 	mov  %i2, %g1
   146d0:	84 06 23 2c 	add  %i0, 0x32c, %g2
   146d4:	c2 20 60 0c 	st  %g1, [ %g1 + 0xc ]
   146d8:	c2 20 60 08 	st  %g1, [ %g1 + 8 ]
   146dc:	82 00 60 08 	add  %g1, 8, %g1
   146e0:	80 a0 40 02 	cmp  %g1, %g2
   146e4:	32 bf ff fd 	bne,a   146d8 <__malloc_consolidate+0x170>
   146e8:	c2 20 60 0c 	st  %g1, [ %g1 + 0xc ]
   146ec:	03 00 00 40 	sethi  %hi(0x10000), %g1
   146f0:	c2 26 23 54 	st  %g1, [ %i0 + 0x354 ]
   146f4:	03 00 01 00 	sethi  %hi(0x40000), %g1
   146f8:	c2 26 23 4c 	st  %g1, [ %i0 + 0x34c ]
   146fc:	c2 26 23 44 	st  %g1, [ %i0 + 0x344 ]
   14700:	c2 06 23 60 	ld  [ %i0 + 0x360 ], %g1
   14704:	82 10 60 01 	or  %g1, 1, %g1
   14708:	c2 26 23 60 	st  %g1, [ %i0 + 0x360 ]
   1470c:	82 10 20 48 	mov  0x48, %g1
   14710:	c0 26 23 48 	clr  [ %i0 + 0x348 ]
   14714:	c2 26 00 00 	st  %g1, [ %i0 ]
   14718:	40 00 15 be 	call  19e10 <__GI_getpagesize>
   1471c:	f4 26 20 2c 	st  %i2, [ %i0 + 0x2c ]
   14720:	d0 26 23 5c 	st  %o0, [ %i0 + 0x35c ]
   14724:	81 c7 e0 08 	ret 
   14728:	81 e8 00 00 	restore 

0001472c <malloc_trim>:
   1472c:	9d e3 bf 90 	save  %sp, -112, %sp
   14730:	15 00 00 00 	sethi  %hi(0), %o2
   14734:	94 1a a1 58 	xor  %o2, 0x158, %o2
   14738:	2f 00 00 ad 	sethi  %hi(0x2b400), %l7
   1473c:	7f ff f0 3a 	call  10824 <__sparc_get_pc_thunk.l7>
   14740:	ae 05 e3 90 	add  %l7, 0x390, %l7	! 2b790 <__FRAME_END__+0x3098>
   14744:	b8 07 bf f0 	add  %fp, -16, %i4
   14748:	ba 05 c0 0a 	add  %l7, %o2, %i5
   1474c:	90 10 00 1c 	mov  %i4, %o0
   14750:	94 10 00 1d 	mov  %i5, %o2
   14754:	13 00 00 a8 	sethi  %hi(0x2a000), %o1
   14758:	92 1a 7c bc 	xor  %o1, -836, %o1
   1475c:	40 00 05 11 	call  15ba0 <_pthread_cleanup_push_defer>
   14760:	92 05 c0 09 	add  %l7, %o1, %o1
   14764:	40 00 05 09 	call  15b88 <__pthread_mutex_lock>
   14768:	90 10 00 1d 	mov  %i5, %o0
   1476c:	11 00 00 0a 	sethi  %hi(0x2800), %o0
   14770:	90 1a 20 00 	xor  %o0, 0, %o0
   14774:	7f ff ff 7d 	call  14568 <__malloc_consolidate>
   14778:	90 05 c0 08 	add  %l7, %o0, %o0
   1477c:	7f ff ff 4a 	call  144a4 <__malloc_trim.constprop.0>
   14780:	90 10 00 18 	mov  %i0, %o0
   14784:	92 10 20 01 	mov  1, %o1
   14788:	b0 10 00 08 	mov  %o0, %i0
   1478c:	40 00 05 0a 	call  15bb4 <_pthread_cleanup_pop_restore>
   14790:	90 10 00 1c 	mov  %i4, %o0
   14794:	81 c7 e0 08 	ret 
   14798:	81 e8 00 00 	restore 

0001479c <free>:
   1479c:	9d e3 bf 90 	save  %sp, -112, %sp
   147a0:	2f 00 00 ad 	sethi  %hi(0x2b400), %l7
   147a4:	7f ff f0 20 	call  10824 <__sparc_get_pc_thunk.l7>
   147a8:	ae 05 e3 28 	add  %l7, 0x328, %l7	! 2b728 <__FRAME_END__+0x3030>
   147ac:	80 a6 20 00 	cmp  %i0, 0
   147b0:	02 80 00 24 	be  14840 <free+0xa4>
   147b4:	15 00 00 00 	sethi  %hi(0), %o2
   147b8:	94 1a a1 58 	xor  %o2, 0x158, %o2
   147bc:	b8 07 bf f0 	add  %fp, -16, %i4
   147c0:	b6 05 c0 0a 	add  %l7, %o2, %i3
   147c4:	90 10 00 1c 	mov  %i4, %o0
   147c8:	94 10 00 1b 	mov  %i3, %o2
   147cc:	13 00 00 a8 	sethi  %hi(0x2a000), %o1
   147d0:	92 1a 7c bc 	xor  %o1, -836, %o1
   147d4:	40 00 04 f3 	call  15ba0 <_pthread_cleanup_push_defer>
   147d8:	92 05 c0 09 	add  %l7, %o1, %o1
   147dc:	40 00 04 eb 	call  15b88 <__pthread_mutex_lock>
   147e0:	90 10 00 1b 	mov  %i3, %o0
   147e4:	03 00 00 0a 	sethi  %hi(0x2800), %g1
   147e8:	f6 06 3f fc 	ld  [ %i0 + -4 ], %i3
   147ec:	82 18 60 00 	xor  %g1, 0, %g1
   147f0:	92 0e ff fc 	and  %i3, -4, %o1
   147f4:	ba 05 c0 01 	add  %l7, %g1, %i5
   147f8:	c6 07 40 00 	ld  [ %i5 ], %g3
   147fc:	80 a2 40 03 	cmp  %o1, %g3
   14800:	18 80 00 12 	bgu  14848 <free+0xac>
   14804:	84 06 3f f8 	add  %i0, -8, %g2
   14808:	86 10 e0 03 	or  %g3, 3, %g3
   1480c:	c6 27 40 00 	st  %g3, [ %i5 ]
   14810:	af 32 60 03 	srl  %o1, 3, %l7
   14814:	87 36 20 0c 	srl  %i0, 0xc, %g3
   14818:	ae 05 ff fe 	add  %l7, -2, %l7
   1481c:	af 2d e0 02 	sll  %l7, 2, %l7
   14820:	ae 07 40 17 	add  %i5, %l7, %l7
   14824:	c2 05 e0 04 	ld  [ %l7 + 4 ], %g1
   14828:	82 18 40 03 	xor  %g1, %g3, %g1
   1482c:	c2 26 00 00 	st  %g1, [ %i0 ]
   14830:	c4 25 e0 04 	st  %g2, [ %l7 + 4 ]
   14834:	92 10 20 01 	mov  1, %o1
   14838:	40 00 04 df 	call  15bb4 <_pthread_cleanup_pop_restore>
   1483c:	90 10 00 1c 	mov  %i4, %o0
   14840:	81 c7 e0 08 	ret 
   14844:	81 e8 00 00 	restore 
   14848:	80 8e e0 02 	btst  2, %i3
   1484c:	12 80 00 4e 	bne  14984 <free+0x1e8>
   14850:	82 10 e0 01 	or  %g3, 1, %g1
   14854:	c2 27 40 00 	st  %g1, [ %i5 ]
   14858:	80 8e e0 01 	btst  1, %i3
   1485c:	82 00 80 09 	add  %g2, %o1, %g1
   14860:	c8 00 60 04 	ld  [ %g1 + 4 ], %g4
   14864:	12 80 00 12 	bne  148ac <free+0x110>
   14868:	88 09 3f fc 	and  %g4, -4, %g4
   1486c:	f6 06 3f f8 	ld  [ %i0 + -8 ], %i3
   14870:	84 20 80 1b 	sub  %g2, %i3, %g2
   14874:	92 02 40 1b 	add  %o1, %i3, %o1
   14878:	f4 00 a0 08 	ld  [ %g2 + 8 ], %i2
   1487c:	f2 06 a0 0c 	ld  [ %i2 + 0xc ], %i1
   14880:	80 a0 80 19 	cmp  %g2, %i1
   14884:	02 80 00 04 	be  14894 <free+0xf8>
   14888:	f6 00 a0 0c 	ld  [ %g2 + 0xc ], %i3
   1488c:	40 00 02 8e 	call  152c4 <__GI_abort>
   14890:	01 00 00 00 	nop 
   14894:	f2 06 e0 08 	ld  [ %i3 + 8 ], %i1
   14898:	80 a0 80 19 	cmp  %g2, %i1
   1489c:	12 bf ff fc 	bne  1488c <free+0xf0>
   148a0:	01 00 00 00 	nop 
   148a4:	f6 26 a0 0c 	st  %i3, [ %i2 + 0xc ]
   148a8:	f4 26 e0 08 	st  %i2, [ %i3 + 8 ]
   148ac:	f6 07 60 2c 	ld  [ %i5 + 0x2c ], %i3
   148b0:	80 a0 40 1b 	cmp  %g1, %i3
   148b4:	02 80 00 2f 	be  14970 <free+0x1d4>
   148b8:	b6 00 40 04 	add  %g1, %g4, %i3
   148bc:	f6 06 e0 04 	ld  [ %i3 + 4 ], %i3
   148c0:	80 8e e0 01 	btst  1, %i3
   148c4:	12 80 00 0d 	bne  148f8 <free+0x15c>
   148c8:	c8 20 60 04 	st  %g4, [ %g1 + 4 ]
   148cc:	f4 00 60 08 	ld  [ %g1 + 8 ], %i2
   148d0:	f2 06 a0 0c 	ld  [ %i2 + 0xc ], %i1
   148d4:	80 a0 40 19 	cmp  %g1, %i1
   148d8:	12 bf ff ed 	bne  1488c <free+0xf0>
   148dc:	f6 00 60 0c 	ld  [ %g1 + 0xc ], %i3
   148e0:	f2 06 e0 08 	ld  [ %i3 + 8 ], %i1
   148e4:	80 a0 40 19 	cmp  %g1, %i1
   148e8:	12 bf ff e9 	bne  1488c <free+0xf0>
   148ec:	92 02 40 04 	add  %o1, %g4, %o1
   148f0:	f6 26 a0 0c 	st  %i3, [ %i2 + 0xc ]
   148f4:	f4 26 e0 08 	st  %i2, [ %i3 + 8 ]
   148f8:	c2 07 60 3c 	ld  [ %i5 + 0x3c ], %g1
   148fc:	88 07 60 34 	add  %i5, 0x34, %g4
   14900:	c2 20 a0 08 	st  %g1, [ %g2 + 8 ]
   14904:	c8 20 a0 0c 	st  %g4, [ %g2 + 0xc ]
   14908:	c4 27 60 3c 	st  %g2, [ %i5 + 0x3c ]
   1490c:	c4 20 60 0c 	st  %g2, [ %g1 + 0xc ]
   14910:	82 12 60 01 	or  %o1, 1, %g1
   14914:	c2 20 a0 04 	st  %g1, [ %g2 + 4 ]
   14918:	d2 20 80 09 	st  %o1, [ %g2 + %o1 ]
   1491c:	03 00 00 7f 	sethi  %hi(0x1fc00), %g1
   14920:	82 10 63 ff 	or  %g1, 0x3ff, %g1	! 1ffff <_string_syserrmsgs+0x437>
   14924:	80 a2 40 01 	cmp  %o1, %g1
   14928:	08 bf ff c4 	bleu  14838 <free+0x9c>
   1492c:	92 10 20 01 	mov  1, %o1
   14930:	80 88 e0 02 	btst  2, %g3
   14934:	22 80 00 05 	be,a   14948 <free+0x1ac>
   14938:	c2 07 60 2c 	ld  [ %i5 + 0x2c ], %g1
   1493c:	7f ff ff 0b 	call  14568 <__malloc_consolidate>
   14940:	90 10 00 1d 	mov  %i5, %o0
   14944:	c2 07 60 2c 	ld  [ %i5 + 0x2c ], %g1
   14948:	c4 07 63 44 	ld  [ %i5 + 0x344 ], %g2
   1494c:	c2 00 60 04 	ld  [ %g1 + 4 ], %g1
   14950:	82 08 7f fc 	and  %g1, -4, %g1
   14954:	80 a0 40 02 	cmp  %g1, %g2
   14958:	2a bf ff b8 	bcs,a   14838 <free+0x9c>
   1495c:	92 10 20 01 	mov  1, %o1
   14960:	7f ff fe d1 	call  144a4 <__malloc_trim.constprop.0>
   14964:	d0 07 63 48 	ld  [ %i5 + 0x348 ], %o0
   14968:	10 bf ff b4 	b  14838 <free+0x9c>
   1496c:	92 10 20 01 	mov  1, %o1
   14970:	92 02 40 04 	add  %o1, %g4, %o1
   14974:	82 12 60 01 	or  %o1, 1, %g1
   14978:	c2 20 a0 04 	st  %g1, [ %g2 + 4 ]
   1497c:	10 bf ff e8 	b  1491c <free+0x180>
   14980:	c4 27 60 2c 	st  %g2, [ %i5 + 0x2c ]
   14984:	c2 07 63 50 	ld  [ %i5 + 0x350 ], %g1
   14988:	82 00 7f ff 	add  %g1, -1, %g1
   1498c:	d0 06 3f f8 	ld  [ %i0 + -8 ], %o0
   14990:	c2 27 63 50 	st  %g1, [ %i5 + 0x350 ]
   14994:	92 02 40 08 	add  %o1, %o0, %o1
   14998:	c2 07 63 64 	ld  [ %i5 + 0x364 ], %g1
   1499c:	82 20 40 09 	sub  %g1, %o1, %g1
   149a0:	90 20 80 08 	sub  %g2, %o0, %o0
   149a4:	7f ff ef d0 	call  108e4 <__GI_munmap>
   149a8:	c2 27 63 64 	st  %g1, [ %i5 + 0x364 ]
   149ac:	10 bf ff a3 	b  14838 <free+0x9c>
   149b0:	92 10 20 01 	mov  1, %o1

000149b4 <__malloc_largebin_index>:
   149b4:	9d e3 bf a0 	save  %sp, -96, %sp
   149b8:	07 00 00 3f 	sethi  %hi(0xfc00), %g3
   149bc:	83 36 20 08 	srl  %i0, 8, %g1
   149c0:	86 10 e3 ff 	or  %g3, 0x3ff, %g3
   149c4:	80 a0 40 03 	cmp  %g1, %g3
   149c8:	18 80 00 1b 	bgu  14a34 <__malloc_largebin_index+0x80>
   149cc:	84 10 20 5f 	mov  0x5f, %g2
   149d0:	86 00 7f 00 	add  %g1, -256, %g3
   149d4:	09 3f ff f0 	sethi  %hi(0xffffc000), %g4
   149d8:	87 30 e0 10 	srl  %g3, 0x10, %g3
   149dc:	86 08 e0 08 	and  %g3, 8, %g3
   149e0:	83 28 40 03 	sll  %g1, %g3, %g1
   149e4:	ba 00 70 00 	add  %g1, -4096, %i5
   149e8:	bb 37 60 10 	srl  %i5, 0x10, %i5
   149ec:	ba 0f 60 04 	and  %i5, 4, %i5
   149f0:	83 28 40 1d 	sll  %g1, %i5, %g1
   149f4:	88 00 40 04 	add  %g1, %g4, %g4
   149f8:	89 31 20 10 	srl  %g4, 0x10, %g4
   149fc:	88 09 20 02 	and  %g4, 2, %g4
   14a00:	83 28 40 04 	sll  %g1, %g4, %g1
   14a04:	85 30 60 0f 	srl  %g1, 0xf, %g2
   14a08:	83 30 60 0e 	srl  %g1, 0xe, %g1
   14a0c:	86 10 c0 1d 	or  %g3, %i5, %g3
   14a10:	84 28 40 02 	andn  %g1, %g2, %g2
   14a14:	86 00 c0 04 	add  %g3, %g4, %g3
   14a18:	84 20 80 03 	sub  %g2, %g3, %g2
   14a1c:	82 00 a0 13 	add  %g2, 0x13, %g1
   14a20:	85 28 a0 02 	sll  %g2, 2, %g2
   14a24:	b1 36 00 01 	srl  %i0, %g1, %i0
   14a28:	84 00 a0 54 	add  %g2, 0x54, %g2
   14a2c:	b0 0e 20 03 	and  %i0, 3, %i0
   14a30:	84 06 00 02 	add  %i0, %g2, %g2
   14a34:	81 c7 e0 08 	ret 
   14a38:	91 e8 00 02 	restore  %g0, %g2, %o0

00014a3c <malloc>:
   14a3c:	9d e3 bf 90 	save  %sp, -112, %sp
   14a40:	2f 00 00 ad 	sethi  %hi(0x2b400), %l7
   14a44:	7f ff ef 78 	call  10824 <__sparc_get_pc_thunk.l7>
   14a48:	ae 05 e0 88 	add  %l7, 0x88, %l7	! 2b488 <__FRAME_END__+0x2d90>
   14a4c:	80 a6 3f df 	cmp  %i0, -33
   14a50:	28 80 00 09 	bleu,a   14a74 <malloc+0x38>
   14a54:	b0 06 20 0b 	add  %i0, 0xb, %i0
   14a58:	84 10 20 0c 	mov  0xc, %g2
   14a5c:	03 00 00 00 	sethi  %hi(0), %g1
   14a60:	82 18 7f f8 	xor  %g1, -8, %g1
   14a64:	01 00 00 00 	nop 
   14a68:	c4 21 c0 01 	st  %g2, [ %g7 + %g1 ]
   14a6c:	81 c7 e0 08 	ret 
   14a70:	91 e8 20 00 	restore  %g0, 0, %o0
   14a74:	80 a6 20 0f 	cmp  %i0, 0xf
   14a78:	08 80 00 03 	bleu  14a84 <malloc+0x48>
   14a7c:	b8 10 20 10 	mov  0x10, %i4
   14a80:	b8 0e 3f f8 	and  %i0, -8, %i4
   14a84:	15 00 00 00 	sethi  %hi(0), %o2
   14a88:	94 1a a1 58 	xor  %o2, 0x158, %o2
   14a8c:	b4 07 bf f0 	add  %fp, -16, %i2
   14a90:	ba 05 c0 0a 	add  %l7, %o2, %i5
   14a94:	90 10 00 1a 	mov  %i2, %o0
   14a98:	94 10 00 1d 	mov  %i5, %o2
   14a9c:	13 00 00 a8 	sethi  %hi(0x2a000), %o1
   14aa0:	92 1a 7c bc 	xor  %o1, -836, %o1
   14aa4:	40 00 04 3f 	call  15ba0 <_pthread_cleanup_push_defer>
   14aa8:	92 05 c0 09 	add  %l7, %o1, %o1
   14aac:	40 00 04 37 	call  15b88 <__pthread_mutex_lock>
   14ab0:	90 10 00 1d 	mov  %i5, %o0
   14ab4:	3b 00 00 0a 	sethi  %hi(0x2800), %i5
   14ab8:	ba 1f 60 00 	xor  %i5, 0, %i5
   14abc:	ba 05 c0 1d 	add  %l7, %i5, %i5
   14ac0:	c4 07 40 00 	ld  [ %i5 ], %g2
   14ac4:	b2 88 a0 01 	andcc  %g2, 1, %i1
   14ac8:	12 80 00 14 	bne  14b18 <malloc+0xdc>
   14acc:	80 a0 80 1c 	cmp  %g2, %i4
   14ad0:	80 a0 a0 00 	cmp  %g2, 0
   14ad4:	32 80 00 05 	bne,a   14ae8 <malloc+0xac>
   14ad8:	f0 07 60 2c 	ld  [ %i5 + 0x2c ], %i0
   14adc:	7f ff fe a3 	call  14568 <__malloc_consolidate>
   14ae0:	90 10 00 1d 	mov  %i5, %o0
   14ae4:	f0 07 60 2c 	ld  [ %i5 + 0x2c ], %i0
   14ae8:	a0 07 20 10 	add  %i4, 0x10, %l0
   14aec:	c2 06 20 04 	ld  [ %i0 + 4 ], %g1
   14af0:	82 08 7f fc 	and  %g1, -4, %g1
   14af4:	80 a4 00 01 	cmp  %l0, %g1
   14af8:	38 80 01 04 	bgu,a   14f08 <malloc+0x4cc>
   14afc:	f6 07 63 5c 	ld  [ %i5 + 0x35c ], %i3
   14b00:	84 06 00 1c 	add  %i0, %i4, %g2
   14b04:	c4 27 60 2c 	st  %g2, [ %i5 + 0x2c ]
   14b08:	86 17 20 01 	or  %i4, 1, %g3
   14b0c:	82 20 40 1c 	sub  %g1, %i4, %g1
   14b10:	10 80 00 d1 	b  14e54 <malloc+0x418>
   14b14:	c6 26 20 04 	st  %g3, [ %i0 + 4 ]
   14b18:	0a 80 00 17 	bcs  14b74 <malloc+0x138>
   14b1c:	80 a7 20 ff 	cmp  %i4, 0xff
   14b20:	83 37 20 01 	srl  %i4, 1, %g1
   14b24:	82 00 7f f8 	add  %g1, -8, %g1
   14b28:	82 07 40 01 	add  %i5, %g1, %g1
   14b2c:	c6 00 60 04 	ld  [ %g1 + 4 ], %g3
   14b30:	80 a0 e0 00 	cmp  %g3, 0
   14b34:	02 80 00 0f 	be  14b70 <malloc+0x134>
   14b38:	80 88 e0 07 	btst  7, %g3
   14b3c:	22 80 00 04 	be,a   14b4c <malloc+0x110>
   14b40:	c4 00 e0 08 	ld  [ %g3 + 8 ], %g2
   14b44:	40 00 01 e0 	call  152c4 <__GI_abort>
   14b48:	01 00 00 00 	nop 
   14b4c:	b0 00 e0 08 	add  %g3, 8, %i0
   14b50:	89 36 20 0c 	srl  %i0, 0xc, %g4
   14b54:	84 18 80 04 	xor  %g2, %g4, %g2
   14b58:	c4 20 60 04 	st  %g2, [ %g1 + 4 ]
   14b5c:	92 10 20 01 	mov  1, %o1
   14b60:	40 00 04 15 	call  15bb4 <_pthread_cleanup_pop_restore>
   14b64:	90 10 00 1a 	mov  %i2, %o0
   14b68:	81 c7 e0 08 	ret 
   14b6c:	81 e8 00 00 	restore 
   14b70:	80 a7 20 ff 	cmp  %i4, 0xff
   14b74:	18 80 00 12 	bgu  14bbc <malloc+0x180>
   14b78:	80 88 a0 02 	btst  2, %g2
   14b7c:	82 07 20 34 	add  %i4, 0x34, %g1
   14b80:	82 07 40 01 	add  %i5, %g1, %g1
   14b84:	88 00 7f f8 	add  %g1, -8, %g4
   14b88:	f0 00 60 04 	ld  [ %g1 + 4 ], %i0
   14b8c:	80 a1 00 18 	cmp  %g4, %i0
   14b90:	02 80 00 12 	be  14bd8 <malloc+0x19c>
   14b94:	a3 37 20 03 	srl  %i4, 3, %l1
   14b98:	c6 06 20 0c 	ld  [ %i0 + 0xc ], %g3
   14b9c:	b8 06 00 1c 	add  %i0, %i4, %i4
   14ba0:	c4 07 20 04 	ld  [ %i4 + 4 ], %g2
   14ba4:	84 10 a0 01 	or  %g2, 1, %g2
   14ba8:	c4 27 20 04 	st  %g2, [ %i4 + 4 ]
   14bac:	c6 20 60 04 	st  %g3, [ %g1 + 4 ]
   14bb0:	c8 20 e0 08 	st  %g4, [ %g3 + 8 ]
   14bb4:	10 bf ff ea 	b  14b5c <malloc+0x120>
   14bb8:	b0 06 20 08 	add  %i0, 8, %i0
   14bbc:	02 80 00 04 	be  14bcc <malloc+0x190>
   14bc0:	01 00 00 00 	nop 
   14bc4:	7f ff fe 69 	call  14568 <__malloc_consolidate>
   14bc8:	90 10 00 1d 	mov  %i5, %o0
   14bcc:	7f ff ff 7a 	call  149b4 <__malloc_largebin_index>
   14bd0:	90 10 00 1c 	mov  %i4, %o0
   14bd4:	a2 10 00 08 	mov  %o0, %l1
   14bd8:	e4 07 60 30 	ld  [ %i5 + 0x30 ], %l2
   14bdc:	a0 07 60 34 	add  %i5, 0x34, %l0
   14be0:	10 80 00 3b 	b  14ccc <malloc+0x290>
   14be4:	a6 10 20 01 	mov  1, %l3
   14be8:	c2 06 20 0c 	ld  [ %i0 + 0xc ], %g1
   14bec:	80 a7 20 ff 	cmp  %i4, 0xff
   14bf0:	18 80 00 1a 	bgu  14c58 <malloc+0x21c>
   14bf4:	b6 0e ff fc 	and  %i3, -4, %i3
   14bf8:	80 a0 40 10 	cmp  %g1, %l0
   14bfc:	32 80 00 18 	bne,a   14c5c <malloc+0x220>
   14c00:	c2 27 60 40 	st  %g1, [ %i5 + 0x40 ]
   14c04:	80 a4 80 18 	cmp  %l2, %i0
   14c08:	32 80 00 15 	bne,a   14c5c <malloc+0x220>
   14c0c:	c2 27 60 40 	st  %g1, [ %i5 + 0x40 ]
   14c10:	84 07 20 10 	add  %i4, 0x10, %g2
   14c14:	80 a0 80 1b 	cmp  %g2, %i3
   14c18:	3a 80 00 11 	bcc,a   14c5c <malloc+0x220>
   14c1c:	c2 27 60 40 	st  %g1, [ %i5 + 0x40 ]
   14c20:	82 04 80 1c 	add  %l2, %i4, %g1
   14c24:	c2 27 60 3c 	st  %g1, [ %i5 + 0x3c ]
   14c28:	c2 27 60 40 	st  %g1, [ %i5 + 0x40 ]
   14c2c:	c2 27 60 30 	st  %g1, [ %i5 + 0x30 ]
   14c30:	e0 20 60 08 	st  %l0, [ %g1 + 8 ]
   14c34:	e0 20 60 0c 	st  %l0, [ %g1 + 0xc ]
   14c38:	84 26 c0 1c 	sub  %i3, %i4, %g2
   14c3c:	b8 17 20 01 	or  %i4, 1, %i4
   14c40:	f8 24 a0 04 	st  %i4, [ %l2 + 4 ]
   14c44:	86 10 a0 01 	or  %g2, 1, %g3
   14c48:	c6 20 60 04 	st  %g3, [ %g1 + 4 ]
   14c4c:	c4 24 80 1b 	st  %g2, [ %l2 + %i3 ]
   14c50:	10 bf ff c3 	b  14b5c <malloc+0x120>
   14c54:	b0 04 a0 08 	add  %l2, 8, %i0
   14c58:	c2 27 60 40 	st  %g1, [ %i5 + 0x40 ]
   14c5c:	80 a7 00 1b 	cmp  %i4, %i3
   14c60:	12 80 00 07 	bne  14c7c <malloc+0x240>
   14c64:	e0 20 60 08 	st  %l0, [ %g1 + 8 ]
   14c68:	b8 06 00 1c 	add  %i0, %i4, %i4
   14c6c:	c2 07 20 04 	ld  [ %i4 + 4 ], %g1
   14c70:	82 10 60 01 	or  %g1, 1, %g1
   14c74:	10 bf ff d0 	b  14bb4 <malloc+0x178>
   14c78:	c2 27 20 04 	st  %g1, [ %i4 + 4 ]
   14c7c:	80 a6 e0 ff 	cmp  %i3, 0xff
   14c80:	18 80 00 4c 	bgu  14db0 <malloc+0x374>
   14c84:	87 36 e0 03 	srl  %i3, 3, %g3
   14c88:	b6 0e ff f8 	and  %i3, -8, %i3
   14c8c:	b6 06 e0 34 	add  %i3, 0x34, %i3
   14c90:	82 07 40 1b 	add  %i5, %i3, %g1
   14c94:	c8 07 40 1b 	ld  [ %i5 + %i3 ], %g4
   14c98:	82 00 7f f8 	add  %g1, -8, %g1
   14c9c:	85 38 e0 05 	sra  %g3, 5, %g2
   14ca0:	87 2c c0 03 	sll  %l3, %g3, %g3
   14ca4:	84 00 a0 cc 	add  %g2, 0xcc, %g2
   14ca8:	85 28 a0 02 	sll  %g2, 2, %g2
   14cac:	84 07 40 02 	add  %i5, %g2, %g2
   14cb0:	f6 00 a0 04 	ld  [ %g2 + 4 ], %i3
   14cb4:	86 10 c0 1b 	or  %g3, %i3, %g3
   14cb8:	c6 20 a0 04 	st  %g3, [ %g2 + 4 ]
   14cbc:	c2 26 20 0c 	st  %g1, [ %i0 + 0xc ]
   14cc0:	c8 26 20 08 	st  %g4, [ %i0 + 8 ]
   14cc4:	f0 21 20 0c 	st  %i0, [ %g4 + 0xc ]
   14cc8:	f0 20 60 08 	st  %i0, [ %g1 + 8 ]
   14ccc:	f0 07 60 40 	ld  [ %i5 + 0x40 ], %i0
   14cd0:	80 a6 00 10 	cmp  %i0, %l0
   14cd4:	32 bf ff c5 	bne,a   14be8 <malloc+0x1ac>
   14cd8:	f6 06 20 04 	ld  [ %i0 + 4 ], %i3
   14cdc:	80 a7 20 ff 	cmp  %i4, 0xff
   14ce0:	28 80 00 0b 	bleu,a   14d0c <malloc+0x2d0>
   14ce4:	a2 04 60 01 	inc  %l1
   14ce8:	83 2c 60 03 	sll  %l1, 3, %g1
   14cec:	82 00 60 34 	add  %g1, 0x34, %g1
   14cf0:	82 07 40 01 	add  %i5, %g1, %g1
   14cf4:	86 00 7f f8 	add  %g1, -8, %g3
   14cf8:	f0 00 60 04 	ld  [ %g1 + 4 ], %i0
   14cfc:	80 a6 00 03 	cmp  %i0, %g3
   14d00:	32 80 00 43 	bne,a   14e0c <malloc+0x3d0>
   14d04:	c2 06 20 04 	ld  [ %i0 + 4 ], %g1
   14d08:	a2 04 60 01 	inc  %l1
   14d0c:	90 10 20 01 	mov  1, %o0
   14d10:	83 2c 60 03 	sll  %l1, 3, %g1
   14d14:	87 34 60 05 	srl  %l1, 5, %g3
   14d18:	82 00 60 2c 	add  %g1, 0x2c, %g1
   14d1c:	84 00 e0 cc 	add  %g3, 0xcc, %g2
   14d20:	82 07 40 01 	add  %i5, %g1, %g1
   14d24:	85 28 a0 02 	sll  %g2, 2, %g2
   14d28:	91 2a 00 11 	sll  %o0, %l1, %o0
   14d2c:	84 07 40 02 	add  %i5, %g2, %g2
   14d30:	b6 07 63 34 	add  %i5, 0x334, %i3
   14d34:	c4 00 a0 04 	ld  [ %g2 + 4 ], %g2
   14d38:	88 02 3f ff 	add  %o0, -1, %g4
   14d3c:	80 a0 80 04 	cmp  %g2, %g4
   14d40:	18 80 00 0f 	bgu  14d7c <malloc+0x340>
   14d44:	80 8a 00 02 	btst  %o0, %g2
   14d48:	86 00 e0 01 	inc  %g3
   14d4c:	80 a0 e0 02 	cmp  %g3, 2
   14d50:	18 bf ff 65 	bgu  14ae4 <malloc+0xa8>
   14d54:	83 28 e0 02 	sll  %g3, 2, %g1
   14d58:	c4 06 c0 01 	ld  [ %i3 + %g1 ], %g2
   14d5c:	80 a0 a0 00 	cmp  %g2, 0
   14d60:	22 bf ff fb 	be,a   14d4c <malloc+0x310>
   14d64:	86 00 e0 01 	inc  %g3
   14d68:	83 28 e0 08 	sll  %g3, 8, %g1
   14d6c:	90 10 00 19 	mov  %i1, %o0
   14d70:	82 00 60 2c 	add  %g1, 0x2c, %g1
   14d74:	82 07 40 01 	add  %i5, %g1, %g1
   14d78:	80 8a 00 02 	btst  %o0, %g2
   14d7c:	22 80 00 46 	be,a   14e94 <malloc+0x458>
   14d80:	82 00 60 08 	add  %g1, 8, %g1
   14d84:	f0 00 60 0c 	ld  [ %g1 + 0xc ], %i0
   14d88:	80 a0 40 18 	cmp  %g1, %i0
   14d8c:	12 80 00 44 	bne  14e9c <malloc+0x460>
   14d90:	84 28 80 08 	andn  %g2, %o0, %g2
   14d94:	88 00 e0 cc 	add  %g3, 0xcc, %g4
   14d98:	82 00 60 08 	add  %g1, 8, %g1
   14d9c:	89 29 20 02 	sll  %g4, 2, %g4
   14da0:	90 02 00 08 	add  %o0, %o0, %o0
   14da4:	88 07 40 04 	add  %i5, %g4, %g4
   14da8:	10 bf ff e4 	b  14d38 <malloc+0x2fc>
   14dac:	c4 21 20 04 	st  %g2, [ %g4 + 4 ]
   14db0:	7f ff ff 01 	call  149b4 <__malloc_largebin_index>
   14db4:	90 10 00 1b 	mov  %i3, %o0
   14db8:	83 2a 20 03 	sll  %o0, 3, %g1
   14dbc:	82 00 60 34 	add  %g1, 0x34, %g1
   14dc0:	86 10 00 08 	mov  %o0, %g3
   14dc4:	9e 07 40 01 	add  %i5, %g1, %o7
   14dc8:	c8 07 40 01 	ld  [ %i5 + %g1 ], %g4
   14dcc:	84 03 ff f8 	add  %o7, -8, %g2
   14dd0:	80 a0 80 04 	cmp  %g2, %g4
   14dd4:	02 bf ff b2 	be  14c9c <malloc+0x260>
   14dd8:	82 10 00 04 	mov  %g4, %g1
   14ddc:	c2 03 e0 04 	ld  [ %o7 + 4 ], %g1
   14de0:	de 00 60 04 	ld  [ %g1 + 4 ], %o7
   14de4:	80 a3 c0 1b 	cmp  %o7, %i3
   14de8:	38 bf ff ad 	bgu,a   14c9c <malloc+0x260>
   14dec:	88 10 00 02 	mov  %g2, %g4
   14df0:	b6 16 e0 01 	or  %i3, 1, %i3
   14df4:	c2 01 20 04 	ld  [ %g4 + 4 ], %g1
   14df8:	80 a0 40 1b 	cmp  %g1, %i3
   14dfc:	38 bf ff fe 	bgu,a   14df4 <malloc+0x3b8>
   14e00:	c8 01 20 08 	ld  [ %g4 + 8 ], %g4
   14e04:	10 bf ff a6 	b  14c9c <malloc+0x260>
   14e08:	c2 01 20 0c 	ld  [ %g4 + 0xc ], %g1
   14e0c:	82 08 7f fc 	and  %g1, -4, %g1
   14e10:	80 a7 00 01 	cmp  %i4, %g1
   14e14:	18 80 00 1e 	bgu  14e8c <malloc+0x450>
   14e18:	c4 06 20 0c 	ld  [ %i0 + 0xc ], %g2
   14e1c:	c8 06 20 08 	ld  [ %i0 + 8 ], %g4
   14e20:	f6 01 20 0c 	ld  [ %g4 + 0xc ], %i3
   14e24:	80 a6 c0 18 	cmp  %i3, %i0
   14e28:	12 bf ff 47 	bne  14b44 <malloc+0x108>
   14e2c:	86 20 40 1c 	sub  %g1, %i4, %g3
   14e30:	f6 00 a0 08 	ld  [ %g2 + 8 ], %i3
   14e34:	80 a6 c0 18 	cmp  %i3, %i0
   14e38:	12 bf ff 43 	bne  14b44 <malloc+0x108>
   14e3c:	80 a0 e0 0f 	cmp  %g3, 0xf
   14e40:	c4 21 20 0c 	st  %g2, [ %g4 + 0xc ]
   14e44:	c8 20 a0 08 	st  %g4, [ %g2 + 8 ]
   14e48:	18 80 00 06 	bgu  14e60 <malloc+0x424>
   14e4c:	84 06 00 01 	add  %i0, %g1, %g2
   14e50:	c2 00 a0 04 	ld  [ %g2 + 4 ], %g1
   14e54:	82 10 60 01 	or  %g1, 1, %g1
   14e58:	10 bf ff 57 	b  14bb4 <malloc+0x178>
   14e5c:	c2 20 a0 04 	st  %g1, [ %g2 + 4 ]
   14e60:	84 06 00 1c 	add  %i0, %i4, %g2
   14e64:	c4 27 60 3c 	st  %g2, [ %i5 + 0x3c ]
   14e68:	c4 27 60 40 	st  %g2, [ %i5 + 0x40 ]
   14e6c:	e0 20 a0 08 	st  %l0, [ %g2 + 8 ]
   14e70:	e0 20 a0 0c 	st  %l0, [ %g2 + 0xc ]
   14e74:	b8 17 20 01 	or  %i4, 1, %i4
   14e78:	f8 26 20 04 	st  %i4, [ %i0 + 4 ]
   14e7c:	88 10 e0 01 	or  %g3, 1, %g4
   14e80:	c8 20 a0 04 	st  %g4, [ %g2 + 4 ]
   14e84:	10 bf ff 4c 	b  14bb4 <malloc+0x178>
   14e88:	c6 26 00 01 	st  %g3, [ %i0 + %g1 ]
   14e8c:	10 bf ff 9c 	b  14cfc <malloc+0x2c0>
   14e90:	b0 10 00 02 	mov  %g2, %i0
   14e94:	10 bf ff b9 	b  14d78 <malloc+0x33c>
   14e98:	90 02 00 08 	add  %o0, %o0, %o0
   14e9c:	c4 06 20 04 	ld  [ %i0 + 4 ], %g2
   14ea0:	c8 06 20 0c 	ld  [ %i0 + 0xc ], %g4
   14ea4:	c8 20 60 0c 	st  %g4, [ %g1 + 0xc ]
   14ea8:	c2 21 20 08 	st  %g1, [ %g4 + 8 ]
   14eac:	84 08 bf fc 	and  %g2, -4, %g2
   14eb0:	86 20 80 1c 	sub  %g2, %i4, %g3
   14eb4:	80 a0 e0 0f 	cmp  %g3, 0xf
   14eb8:	18 80 00 06 	bgu  14ed0 <malloc+0x494>
   14ebc:	88 06 00 02 	add  %i0, %g2, %g4
   14ec0:	c2 01 20 04 	ld  [ %g4 + 4 ], %g1
   14ec4:	82 10 60 01 	or  %g1, 1, %g1
   14ec8:	10 bf ff 3b 	b  14bb4 <malloc+0x178>
   14ecc:	c2 21 20 04 	st  %g1, [ %g4 + 4 ]
   14ed0:	82 06 00 1c 	add  %i0, %i4, %g1
   14ed4:	c2 27 60 3c 	st  %g1, [ %i5 + 0x3c ]
   14ed8:	c2 27 60 40 	st  %g1, [ %i5 + 0x40 ]
   14edc:	e0 20 60 08 	st  %l0, [ %g1 + 8 ]
   14ee0:	80 a7 20 ff 	cmp  %i4, 0xff
   14ee4:	18 80 00 03 	bgu  14ef0 <malloc+0x4b4>
   14ee8:	e0 20 60 0c 	st  %l0, [ %g1 + 0xc ]
   14eec:	c2 27 60 30 	st  %g1, [ %i5 + 0x30 ]
   14ef0:	b8 17 20 01 	or  %i4, 1, %i4
   14ef4:	f8 26 20 04 	st  %i4, [ %i0 + 4 ]
   14ef8:	88 10 e0 01 	or  %g3, 1, %g4
   14efc:	c8 20 60 04 	st  %g4, [ %g1 + 4 ]
   14f00:	10 bf ff 2d 	b  14bb4 <malloc+0x178>
   14f04:	c6 26 00 02 	st  %g3, [ %i0 + %g2 ]
   14f08:	c2 07 40 00 	ld  [ %i5 ], %g1
   14f0c:	80 88 60 02 	btst  2, %g1
   14f10:	02 80 00 08 	be  14f30 <malloc+0x4f4>
   14f14:	b2 06 ff ff 	add  %i3, -1, %i1
   14f18:	7f ff fd 94 	call  14568 <__malloc_consolidate>
   14f1c:	90 10 00 1d 	mov  %i5, %o0
   14f20:	7f ff fe c7 	call  14a3c <malloc>
   14f24:	90 07 3f f9 	add  %i4, -7, %o0
   14f28:	10 bf ff 0d 	b  14b5c <malloc+0x120>
   14f2c:	b0 10 00 08 	mov  %o0, %i0
   14f30:	c2 07 63 4c 	ld  [ %i5 + 0x34c ], %g1
   14f34:	80 a7 00 01 	cmp  %i4, %g1
   14f38:	0a 80 00 38 	bcs  15018 <malloc+0x5dc>
   14f3c:	b0 20 00 1b 	neg  %i3, %i0
   14f40:	c4 07 63 50 	ld  [ %i5 + 0x350 ], %g2
   14f44:	c2 07 63 54 	ld  [ %i5 + 0x354 ], %g1
   14f48:	80 a0 80 01 	cmp  %g2, %g1
   14f4c:	36 80 00 34 	bge,a   1501c <malloc+0x5e0>
   14f50:	e2 07 60 2c 	ld  [ %i5 + 0x2c ], %l1
   14f54:	b6 06 e0 0a 	add  %i3, 0xa, %i3
   14f58:	b6 06 c0 1c 	add  %i3, %i4, %i3
   14f5c:	b6 0e c0 18 	and  %i3, %i0, %i3
   14f60:	80 a7 00 1b 	cmp  %i4, %i3
   14f64:	3a 80 00 2e 	bcc,a   1501c <malloc+0x5e0>
   14f68:	e2 07 60 2c 	ld  [ %i5 + 0x2c ], %l1
   14f6c:	9a 10 20 00 	clr  %o5
   14f70:	98 10 20 00 	clr  %o4
   14f74:	96 10 20 22 	mov  0x22, %o3
   14f78:	94 10 20 03 	mov  3, %o2
   14f7c:	92 10 00 1b 	mov  %i3, %o1
   14f80:	7f ff ee 40 	call  10880 <__GI_mmap>
   14f84:	90 10 20 00 	clr  %o0
   14f88:	80 a2 3f ff 	cmp  %o0, -1
   14f8c:	02 80 00 23 	be  15018 <malloc+0x5dc>
   14f90:	84 8a 20 07 	andcc  %o0, 7, %g2
   14f94:	22 80 00 1f 	be,a   15010 <malloc+0x5d4>
   14f98:	c0 22 00 00 	clr  [ %o0 ]
   14f9c:	82 10 20 08 	mov  8, %g1
   14fa0:	82 20 40 02 	sub  %g1, %g2, %g1
   14fa4:	90 02 00 01 	add  %o0, %g1, %o0
   14fa8:	c2 22 00 00 	st  %g1, [ %o0 ]
   14fac:	82 26 c0 01 	sub  %i3, %g1, %g1
   14fb0:	82 10 60 02 	or  %g1, 2, %g1
   14fb4:	c2 22 20 04 	st  %g1, [ %o0 + 4 ]
   14fb8:	c2 07 63 50 	ld  [ %i5 + 0x350 ], %g1
   14fbc:	82 00 60 01 	inc  %g1
   14fc0:	c2 27 63 50 	st  %g1, [ %i5 + 0x350 ]
   14fc4:	c4 07 63 58 	ld  [ %i5 + 0x358 ], %g2
   14fc8:	80 a0 40 02 	cmp  %g1, %g2
   14fcc:	34 80 00 02 	bg,a   14fd4 <malloc+0x598>
   14fd0:	c2 27 63 58 	st  %g1, [ %i5 + 0x358 ]
   14fd4:	c2 07 63 64 	ld  [ %i5 + 0x364 ], %g1
   14fd8:	b6 06 c0 01 	add  %i3, %g1, %i3
   14fdc:	f6 27 63 64 	st  %i3, [ %i5 + 0x364 ]
   14fe0:	c2 07 63 70 	ld  [ %i5 + 0x370 ], %g1
   14fe4:	80 a6 c0 01 	cmp  %i3, %g1
   14fe8:	38 80 00 02 	bgu,a   14ff0 <malloc+0x5b4>
   14fec:	f6 27 63 70 	st  %i3, [ %i5 + 0x370 ]
   14ff0:	c2 07 63 68 	ld  [ %i5 + 0x368 ], %g1
   14ff4:	b6 06 c0 01 	add  %i3, %g1, %i3
   14ff8:	c2 07 63 74 	ld  [ %i5 + 0x374 ], %g1
   14ffc:	80 a6 c0 01 	cmp  %i3, %g1
   15000:	38 80 00 02 	bgu,a   15008 <malloc+0x5cc>
   15004:	f6 27 63 74 	st  %i3, [ %i5 + 0x374 ]
   15008:	10 bf fe d5 	b  14b5c <malloc+0x120>
   1500c:	b0 02 20 08 	add  %o0, 8, %i0
   15010:	10 bf ff e9 	b  14fb4 <malloc+0x578>
   15014:	82 16 e0 02 	or  %i3, 2, %g1
   15018:	e2 07 60 2c 	ld  [ %i5 + 0x2c ], %l1
   1501c:	f6 07 63 48 	ld  [ %i5 + 0x348 ], %i3
   15020:	e4 04 60 04 	ld  [ %l1 + 4 ], %l2
   15024:	b6 06 e0 10 	add  %i3, 0x10, %i3
   15028:	a4 0c bf fc 	and  %l2, -4, %l2
   1502c:	c2 07 63 60 	ld  [ %i5 + 0x360 ], %g1
   15030:	a8 04 40 12 	add  %l1, %l2, %l4
   15034:	80 88 60 01 	btst  1, %g1
   15038:	02 80 00 03 	be  15044 <malloc+0x608>
   1503c:	b6 06 c0 1c 	add  %i3, %i4, %i3
   15040:	b6 26 c0 12 	sub  %i3, %l2, %i3
   15044:	b6 06 40 1b 	add  %i1, %i3, %i3
   15048:	b6 8e c0 18 	andcc  %i3, %i0, %i3
   1504c:	14 80 00 1d 	bg  150c0 <malloc+0x684>
   15050:	01 00 00 00 	nop 
   15054:	c2 07 63 60 	ld  [ %i5 + 0x360 ], %g1
   15058:	80 88 60 01 	btst  1, %g1
   1505c:	12 80 00 3c 	bne  1514c <malloc+0x710>
   15060:	82 06 40 12 	add  %i1, %l2, %g1
   15064:	03 00 03 ff 	sethi  %hi(0xffc00), %g1
   15068:	82 10 63 ff 	or  %g1, 0x3ff, %g1	! fffff <_end+0xbc85f>
   1506c:	80 a6 c0 01 	cmp  %i3, %g1
   15070:	28 80 00 02 	bleu,a   15078 <malloc+0x63c>
   15074:	37 00 04 00 	sethi  %hi(0x100000), %i3
   15078:	80 a7 00 1b 	cmp  %i4, %i3
   1507c:	1a 80 00 4b 	bcc  151a8 <malloc+0x76c>
   15080:	03 00 00 00 	sethi  %hi(0), %g1
   15084:	9a 10 20 00 	clr  %o5
   15088:	98 10 20 00 	clr  %o4
   1508c:	96 10 20 22 	mov  0x22, %o3
   15090:	94 10 20 03 	mov  3, %o2
   15094:	92 10 00 1b 	mov  %i3, %o1
   15098:	7f ff ed fa 	call  10880 <__GI_mmap>
   1509c:	90 10 20 00 	clr  %o0
   150a0:	80 a2 3f ff 	cmp  %o0, -1
   150a4:	02 80 00 40 	be  151a4 <malloc+0x768>
   150a8:	a6 10 00 08 	mov  %o0, %l3
   150ac:	c2 07 63 60 	ld  [ %i5 + 0x360 ], %g1
   150b0:	90 02 00 1b 	add  %o0, %i3, %o0
   150b4:	82 08 7f fe 	and  %g1, -2, %g1
   150b8:	10 80 00 08 	b  150d8 <malloc+0x69c>
   150bc:	c2 27 63 60 	st  %g1, [ %i5 + 0x360 ]
   150c0:	40 00 13 66 	call  19e58 <__GI_sbrk>
   150c4:	90 10 00 1b 	mov  %i3, %o0
   150c8:	a6 10 00 08 	mov  %o0, %l3
   150cc:	80 a4 ff ff 	cmp  %l3, -1
   150d0:	02 bf ff e1 	be  15054 <malloc+0x618>
   150d4:	90 10 3f ff 	mov  -1, %o0
   150d8:	c2 07 63 68 	ld  [ %i5 + 0x368 ], %g1
   150dc:	82 06 c0 01 	add  %i3, %g1, %g1
   150e0:	80 a4 c0 14 	cmp  %l3, %l4
   150e4:	12 80 00 05 	bne  150f8 <malloc+0x6bc>
   150e8:	c2 27 63 68 	st  %g1, [ %i5 + 0x368 ]
   150ec:	80 a2 3f ff 	cmp  %o0, -1
   150f0:	22 80 00 1a 	be,a   15158 <malloc+0x71c>
   150f4:	b6 04 80 1b 	add  %l2, %i3, %i3
   150f8:	c4 07 63 60 	ld  [ %i5 + 0x360 ], %g2
   150fc:	80 88 a0 01 	btst  1, %g2
   15100:	02 80 00 09 	be  15124 <malloc+0x6e8>
   15104:	80 a2 3f ff 	cmp  %o0, -1
   15108:	80 a4 a0 00 	cmp  %l2, 0
   1510c:	02 80 00 32 	be  151d4 <malloc+0x798>
   15110:	80 a4 c0 14 	cmp  %l3, %l4
   15114:	1a 80 00 2b 	bcc  151c0 <malloc+0x784>
   15118:	84 08 bf fe 	and  %g2, -2, %g2
   1511c:	c4 27 63 60 	st  %g2, [ %i5 + 0x360 ]
   15120:	80 a2 3f ff 	cmp  %o0, -1
   15124:	12 80 00 43 	bne  15230 <malloc+0x7f4>
   15128:	a8 10 00 13 	mov  %l3, %l4
   1512c:	40 00 13 4b 	call  19e58 <__GI_sbrk>
   15130:	90 10 20 00 	clr  %o0
   15134:	c4 07 63 68 	ld  [ %i5 + 0x368 ], %g2
   15138:	82 22 00 13 	sub  %o0, %l3, %g1
   1513c:	82 20 40 1b 	sub  %g1, %i3, %g1
   15140:	82 00 40 02 	add  %g1, %g2, %g1
   15144:	10 80 00 38 	b  15224 <malloc+0x7e8>
   15148:	c2 27 63 68 	st  %g1, [ %i5 + 0x368 ]
   1514c:	82 00 40 1b 	add  %g1, %i3, %g1
   15150:	10 bf ff c5 	b  15064 <malloc+0x628>
   15154:	b6 08 40 18 	and  %g1, %i0, %i3
   15158:	b6 16 e0 01 	or  %i3, 1, %i3
   1515c:	f6 24 60 04 	st  %i3, [ %l1 + 4 ]
   15160:	c2 07 63 68 	ld  [ %i5 + 0x368 ], %g1
   15164:	c4 07 63 6c 	ld  [ %i5 + 0x36c ], %g2
   15168:	80 a0 40 02 	cmp  %g1, %g2
   1516c:	38 80 00 02 	bgu,a   15174 <malloc+0x738>
   15170:	c2 27 63 6c 	st  %g1, [ %i5 + 0x36c ]
   15174:	c4 07 63 64 	ld  [ %i5 + 0x364 ], %g2
   15178:	82 00 40 02 	add  %g1, %g2, %g1
   1517c:	c4 07 63 74 	ld  [ %i5 + 0x374 ], %g2
   15180:	80 a0 40 02 	cmp  %g1, %g2
   15184:	38 80 00 02 	bgu,a   1518c <malloc+0x750>
   15188:	c2 27 63 74 	st  %g1, [ %i5 + 0x374 ]
   1518c:	f0 07 60 2c 	ld  [ %i5 + 0x2c ], %i0
   15190:	c2 06 20 04 	ld  [ %i0 + 4 ], %g1
   15194:	82 08 7f fc 	and  %g1, -4, %g1
   15198:	80 a4 00 01 	cmp  %l0, %g1
   1519c:	08 bf fe 5a 	bleu  14b04 <malloc+0xc8>
   151a0:	84 06 00 1c 	add  %i0, %i4, %g2
   151a4:	03 00 00 00 	sethi  %hi(0), %g1
   151a8:	82 18 7f f8 	xor  %g1, -8, %g1
   151ac:	b0 10 20 00 	clr  %i0
   151b0:	ae 10 00 01 	mov  %g1, %l7
   151b4:	82 10 20 0c 	mov  0xc, %g1
   151b8:	10 bf fe 69 	b  14b5c <malloc+0x120>
   151bc:	c2 21 c0 17 	st  %g1, [ %g7 + %l7 ]
   151c0:	80 a4 a0 00 	cmp  %l2, 0
   151c4:	02 80 00 04 	be  151d4 <malloc+0x798>
   151c8:	a8 24 c0 14 	sub  %l3, %l4, %l4
   151cc:	a8 05 00 01 	add  %l4, %g1, %l4
   151d0:	e8 27 63 68 	st  %l4, [ %i5 + 0x368 ]
   151d4:	84 8c e0 07 	andcc  %l3, 7, %g2
   151d8:	02 80 00 32 	be  152a0 <malloc+0x864>
   151dc:	a8 10 00 13 	mov  %l3, %l4
   151e0:	82 10 20 08 	mov  8, %g1
   151e4:	82 20 40 02 	sub  %g1, %g2, %g1
   151e8:	a8 04 c0 01 	add  %l3, %g1, %l4
   151ec:	82 00 40 12 	add  %g1, %l2, %g1
   151f0:	84 06 c0 01 	add  %i3, %g1, %g2
   151f4:	84 04 c0 02 	add  %l3, %g2, %g2
   151f8:	82 20 40 02 	sub  %g1, %g2, %g1
   151fc:	b2 06 40 02 	add  %i1, %g2, %i1
   15200:	b2 0e 40 18 	and  %i1, %i0, %i1
   15204:	b2 06 40 01 	add  %i1, %g1, %i1
   15208:	40 00 13 14 	call  19e58 <__GI_sbrk>
   1520c:	90 10 00 19 	mov  %i1, %o0
   15210:	80 a2 3f ff 	cmp  %o0, -1
   15214:	12 80 00 25 	bne  152a8 <malloc+0x86c>
   15218:	80 a4 c0 08 	cmp  %l3, %o0
   1521c:	40 00 13 0f 	call  19e58 <__GI_sbrk>
   15220:	90 10 20 00 	clr  %o0
   15224:	80 a2 3f ff 	cmp  %o0, -1
   15228:	22 bf ff cf 	be,a   15164 <malloc+0x728>
   1522c:	c2 07 63 68 	ld  [ %i5 + 0x368 ], %g1
   15230:	b2 10 20 00 	clr  %i1
   15234:	e8 27 60 2c 	st  %l4, [ %i5 + 0x2c ]
   15238:	90 22 00 14 	sub  %o0, %l4, %o0
   1523c:	90 02 00 19 	add  %o0, %i1, %o0
   15240:	90 12 20 01 	or  %o0, 1, %o0
   15244:	d0 25 20 04 	st  %o0, [ %l4 + 4 ]
   15248:	c2 07 63 68 	ld  [ %i5 + 0x368 ], %g1
   1524c:	82 00 40 19 	add  %g1, %i1, %g1
   15250:	80 a4 a0 00 	cmp  %l2, 0
   15254:	02 bf ff c3 	be  15160 <malloc+0x724>
   15258:	c2 27 63 68 	st  %g1, [ %i5 + 0x368 ]
   1525c:	a4 04 bf f4 	add  %l2, -12, %l2
   15260:	a4 0c bf f8 	and  %l2, -8, %l2
   15264:	82 14 a0 01 	or  %l2, 1, %g1
   15268:	c2 24 60 04 	st  %g1, [ %l1 + 4 ]
   1526c:	84 10 20 05 	mov  5, %g2
   15270:	82 04 40 12 	add  %l1, %l2, %g1
   15274:	c4 20 60 04 	st  %g2, [ %g1 + 4 ]
   15278:	80 a4 a0 0f 	cmp  %l2, 0xf
   1527c:	08 bf ff b9 	bleu  15160 <malloc+0x724>
   15280:	c4 20 60 08 	st  %g2, [ %g1 + 8 ]
   15284:	82 10 3f ff 	mov  -1, %g1
   15288:	f6 07 63 44 	ld  [ %i5 + 0x344 ], %i3
   1528c:	90 04 60 08 	add  %l1, 8, %o0
   15290:	7f ff fd 43 	call  1479c <free>
   15294:	c2 27 63 44 	st  %g1, [ %i5 + 0x344 ]
   15298:	10 bf ff b2 	b  15160 <malloc+0x724>
   1529c:	f6 27 63 44 	st  %i3, [ %i5 + 0x344 ]
   152a0:	10 bf ff d3 	b  151ec <malloc+0x7b0>
   152a4:	82 10 20 00 	clr  %g1
   152a8:	28 bf ff e4 	bleu,a   15238 <malloc+0x7fc>
   152ac:	e8 27 60 2c 	st  %l4, [ %i5 + 0x2c ]
   152b0:	c2 07 63 60 	ld  [ %i5 + 0x360 ], %g1
   152b4:	90 04 c0 1b 	add  %l3, %i3, %o0
   152b8:	82 08 7f fe 	and  %g1, -2, %g1
   152bc:	10 bf ff da 	b  15224 <malloc+0x7e8>
   152c0:	c2 27 63 60 	st  %g1, [ %i5 + 0x360 ]

000152c4 <__GI_abort>:
   152c4:	9d e3 bf 80 	save  %sp, -128, %sp
   152c8:	2f 00 00 ab 	sethi  %hi(0x2ac00), %l7
   152cc:	7f ff ed 56 	call  10824 <__sparc_get_pc_thunk.l7>
   152d0:	ae 05 e0 00 	add  %l7, 0, %l7	! 2ac00 <__FRAME_END__+0x2508>
   152d4:	3b 00 00 00 	sethi  %hi(0), %i5
   152d8:	ba 1f 61 70 	xor  %i5, 0x170, %i5
   152dc:	ba 05 c0 1d 	add  %l7, %i5, %i5
   152e0:	40 00 02 2a 	call  15b88 <__pthread_mutex_lock>
   152e4:	90 10 00 1d 	mov  %i5, %o0
   152e8:	82 10 20 20 	mov  0x20, %g1
   152ec:	c0 27 bf e8 	clr  [ %fp + -24 ]
   152f0:	c2 27 bf e4 	st  %g1, [ %fp + -28 ]
   152f4:	94 10 20 00 	clr  %o2
   152f8:	92 07 bf e4 	add  %fp, -28, %o1
   152fc:	40 00 12 f3 	call  19ec8 <__GI_sigprocmask>
   15300:	90 10 20 02 	mov  2, %o0
   15304:	03 00 00 00 	sethi  %hi(0), %g1
   15308:	82 18 63 f8 	xor  %g1, 0x3f8, %g1
   1530c:	ae 05 c0 01 	add  %l7, %g1, %l7
   15310:	c2 05 c0 00 	ld  [ %l7 ], %g1
   15314:	80 a0 60 00 	cmp  %g1, 0
   15318:	12 80 00 0c 	bne  15348 <__GI_abort+0x84>
   1531c:	80 a0 60 01 	cmp  %g1, 1
   15320:	82 10 20 01 	mov  1, %g1
   15324:	c2 25 c0 00 	st  %g1, [ %l7 ]
   15328:	40 00 02 18 	call  15b88 <__pthread_mutex_lock>
   1532c:	90 10 00 1d 	mov  %i5, %o0
   15330:	40 00 03 da 	call  16298 <__GI_raise>
   15334:	90 10 20 06 	mov  6, %o0
   15338:	40 00 02 14 	call  15b88 <__pthread_mutex_lock>
   1533c:	90 10 00 1d 	mov  %i5, %o0
   15340:	c2 05 c0 00 	ld  [ %l7 ], %g1
   15344:	80 a0 60 01 	cmp  %g1, 1
   15348:	12 80 00 11 	bne  1538c <__GI_abort+0xc8>
   1534c:	80 a0 60 02 	cmp  %g1, 2
   15350:	82 10 20 02 	mov  2, %g1
   15354:	b8 07 bf ec 	add  %fp, -20, %i4
   15358:	c2 25 c0 00 	st  %g1, [ %l7 ]
   1535c:	94 10 20 14 	mov  0x14, %o2
   15360:	92 10 20 00 	clr  %o1
   15364:	7f ff fa 5e 	call  13cdc <__GI_memset>
   15368:	90 10 00 1c 	mov  %i4, %o0
   1536c:	82 10 3f ff 	mov  -1, %g1
   15370:	94 10 20 00 	clr  %o2
   15374:	c2 27 bf f8 	st  %g1, [ %fp + -8 ]
   15378:	c2 27 bf fc 	st  %g1, [ %fp + -4 ]
   1537c:	92 10 00 1c 	mov  %i4, %o1
   15380:	40 00 12 25 	call  19c14 <__libc_sigaction>
   15384:	90 10 20 06 	mov  6, %o0
   15388:	30 bf ff e8 	b,a   15328 <__GI_abort+0x64>
   1538c:	32 80 00 06 	bne,a   153a4 <__GI_abort+0xe0>
   15390:	c2 05 c0 00 	ld  [ %l7 ], %g1
   15394:	82 10 20 03 	mov  3, %g1
   15398:	c2 25 c0 00 	st  %g1, [ %l7 ]
   1539c:	00 00 0f 00 	unimp  0xf00
   153a0:	c2 05 c0 00 	ld  [ %l7 ], %g1
   153a4:	80 a0 60 03 	cmp  %g1, 3
   153a8:	12 80 00 05 	bne  153bc <__GI_abort+0xf8>
   153ac:	82 10 20 04 	mov  4, %g1
   153b0:	90 10 20 7f 	mov  0x7f, %o0
   153b4:	40 00 12 6a 	call  19d5c <__GI__exit>
   153b8:	c2 25 c0 00 	st  %g1, [ %l7 ]
   153bc:	00 00 0f 00 	unimp  0xf00
   153c0:	30 bf ff ff 	b,a   153bc <__GI_abort+0xf8>

000153c4 <rand>:
   153c4:	9d e3 bf a0 	save  %sp, -96, %sp
   153c8:	10 80 00 5b 	b  15534 <__GI_random>
   153cc:	81 e8 00 00 	restore 

000153d0 <srand>:
   153d0:	9d e3 bf 90 	save  %sp, -112, %sp
   153d4:	15 00 00 00 	sethi  %hi(0), %o2
   153d8:	94 1a a2 08 	xor  %o2, 0x208, %o2
   153dc:	2f 00 00 aa 	sethi  %hi(0x2a800), %l7
   153e0:	7f ff ed 11 	call  10824 <__sparc_get_pc_thunk.l7>
   153e4:	ae 05 e2 ec 	add  %l7, 0x2ec, %l7	! 2aaec <__FRAME_END__+0x23f4>
   153e8:	b8 07 bf f0 	add  %fp, -16, %i4
   153ec:	ba 05 c0 0a 	add  %l7, %o2, %i5
   153f0:	90 10 00 1c 	mov  %i4, %o0
   153f4:	94 10 00 1d 	mov  %i5, %o2
   153f8:	13 00 00 a8 	sethi  %hi(0x2a000), %o1
   153fc:	92 1a 7c bc 	xor  %o1, -836, %o1
   15400:	40 00 01 e8 	call  15ba0 <_pthread_cleanup_push_defer>
   15404:	92 05 c0 09 	add  %l7, %o1, %o1
   15408:	40 00 01 e0 	call  15b88 <__pthread_mutex_lock>
   1540c:	90 10 00 1d 	mov  %i5, %o0
   15410:	90 10 00 18 	mov  %i0, %o0
   15414:	13 00 00 00 	sethi  %hi(0), %o1
   15418:	92 1a 62 20 	xor  %o1, 0x220, %o1
   1541c:	40 00 00 88 	call  1563c <__GI_srandom_r>
   15420:	92 05 c0 09 	add  %l7, %o1, %o1
   15424:	92 10 20 01 	mov  1, %o1
   15428:	40 00 01 e3 	call  15bb4 <_pthread_cleanup_pop_restore>
   1542c:	90 10 00 1c 	mov  %i4, %o0
   15430:	81 c7 e0 08 	ret 
   15434:	81 e8 00 00 	restore 

00015438 <initstate>:
   15438:	9d e3 bf 90 	save  %sp, -112, %sp
   1543c:	15 00 00 00 	sethi  %hi(0), %o2
   15440:	94 1a a2 08 	xor  %o2, 0x208, %o2
   15444:	2f 00 00 aa 	sethi  %hi(0x2a800), %l7
   15448:	7f ff ec f7 	call  10824 <__sparc_get_pc_thunk.l7>
   1544c:	ae 05 e2 84 	add  %l7, 0x284, %l7	! 2aa84 <__FRAME_END__+0x238c>
   15450:	b8 07 bf f0 	add  %fp, -16, %i4
   15454:	ba 05 c0 0a 	add  %l7, %o2, %i5
   15458:	90 10 00 1c 	mov  %i4, %o0
   1545c:	94 10 00 1d 	mov  %i5, %o2
   15460:	13 00 00 a8 	sethi  %hi(0x2a000), %o1
   15464:	92 1a 7c bc 	xor  %o1, -836, %o1
   15468:	40 00 01 ce 	call  15ba0 <_pthread_cleanup_push_defer>
   1546c:	92 05 c0 09 	add  %l7, %o1, %o1
   15470:	40 00 01 c6 	call  15b88 <__pthread_mutex_lock>
   15474:	90 10 00 1d 	mov  %i5, %o0
   15478:	03 00 00 00 	sethi  %hi(0), %g1
   1547c:	82 18 62 20 	xor  %g1, 0x220, %g1
   15480:	94 10 00 1a 	mov  %i2, %o2
   15484:	96 05 c0 01 	add  %l7, %g1, %o3
   15488:	92 10 00 19 	mov  %i1, %o1
   1548c:	fa 02 e0 08 	ld  [ %o3 + 8 ], %i5
   15490:	40 00 00 a8 	call  15730 <__GI_initstate_r>
   15494:	90 10 00 18 	mov  %i0, %o0
   15498:	ba 07 7f fc 	add  %i5, -4, %i5
   1549c:	92 10 20 01 	mov  1, %o1
   154a0:	90 10 00 1c 	mov  %i4, %o0
   154a4:	40 00 01 c4 	call  15bb4 <_pthread_cleanup_pop_restore>
   154a8:	b0 10 00 1d 	mov  %i5, %i0
   154ac:	81 c7 e0 08 	ret 
   154b0:	81 e8 00 00 	restore 

000154b4 <setstate>:
   154b4:	9d e3 bf 90 	save  %sp, -112, %sp
   154b8:	15 00 00 00 	sethi  %hi(0), %o2
   154bc:	94 1a a2 08 	xor  %o2, 0x208, %o2
   154c0:	2f 00 00 aa 	sethi  %hi(0x2a800), %l7
   154c4:	7f ff ec d8 	call  10824 <__sparc_get_pc_thunk.l7>
   154c8:	ae 05 e2 08 	add  %l7, 0x208, %l7	! 2aa08 <__FRAME_END__+0x2310>
   154cc:	b8 07 bf f0 	add  %fp, -16, %i4
   154d0:	ba 05 c0 0a 	add  %l7, %o2, %i5
   154d4:	90 10 00 1c 	mov  %i4, %o0
   154d8:	94 10 00 1d 	mov  %i5, %o2
   154dc:	13 00 00 a8 	sethi  %hi(0x2a000), %o1
   154e0:	92 1a 7c bc 	xor  %o1, -836, %o1
   154e4:	40 00 01 af 	call  15ba0 <_pthread_cleanup_push_defer>
   154e8:	92 05 c0 09 	add  %l7, %o1, %o1
   154ec:	40 00 01 a7 	call  15b88 <__pthread_mutex_lock>
   154f0:	90 10 00 1d 	mov  %i5, %o0
   154f4:	03 00 00 00 	sethi  %hi(0), %g1
   154f8:	82 18 62 20 	xor  %g1, 0x220, %g1
   154fc:	90 10 00 18 	mov  %i0, %o0
   15500:	92 05 c0 01 	add  %l7, %g1, %o1
   15504:	40 00 00 c7 	call  15820 <__GI_setstate_r>
   15508:	fa 02 60 08 	ld  [ %o1 + 8 ], %i5
   1550c:	80 a2 20 00 	cmp  %o0, 0
   15510:	16 80 00 03 	bge  1551c <setstate+0x68>
   15514:	ba 07 7f fc 	add  %i5, -4, %i5
   15518:	ba 10 20 00 	clr  %i5
   1551c:	92 10 20 01 	mov  1, %o1
   15520:	90 10 00 1c 	mov  %i4, %o0
   15524:	40 00 01 a4 	call  15bb4 <_pthread_cleanup_pop_restore>
   15528:	b0 10 00 1d 	mov  %i5, %i0
   1552c:	81 c7 e0 08 	ret 
   15530:	81 e8 00 00 	restore 

00015534 <__GI_random>:
   15534:	9d e3 bf 88 	save  %sp, -120, %sp
   15538:	15 00 00 00 	sethi  %hi(0), %o2
   1553c:	94 1a a2 08 	xor  %o2, 0x208, %o2
   15540:	2f 00 00 aa 	sethi  %hi(0x2a800), %l7
   15544:	7f ff ec b8 	call  10824 <__sparc_get_pc_thunk.l7>
   15548:	ae 05 e1 88 	add  %l7, 0x188, %l7	! 2a988 <__FRAME_END__+0x2290>
   1554c:	b8 07 bf f0 	add  %fp, -16, %i4
   15550:	ba 05 c0 0a 	add  %l7, %o2, %i5
   15554:	90 10 00 1c 	mov  %i4, %o0
   15558:	94 10 00 1d 	mov  %i5, %o2
   1555c:	13 00 00 a8 	sethi  %hi(0x2a000), %o1
   15560:	92 1a 7c bc 	xor  %o1, -836, %o1
   15564:	40 00 01 8f 	call  15ba0 <_pthread_cleanup_push_defer>
   15568:	92 05 c0 09 	add  %l7, %o1, %o1
   1556c:	40 00 01 87 	call  15b88 <__pthread_mutex_lock>
   15570:	90 10 00 1d 	mov  %i5, %o0
   15574:	92 07 bf ec 	add  %fp, -20, %o1
   15578:	11 00 00 00 	sethi  %hi(0), %o0
   1557c:	90 1a 22 20 	xor  %o0, 0x220, %o0
   15580:	40 00 00 08 	call  155a0 <__GI_random_r>
   15584:	90 05 c0 08 	add  %l7, %o0, %o0
   15588:	92 10 20 01 	mov  1, %o1
   1558c:	40 00 01 8a 	call  15bb4 <_pthread_cleanup_pop_restore>
   15590:	90 10 00 1c 	mov  %i4, %o0
   15594:	f0 07 bf ec 	ld  [ %fp + -20 ], %i0
   15598:	81 c7 e0 08 	ret 
   1559c:	81 e8 00 00 	restore 

000155a0 <__GI_random_r>:
   155a0:	9d e3 bf a0 	save  %sp, -96, %sp
   155a4:	c2 4e 20 0c 	ldsb  [ %i0 + 0xc ], %g1
   155a8:	80 a0 60 00 	cmp  %g1, 0
   155ac:	12 80 00 0f 	bne  155e8 <__GI_random_r+0x48>
   155b0:	c8 06 20 08 	ld  [ %i0 + 8 ], %g4
   155b4:	05 10 71 93 	sethi  %hi(0x41c64c00), %g2
   155b8:	84 10 a2 6d 	or  %g2, 0x26d, %g2	! 41c64e6d <_end+0x41c216cd>
   155bc:	c2 01 00 00 	ld  [ %g4 ], %g1
   155c0:	82 58 40 02 	smul  %g1, %g2, %g1
   155c4:	05 00 00 0c 	sethi  %hi(0x3000), %g2
   155c8:	84 10 a0 39 	or  %g2, 0x39, %g2	! 3039 <__libc_h_errno+0x3035>
   155cc:	82 00 40 02 	add  %g1, %g2, %g1
   155d0:	05 20 00 00 	sethi  %hi(0x80000000), %g2
   155d4:	82 28 40 02 	andn  %g1, %g2, %g1
   155d8:	c2 21 00 00 	st  %g1, [ %g4 ]
   155dc:	c2 26 40 00 	st  %g1, [ %i1 ]
   155e0:	81 c7 e0 08 	ret 
   155e4:	91 e8 20 00 	restore  %g0, 0, %o0
   155e8:	c2 06 00 00 	ld  [ %i0 ], %g1
   155ec:	c4 06 20 04 	ld  [ %i0 + 4 ], %g2
   155f0:	c6 00 40 00 	ld  [ %g1 ], %g3
   155f4:	f8 00 80 00 	ld  [ %g2 ], %i4
   155f8:	fa 06 20 10 	ld  [ %i0 + 0x10 ], %i5
   155fc:	86 00 c0 1c 	add  %g3, %i4, %g3
   15600:	c6 20 40 00 	st  %g3, [ %g1 ]
   15604:	87 30 e0 01 	srl  %g3, 1, %g3
   15608:	c6 26 40 00 	st  %g3, [ %i1 ]
   1560c:	82 00 60 04 	add  %g1, 4, %g1
   15610:	80 a7 40 01 	cmp  %i5, %g1
   15614:	08 80 00 08 	bleu  15634 <__GI_random_r+0x94>
   15618:	84 00 a0 04 	add  %g2, 4, %g2
   1561c:	80 a7 40 02 	cmp  %i5, %g2
   15620:	28 80 00 02 	bleu,a   15628 <__GI_random_r+0x88>
   15624:	84 10 00 04 	mov  %g4, %g2
   15628:	c2 26 00 00 	st  %g1, [ %i0 ]
   1562c:	10 bf ff ed 	b  155e0 <__GI_random_r+0x40>
   15630:	c4 26 20 04 	st  %g2, [ %i0 + 4 ]
   15634:	10 bf ff fd 	b  15628 <__GI_random_r+0x88>
   15638:	82 10 00 04 	mov  %g4, %g1

0001563c <__GI_srandom_r>:
   1563c:	9d e3 bf 98 	save  %sp, -104, %sp
   15640:	c2 0e 60 0c 	ldub  [ %i1 + 0xc ], %g1
   15644:	83 28 60 18 	sll  %g1, 0x18, %g1
   15648:	87 38 60 18 	sra  %g1, 0x18, %g3
   1564c:	80 a0 e0 04 	cmp  %g3, 4
   15650:	18 80 00 0a 	bgu  15678 <__GI_srandom_r+0x3c>
   15654:	84 10 3f ff 	mov  -1, %g2
   15658:	80 a6 20 00 	cmp  %i0, 0
   1565c:	12 80 00 03 	bne  15668 <__GI_srandom_r+0x2c>
   15660:	c4 06 60 08 	ld  [ %i1 + 8 ], %g2
   15664:	b0 10 20 01 	mov  1, %i0
   15668:	80 a0 60 00 	cmp  %g1, 0
   1566c:	12 80 00 05 	bne  15680 <__GI_srandom_r+0x44>
   15670:	f0 20 80 00 	st  %i0, [ %g2 ]
   15674:	84 10 20 00 	clr  %g2
   15678:	81 c7 e0 08 	ret 
   1567c:	91 e8 00 02 	restore  %g0, %g2, %o0
   15680:	09 00 00 7c 	sethi  %hi(0x1f000), %g4
   15684:	3b 00 00 10 	sethi  %hi(0x4000), %i5
   15688:	37 1f ff ff 	sethi  %hi(0x7ffffc00), %i3
   1568c:	f8 4e 60 0d 	ldsb  [ %i1 + 0xd ], %i4
   15690:	86 10 20 01 	mov  1, %g3
   15694:	88 11 23 1d 	or  %g4, 0x31d, %g4
   15698:	ba 17 61 a7 	or  %i5, 0x1a7, %i5
   1569c:	b6 16 e3 ff 	or  %i3, 0x3ff, %i3
   156a0:	80 a0 c0 1c 	cmp  %g3, %i4
   156a4:	06 80 00 12 	bl  156ec <__GI_srandom_r+0xb0>
   156a8:	01 00 00 00 	nop 
   156ac:	bb 2f 20 02 	sll  %i4, 2, %i5
   156b0:	c2 4e 60 0e 	ldsb  [ %i1 + 0xe ], %g1
   156b4:	ba 07 40 1c 	add  %i5, %i4, %i5
   156b8:	83 28 60 02 	sll  %g1, 2, %g1
   156bc:	c4 26 60 04 	st  %g2, [ %i1 + 4 ]
   156c0:	82 00 80 01 	add  %g2, %g1, %g1
   156c4:	ba 07 40 1d 	add  %i5, %i5, %i5
   156c8:	c2 26 40 00 	st  %g1, [ %i1 ]
   156cc:	b8 07 bf fc 	add  %fp, -4, %i4
   156d0:	ba 87 7f ff 	addcc  %i5, -1, %i5
   156d4:	0c bf ff e8 	bneg  15674 <__GI_srandom_r+0x38>
   156d8:	92 10 00 1c 	mov  %i4, %o1
   156dc:	7f ff ff b1 	call  155a0 <__GI_random_r>
   156e0:	90 10 00 19 	mov  %i1, %o0
   156e4:	10 bf ff fc 	b  156d4 <__GI_srandom_r+0x98>
   156e8:	ba 87 7f ff 	addcc  %i5, -1, %i5
   156ec:	b5 3e 20 1f 	sra  %i0, 0x1f, %i2
   156f0:	81 86 a0 00 	wr  %i2, %y
   156f4:	01 00 00 00 	nop 
   156f8:	01 00 00 00 	nop 
   156fc:	01 00 00 00 	nop 
   15700:	82 7e 00 04 	sdiv  %i0, %g4, %g1
   15704:	b4 58 40 04 	smul  %g1, %g4, %i2
   15708:	82 58 74 ec 	smul  %g1, -2836, %g1
   1570c:	b0 26 00 1a 	sub  %i0, %i2, %i0
   15710:	b0 5e 00 1d 	smul  %i0, %i5, %i0
   15714:	b0 86 00 01 	addcc  %i0, %g1, %i0
   15718:	2c 80 00 02 	bneg,a   15720 <__GI_srandom_r+0xe4>
   1571c:	b0 06 00 1b 	add  %i0, %i3, %i0
   15720:	83 28 e0 02 	sll  %g3, 2, %g1
   15724:	86 00 e0 01 	inc  %g3
   15728:	10 bf ff de 	b  156a0 <__GI_srandom_r+0x64>
   1572c:	f0 20 80 01 	st  %i0, [ %g2 + %g1 ]

00015730 <__GI_initstate_r>:
   15730:	9d e3 bf a0 	save  %sp, -96, %sp
   15734:	2f 00 00 a9 	sethi  %hi(0x2a400), %l7
   15738:	7f ff ec 3b 	call  10824 <__sparc_get_pc_thunk.l7>
   1573c:	ae 05 e3 94 	add  %l7, 0x394, %l7	! 2a794 <__FRAME_END__+0x209c>
   15740:	80 a6 a0 7f 	cmp  %i2, 0x7f
   15744:	08 80 00 1f 	bleu  157c0 <__GI_initstate_r+0x90>
   15748:	80 a6 a0 1f 	cmp  %i2, 0x1f
   1574c:	80 a6 a0 ff 	cmp  %i2, 0xff
   15750:	18 80 00 03 	bgu  1575c <__GI_initstate_r+0x2c>
   15754:	ba 10 20 04 	mov  4, %i5
   15758:	ba 10 20 03 	mov  3, %i5
   1575c:	03 00 00 80 	sethi  %hi(0x20000), %g1
   15760:	82 18 7c 2c 	xor  %g1, -980, %g1
   15764:	b8 06 60 04 	add  %i1, 4, %i4
   15768:	ae 05 c0 01 	add  %l7, %g1, %l7
   1576c:	85 2f 60 02 	sll  %i5, 2, %g2
   15770:	82 07 60 04 	add  %i5, 4, %g1
   15774:	c4 05 c0 02 	ld  [ %l7 + %g2 ], %g2
   15778:	83 28 60 02 	sll  %g1, 2, %g1
   1577c:	82 05 c0 01 	add  %l7, %g1, %g1
   15780:	c2 00 60 04 	ld  [ %g1 + 4 ], %g1
   15784:	c2 2e e0 0d 	stb  %g1, [ %i3 + 0xd ]
   15788:	83 28 60 02 	sll  %g1, 2, %g1
   1578c:	82 07 00 01 	add  %i4, %g1, %g1
   15790:	fa 2e e0 0c 	stb  %i5, [ %i3 + 0xc ]
   15794:	c4 2e e0 0e 	stb  %g2, [ %i3 + 0xe ]
   15798:	c2 26 e0 10 	st  %g1, [ %i3 + 0x10 ]
   1579c:	f8 26 e0 08 	st  %i4, [ %i3 + 8 ]
   157a0:	92 10 00 1b 	mov  %i3, %o1
   157a4:	7f ff ff a6 	call  1563c <__GI_srandom_r>
   157a8:	90 10 00 18 	mov  %i0, %o0
   157ac:	80 a7 60 00 	cmp  %i5, 0
   157b0:	12 80 00 14 	bne  15800 <__GI_initstate_r+0xd0>
   157b4:	c0 26 40 00 	clr  [ %i1 ]
   157b8:	81 c7 e0 08 	ret 
   157bc:	91 e8 20 00 	restore  %g0, 0, %o0
   157c0:	18 80 00 0c 	bgu  157f0 <__GI_initstate_r+0xc0>
   157c4:	80 a6 a0 3f 	cmp  %i2, 0x3f
   157c8:	80 a6 a0 07 	cmp  %i2, 7
   157cc:	18 bf ff e4 	bgu  1575c <__GI_initstate_r+0x2c>
   157d0:	ba 10 20 00 	clr  %i5
   157d4:	03 00 00 00 	sethi  %hi(0), %g1
   157d8:	82 18 7f f8 	xor  %g1, -8, %g1
   157dc:	ae 10 00 01 	mov  %g1, %l7
   157e0:	82 10 20 16 	mov  0x16, %g1
   157e4:	c2 21 c0 17 	st  %g1, [ %g7 + %l7 ]
   157e8:	81 c7 e0 08 	ret 
   157ec:	91 e8 3f ff 	restore  %g0, -1, %o0
   157f0:	18 bf ff db 	bgu  1575c <__GI_initstate_r+0x2c>
   157f4:	ba 10 20 02 	mov  2, %i5
   157f8:	10 bf ff d9 	b  1575c <__GI_initstate_r+0x2c>
   157fc:	ba 10 20 01 	mov  1, %i5
   15800:	c2 06 e0 04 	ld  [ %i3 + 4 ], %g1
   15804:	82 20 40 1c 	sub  %g1, %i4, %g1
   15808:	85 38 60 02 	sra  %g1, 2, %g2
   1580c:	82 08 7f fc 	and  %g1, -4, %g1
   15810:	82 00 40 02 	add  %g1, %g2, %g1
   15814:	82 00 40 1d 	add  %g1, %i5, %g1
   15818:	10 bf ff e8 	b  157b8 <__GI_initstate_r+0x88>
   1581c:	c2 26 40 00 	st  %g1, [ %i1 ]

00015820 <__GI_setstate_r>:
   15820:	9d e3 bf a0 	save  %sp, -96, %sp
   15824:	2f 00 00 a9 	sethi  %hi(0x2a400), %l7
   15828:	7f ff eb ff 	call  10824 <__sparc_get_pc_thunk.l7>
   1582c:	ae 05 e2 a4 	add  %l7, 0x2a4, %l7	! 2a6a4 <__FRAME_END__+0x1fac>
   15830:	c4 4e 60 0c 	ldsb  [ %i1 + 0xc ], %g2
   15834:	86 06 20 04 	add  %i0, 4, %g3
   15838:	80 a0 a0 00 	cmp  %g2, 0
   1583c:	02 80 00 08 	be  1585c <__GI_setstate_r+0x3c>
   15840:	c8 06 60 08 	ld  [ %i1 + 8 ], %g4
   15844:	c2 06 60 04 	ld  [ %i1 + 4 ], %g1
   15848:	82 20 40 04 	sub  %g1, %g4, %g1
   1584c:	bb 38 60 02 	sra  %g1, 2, %i5
   15850:	82 08 7f fc 	and  %g1, -4, %g1
   15854:	82 00 40 1d 	add  %g1, %i5, %g1
   15858:	84 00 80 01 	add  %g2, %g1, %g2
   1585c:	c4 21 3f fc 	st  %g2, [ %g4 + -4 ]
   15860:	c4 06 00 00 	ld  [ %i0 ], %g2
   15864:	83 38 a0 1f 	sra  %g2, 0x1f, %g1
   15868:	81 80 60 00 	wr  %g1, %y
   1586c:	01 00 00 00 	nop 
   15870:	01 00 00 00 	nop 
   15874:	01 00 00 00 	nop 
   15878:	b8 78 a0 05 	sdiv  %g2, 5, %i4
   1587c:	bb 2f 20 02 	sll  %i4, 2, %i5
   15880:	82 07 40 1c 	add  %i5, %i4, %g1
   15884:	84 20 80 01 	sub  %g2, %g1, %g2
   15888:	80 a0 a0 04 	cmp  %g2, 4
   1588c:	08 80 00 09 	bleu  158b0 <__GI_setstate_r+0x90>
   15890:	03 00 00 80 	sethi  %hi(0x20000), %g1
   15894:	03 00 00 00 	sethi  %hi(0), %g1
   15898:	82 18 7f f8 	xor  %g1, -8, %g1
   1589c:	ae 10 00 01 	mov  %g1, %l7
   158a0:	82 10 20 16 	mov  0x16, %g1
   158a4:	c2 21 c0 17 	st  %g1, [ %g7 + %l7 ]
   158a8:	81 c7 e0 08 	ret 
   158ac:	91 e8 3f ff 	restore  %g0, -1, %o0
   158b0:	82 18 7c 2c 	xor  %g1, -980, %g1
   158b4:	ae 05 c0 01 	add  %l7, %g1, %l7
   158b8:	82 00 a0 04 	add  %g2, 4, %g1
   158bc:	83 28 60 02 	sll  %g1, 2, %g1
   158c0:	82 05 c0 01 	add  %l7, %g1, %g1
   158c4:	c4 2e 60 0c 	stb  %g2, [ %i1 + 0xc ]
   158c8:	c8 00 60 04 	ld  [ %g1 + 4 ], %g4
   158cc:	83 28 a0 02 	sll  %g2, 2, %g1
   158d0:	c8 2e 60 0d 	stb  %g4, [ %i1 + 0xd ]
   158d4:	c2 05 c0 01 	ld  [ %l7 + %g1 ], %g1
   158d8:	80 a0 a0 00 	cmp  %g2, 0
   158dc:	02 80 00 10 	be  1591c <__GI_setstate_r+0xfc>
   158e0:	c2 2e 60 0e 	stb  %g1, [ %i1 + 0xe ]
   158e4:	ba 00 c0 1d 	add  %g3, %i5, %i5
   158e8:	82 00 40 1c 	add  %g1, %i4, %g1
   158ec:	fa 26 60 04 	st  %i5, [ %i1 + 4 ]
   158f0:	bb 38 60 1f 	sra  %g1, 0x1f, %i5
   158f4:	81 87 60 00 	wr  %i5, %y
   158f8:	01 00 00 00 	nop 
   158fc:	01 00 00 00 	nop 
   15900:	01 00 00 00 	nop 
   15904:	84 78 40 04 	sdiv  %g1, %g4, %g2
   15908:	84 58 80 04 	smul  %g2, %g4, %g2
   1590c:	82 20 40 02 	sub  %g1, %g2, %g1
   15910:	83 28 60 02 	sll  %g1, 2, %g1
   15914:	82 00 c0 01 	add  %g3, %g1, %g1
   15918:	c2 26 40 00 	st  %g1, [ %i1 ]
   1591c:	c6 26 60 08 	st  %g3, [ %i1 + 8 ]
   15920:	89 29 20 02 	sll  %g4, 2, %g4
   15924:	86 00 c0 04 	add  %g3, %g4, %g3
   15928:	c6 26 60 10 	st  %g3, [ %i1 + 0x10 ]
   1592c:	81 c7 e0 08 	ret 
   15930:	91 e8 20 00 	restore  %g0, 0, %o0

00015934 <__GI_atoi>:
   15934:	9d e3 bf a0 	save  %sp, -96, %sp
   15938:	b4 10 20 0a 	mov  0xa, %i2
   1593c:	10 80 00 02 	b  15944 <__GI_strtol>
   15940:	93 e8 20 00 	restore  %g0, 0, %o1

00015944 <__GI_strtol>:
   15944:	9d e3 bf a0 	save  %sp, -96, %sp
   15948:	10 80 00 02 	b  15950 <_stdlib_strto_l>
   1594c:	97 e8 20 01 	restore  %g0, 1, %o3

00015950 <_stdlib_strto_l>:
   15950:	9d e3 bf a0 	save  %sp, -96, %sp
   15954:	40 00 11 e7 	call  1a0f0 <__GI___curlocale>
   15958:	01 00 00 00 	nop 
   1595c:	10 80 00 02 	b  15964 <_stdlib_strto_l_l>
   15960:	99 e8 00 08 	restore  %g0, %o0, %o4

00015964 <_stdlib_strto_l_l>:
   15964:	9d e3 bf a0 	save  %sp, -96, %sp
   15968:	2f 00 00 a9 	sethi  %hi(0x2a400), %l7
   1596c:	7f ff eb ae 	call  10824 <__sparc_get_pc_thunk.l7>
   15970:	ae 05 e1 60 	add  %l7, 0x160, %l7	! 2a560 <__FRAME_END__+0x1e68>
   15974:	a0 10 00 18 	mov  %i0, %l0
   15978:	ba 10 00 18 	mov  %i0, %i5
   1597c:	92 10 00 1c 	mov  %i4, %o1
   15980:	40 00 11 d1 	call  1a0c4 <__GI_isspace_l>
   15984:	d0 0f 40 00 	ldub  [ %i5 ], %o0
   15988:	80 a2 20 00 	cmp  %o0, 0
   1598c:	32 bf ff fc 	bne,a   1597c <_stdlib_strto_l_l+0x18>
   15990:	ba 07 60 01 	inc  %i5
   15994:	c2 0f 40 00 	ldub  [ %i5 ], %g1
   15998:	80 a0 60 2b 	cmp  %g1, 0x2b
   1599c:	02 80 00 06 	be  159b4 <_stdlib_strto_l_l+0x50>
   159a0:	88 10 20 00 	clr  %g4
   159a4:	80 a0 60 2d 	cmp  %g1, 0x2d
   159a8:	12 80 00 05 	bne  159bc <_stdlib_strto_l_l+0x58>
   159ac:	80 8e bf ef 	btst  -17, %i2
   159b0:	88 10 20 01 	mov  1, %g4
   159b4:	ba 07 60 01 	inc  %i5
   159b8:	80 8e bf ef 	btst  -17, %i2
   159bc:	12 80 00 33 	bne  15a88 <_stdlib_strto_l_l+0x124>
   159c0:	82 06 bf fe 	add  %i2, -2, %g1
   159c4:	c2 0f 40 00 	ldub  [ %i5 ], %g1
   159c8:	80 a0 60 30 	cmp  %g1, 0x30
   159cc:	22 80 00 25 	be,a   15a60 <_stdlib_strto_l_l+0xfc>
   159d0:	c2 0f 60 01 	ldub  [ %i5 + 1 ], %g1
   159d4:	b4 06 a0 0a 	add  %i2, 0xa, %i2
   159d8:	80 a6 a0 10 	cmp  %i2, 0x10
   159dc:	34 80 00 02 	bg,a   159e4 <_stdlib_strto_l_l+0x80>
   159e0:	b4 10 20 10 	mov  0x10, %i2
   159e4:	84 10 3f ff 	mov  -1, %g2
   159e8:	9e 10 20 00 	clr  %o7
   159ec:	81 80 20 00 	wr  %g0, %y
   159f0:	01 00 00 00 	nop 
   159f4:	01 00 00 00 	nop 
   159f8:	01 00 00 00 	nop 
   159fc:	84 70 80 1a 	udiv  %g2, %i2, %g2
   15a00:	b0 10 20 00 	clr  %i0
   15a04:	86 58 80 1a 	smul  %g2, %i2, %g3
   15a08:	86 38 00 03 	xnor  %g0, %g3, %g3
   15a0c:	86 08 e0 ff 	and  %g3, 0xff, %g3
   15a10:	da 0f 40 00 	ldub  [ %i5 ], %o5
   15a14:	b8 03 7f d0 	add  %o5, -48, %i4
   15a18:	82 10 00 1c 	mov  %i4, %g1
   15a1c:	b8 0f 20 ff 	and  %i4, 0xff, %i4
   15a20:	80 a7 20 09 	cmp  %i4, 9
   15a24:	08 80 00 33 	bleu  15af0 <_stdlib_strto_l_l+0x18c>
   15a28:	82 08 60 ff 	and  %g1, 0xff, %g1
   15a2c:	82 13 60 20 	or  %o5, 0x20, %g1
   15a30:	b8 08 60 ff 	and  %g1, 0xff, %i4
   15a34:	80 a7 20 60 	cmp  %i4, 0x60
   15a38:	38 80 00 2d 	bgu,a   15aec <_stdlib_strto_l_l+0x188>
   15a3c:	82 00 7f a9 	add  %g1, -87, %g1
   15a40:	80 8b e0 01 	btst  1, %o7
   15a44:	02 80 00 14 	be  15a94 <_stdlib_strto_l_l+0x130>
   15a48:	05 00 00 00 	sethi  %hi(0), %g2
   15a4c:	82 10 20 22 	mov  0x22, %g1
   15a50:	84 18 bf f8 	xor  %g2, -8, %g2
   15a54:	01 00 00 00 	nop 
   15a58:	10 80 00 0f 	b  15a94 <_stdlib_strto_l_l+0x130>
   15a5c:	c2 21 c0 02 	st  %g1, [ %g7 + %g2 ]
   15a60:	a0 07 60 01 	add  %i5, 1, %l0
   15a64:	82 10 60 20 	or  %g1, 0x20, %g1
   15a68:	80 a0 60 78 	cmp  %g1, 0x78
   15a6c:	12 80 00 05 	bne  15a80 <_stdlib_strto_l_l+0x11c>
   15a70:	b4 06 a0 08 	add  %i2, 8, %i2
   15a74:	ba 07 60 02 	add  %i5, 2, %i5
   15a78:	10 bf ff d8 	b  159d8 <_stdlib_strto_l_l+0x74>
   15a7c:	b4 06 80 1a 	add  %i2, %i2, %i2
   15a80:	10 bf ff d6 	b  159d8 <_stdlib_strto_l_l+0x74>
   15a84:	ba 10 00 10 	mov  %l0, %i5
   15a88:	80 a0 60 22 	cmp  %g1, 0x22
   15a8c:	08 bf ff d6 	bleu  159e4 <_stdlib_strto_l_l+0x80>
   15a90:	b0 10 20 00 	clr  %i0
   15a94:	80 a6 60 00 	cmp  %i1, 0
   15a98:	32 80 00 02 	bne,a   15aa0 <_stdlib_strto_l_l+0x13c>
   15a9c:	e0 26 40 00 	st  %l0, [ %i1 ]
   15aa0:	82 09 20 ff 	and  %g4, 0xff, %g1
   15aa4:	05 1f ff ff 	sethi  %hi(0x7ffffc00), %g2
   15aa8:	80 a6 e0 00 	cmp  %i3, 0
   15aac:	84 10 a3 ff 	or  %g2, 0x3ff, %g2
   15ab0:	02 80 00 0a 	be  15ad8 <_stdlib_strto_l_l+0x174>
   15ab4:	84 00 40 02 	add  %g1, %g2, %g2
   15ab8:	80 a0 80 18 	cmp  %g2, %i0
   15abc:	1a 80 00 07 	bcc  15ad8 <_stdlib_strto_l_l+0x174>
   15ac0:	07 00 00 00 	sethi  %hi(0), %g3
   15ac4:	86 18 ff f8 	xor  %g3, -8, %g3
   15ac8:	b0 10 00 02 	mov  %g2, %i0
   15acc:	ae 10 00 03 	mov  %g3, %l7
   15ad0:	86 10 20 22 	mov  0x22, %g3
   15ad4:	c6 21 c0 17 	st  %g3, [ %g7 + %l7 ]
   15ad8:	80 a0 60 00 	cmp  %g1, 0
   15adc:	32 80 00 02 	bne,a   15ae4 <_stdlib_strto_l_l+0x180>
   15ae0:	b0 20 00 18 	neg  %i0
   15ae4:	81 c7 e0 08 	ret 
   15ae8:	81 e8 00 00 	restore 
   15aec:	82 08 60 ff 	and  %g1, 0xff, %g1
   15af0:	80 a0 40 1a 	cmp  %g1, %i2
   15af4:	16 bf ff d3 	bge  15a40 <_stdlib_strto_l_l+0xdc>
   15af8:	80 a6 00 02 	cmp  %i0, %g2
   15afc:	18 80 00 06 	bgu  15b14 <_stdlib_strto_l_l+0x1b0>
   15b00:	ba 07 60 01 	inc  %i5
   15b04:	12 80 00 09 	bne  15b28 <_stdlib_strto_l_l+0x1c4>
   15b08:	80 a0 c0 01 	cmp  %g3, %g1
   15b0c:	3a 80 00 08 	bcc,a   15b2c <_stdlib_strto_l_l+0x1c8>
   15b10:	b0 5e 80 18 	smul  %i2, %i0, %i0
   15b14:	88 0e c0 04 	and  %i3, %g4, %g4
   15b18:	9e 10 20 01 	mov  1, %o7
   15b1c:	b0 10 3f ff 	mov  -1, %i0
   15b20:	10 bf ff bc 	b  15a10 <_stdlib_strto_l_l+0xac>
   15b24:	a0 10 00 1d 	mov  %i5, %l0
   15b28:	b0 5e 80 18 	smul  %i2, %i0, %i0
   15b2c:	10 bf ff fd 	b  15b20 <_stdlib_strto_l_l+0x1bc>
   15b30:	b0 00 40 18 	add  %g1, %i0, %i0

00015b34 <__check_one_fd>:
   15b34:	9d e3 bf a0 	save  %sp, -96, %sp
   15b38:	92 10 20 01 	mov  1, %o1
   15b3c:	2f 00 00 a8 	sethi  %hi(0x2a000), %l7
   15b40:	7f ff eb 39 	call  10824 <__sparc_get_pc_thunk.l7>
   15b44:	ae 05 e3 8c 	add  %l7, 0x38c, %l7	! 2a38c <__FRAME_END__+0x1c94>
   15b48:	40 00 11 25 	call  19fdc <__GI_fcntl>
   15b4c:	90 10 00 18 	mov  %i0, %o0
   15b50:	80 a2 3f ff 	cmp  %o0, -1
   15b54:	12 80 00 0b 	bne  15b80 <__check_one_fd+0x4c>
   15b58:	92 10 00 19 	mov  %i1, %o1
   15b5c:	11 00 00 82 	sethi  %hi(0x20800), %o0
   15b60:	90 1a 3f 9c 	xor  %o0, -100, %o0
   15b64:	7f ff eb a0 	call  109e4 <__GI_open>
   15b68:	90 05 c0 08 	add  %l7, %o0, %o0
   15b6c:	80 a6 00 08 	cmp  %i0, %o0
   15b70:	02 80 00 04 	be  15b80 <__check_one_fd+0x4c>
   15b74:	01 00 00 00 	nop 
   15b78:	7f ff fd d3 	call  152c4 <__GI_abort>
   15b7c:	01 00 00 00 	nop 
   15b80:	81 c7 e0 08 	ret 
   15b84:	81 e8 00 00 	restore 

00015b88 <__pthread_mutex_lock>:
   15b88:	9d e3 bf a0 	save  %sp, -96, %sp
   15b8c:	81 c7 e0 08 	ret 
   15b90:	91 e8 20 00 	restore  %g0, 0, %o0

00015b94 <__pthread_mutex_init>:
   15b94:	9d e3 bf a0 	save  %sp, -96, %sp
   15b98:	81 c7 e0 08 	ret 
   15b9c:	91 e8 20 00 	restore  %g0, 0, %o0

00015ba0 <_pthread_cleanup_push_defer>:
   15ba0:	9d e3 bf a0 	save  %sp, -96, %sp
   15ba4:	f2 26 00 00 	st  %i1, [ %i0 ]
   15ba8:	f4 26 20 04 	st  %i2, [ %i0 + 4 ]
   15bac:	81 c7 e0 08 	ret 
   15bb0:	81 e8 00 00 	restore 

00015bb4 <_pthread_cleanup_pop_restore>:
   15bb4:	9d e3 bf a0 	save  %sp, -96, %sp
   15bb8:	80 a6 60 00 	cmp  %i1, 0
   15bbc:	02 80 00 05 	be  15bd0 <_pthread_cleanup_pop_restore+0x1c>
   15bc0:	01 00 00 00 	nop 
   15bc4:	c2 06 00 00 	ld  [ %i0 ], %g1
   15bc8:	9f c0 40 00 	call  %g1
   15bcc:	d0 06 20 04 	ld  [ %i0 + 4 ], %o0
   15bd0:	81 c7 e0 08 	ret 
   15bd4:	81 e8 00 00 	restore 

00015bd8 <__uClibc_init>:
   15bd8:	9d e3 bf a0 	save  %sp, -96, %sp
   15bdc:	2f 00 00 a8 	sethi  %hi(0x2a000), %l7
   15be0:	7f ff eb 11 	call  10824 <__sparc_get_pc_thunk.l7>
   15be4:	ae 05 e2 ec 	add  %l7, 0x2ec, %l7	! 2a2ec <__FRAME_END__+0x1bf4>
   15be8:	03 00 00 01 	sethi  %hi(0x400), %g1
   15bec:	82 18 60 04 	xor  %g1, 4, %g1
   15bf0:	82 05 c0 01 	add  %l7, %g1, %g1
   15bf4:	c4 00 40 00 	ld  [ %g1 ], %g2
   15bf8:	80 a0 a0 00 	cmp  %g2, 0
   15bfc:	12 80 00 18 	bne  15c5c <__uClibc_init+0x84>
   15c00:	05 00 00 04 	sethi  %hi(0x1000), %g2
   15c04:	92 10 20 10 	mov  0x10, %o1
   15c08:	90 10 24 50 	mov  0x450, %o0
   15c0c:	40 00 02 45 	call  16520 <__libc_setup_tls>
   15c10:	c4 20 40 00 	st  %g2, [ %g1 ]
   15c14:	40 00 02 f8 	call  167f4 <__pthread_initialize_minimal>
   15c18:	01 00 00 00 	nop 
   15c1c:	03 00 00 87 	sethi  %hi(0x21c00), %g1
   15c20:	82 18 7c cc 	xor  %g1, -820, %g1
   15c24:	82 05 c0 01 	add  %l7, %g1, %g1
   15c28:	80 a0 60 00 	cmp  %g1, 0
   15c2c:	02 80 00 05 	be  15c40 <__uClibc_init+0x68>
   15c30:	03 00 00 95 	sethi  %hi(0x25400), %g1
   15c34:	40 00 20 d9 	call  1df98 <_locale_init>
   15c38:	01 00 00 00 	nop 
   15c3c:	03 00 00 95 	sethi  %hi(0x25400), %g1
   15c40:	82 18 7d 80 	xor  %g1, -640, %g1
   15c44:	ae 05 c0 01 	add  %l7, %g1, %l7
   15c48:	80 a5 e0 00 	cmp  %l7, 0
   15c4c:	02 80 00 04 	be  15c5c <__uClibc_init+0x84>
   15c50:	01 00 00 00 	nop 
   15c54:	10 80 12 fe 	b  1a84c <_stdio_init>
   15c58:	81 e8 00 00 	restore 
   15c5c:	81 c7 e0 08 	ret 
   15c60:	81 e8 00 00 	restore 

00015c64 <__uClibc_fini>:
   15c64:	9d e3 bf a0 	save  %sp, -96, %sp
   15c68:	2f 00 00 a8 	sethi  %hi(0x2a000), %l7
   15c6c:	7f ff ea ee 	call  10824 <__sparc_get_pc_thunk.l7>
   15c70:	ae 05 e2 60 	add  %l7, 0x260, %l7	! 2a260 <__FRAME_END__+0x1b68>
   15c74:	3b 00 00 00 	sethi  %hi(0), %i5
   15c78:	03 00 00 00 	sethi  %hi(0), %g1
   15c7c:	ba 1f 7f b0 	xor  %i5, -80, %i5
   15c80:	82 18 7f b0 	xor  %g1, -80, %g1
   15c84:	ba 05 c0 1d 	add  %l7, %i5, %i5
   15c88:	b8 05 c0 01 	add  %l7, %g1, %i4
   15c8c:	ba 27 40 1c 	sub  %i5, %i4, %i5
   15c90:	bb 3f 60 02 	sra  %i5, 2, %i5
   15c94:	ba 07 7f ff 	add  %i5, -1, %i5
   15c98:	80 a7 7f ff 	cmp  %i5, -1
   15c9c:	12 80 00 16 	bne  15cf4 <__uClibc_fini+0x90>
   15ca0:	83 2f 60 02 	sll  %i5, 2, %g1
   15ca4:	03 00 00 01 	sethi  %hi(0x400), %g1
   15ca8:	82 18 60 00 	xor  %g1, 0, %g1
   15cac:	82 05 c0 01 	add  %l7, %g1, %g1
   15cb0:	c2 00 40 00 	ld  [ %g1 ], %g1
   15cb4:	80 a0 60 00 	cmp  %g1, 0
   15cb8:	22 80 00 05 	be,a   15ccc <__uClibc_fini+0x68>
   15cbc:	03 00 00 00 	sethi  %hi(0), %g1
   15cc0:	9f c0 40 00 	call  %g1
   15cc4:	01 00 00 00 	nop 
   15cc8:	03 00 00 00 	sethi  %hi(0), %g1
   15ccc:	82 18 63 fc 	xor  %g1, 0x3fc, %g1
   15cd0:	ae 05 c0 01 	add  %l7, %g1, %l7
   15cd4:	c2 05 c0 00 	ld  [ %l7 ], %g1
   15cd8:	80 a0 60 00 	cmp  %g1, 0
   15cdc:	02 80 00 04 	be  15cec <__uClibc_fini+0x88>
   15ce0:	01 00 00 00 	nop 
   15ce4:	9f c0 40 00 	call  %g1
   15ce8:	01 00 00 00 	nop 
   15cec:	81 c7 e0 08 	ret 
   15cf0:	81 e8 00 00 	restore 
   15cf4:	c2 07 00 01 	ld  [ %i4 + %g1 ], %g1
   15cf8:	9f c0 40 00 	call  %g1
   15cfc:	ba 07 7f ff 	add  %i5, -1, %i5
   15d00:	10 bf ff e7 	b  15c9c <__uClibc_fini+0x38>
   15d04:	80 a7 7f ff 	cmp  %i5, -1

00015d08 <__uClibc_main>:
   15d08:	9d e3 be f8 	save  %sp, -264, %sp
   15d0c:	2f 00 00 a8 	sethi  %hi(0x2a000), %l7
   15d10:	7f ff ea c5 	call  10824 <__sparc_get_pc_thunk.l7>
   15d14:	ae 05 e1 bc 	add  %l7, 0x1bc, %l7	! 2a1bc <__FRAME_END__+0x1ac4>
   15d18:	03 00 00 01 	sethi  %hi(0x400), %g1
   15d1c:	82 18 60 0c 	xor  %g1, 0xc, %g1
   15d20:	82 05 c0 01 	add  %l7, %g1, %g1
   15d24:	c4 07 a0 5c 	ld  [ %fp + 0x5c ], %g2
   15d28:	c4 20 40 00 	st  %g2, [ %g1 ]
   15d2c:	03 00 00 00 	sethi  %hi(0), %g1
   15d30:	82 18 63 fc 	xor  %g1, 0x3fc, %g1
   15d34:	82 05 c0 01 	add  %l7, %g1, %g1
   15d38:	05 00 00 01 	sethi  %hi(0x400), %g2
   15d3c:	fa 20 40 00 	st  %i5, [ %g1 ]
   15d40:	84 18 a0 08 	xor  %g2, 8, %g2
   15d44:	82 06 60 01 	add  %i1, 1, %g1
   15d48:	84 05 c0 02 	add  %l7, %g2, %g2
   15d4c:	83 28 60 02 	sll  %g1, 2, %g1
   15d50:	ee 27 bf 64 	st  %l7, [ %fp + -156 ]
   15d54:	86 06 80 01 	add  %i2, %g1, %g3
   15d58:	f0 27 bf 58 	st  %i0, [ %fp + -168 ]
   15d5c:	f2 27 bf 5c 	st  %i1, [ %fp + -164 ]
   15d60:	f4 27 bf 60 	st  %i2, [ %fp + -160 ]
   15d64:	c6 20 80 00 	st  %g3, [ %g2 ]
   15d68:	c8 06 80 00 	ld  [ %i2 ], %g4
   15d6c:	80 a0 c0 04 	cmp  %g3, %g4
   15d70:	12 80 00 05 	bne  15d84 <__uClibc_main+0x7c>
   15d74:	94 10 20 78 	mov  0x78, %o2
   15d78:	82 00 7f fc 	add  %g1, -4, %g1
   15d7c:	82 06 80 01 	add  %i2, %g1, %g1
   15d80:	c2 20 80 00 	st  %g1, [ %g2 ]
   15d84:	92 10 20 00 	clr  %o1
   15d88:	7f ff f7 d5 	call  13cdc <__GI_memset>
   15d8c:	90 07 bf 88 	add  %fp, -120, %o0
   15d90:	03 00 00 01 	sethi  %hi(0x400), %g1
   15d94:	c4 07 bf 64 	ld  [ %fp + -156 ], %g2
   15d98:	82 18 60 08 	xor  %g1, 8, %g1
   15d9c:	82 00 80 01 	add  %g2, %g1, %g1
   15da0:	f4 00 40 00 	ld  [ %g1 ], %i2
   15da4:	c2 06 80 00 	ld  [ %i2 ], %g1
   15da8:	80 a0 60 00 	cmp  %g1, 0
   15dac:	12 bf ff fe 	bne  15da4 <__uClibc_main+0x9c>
   15db0:	b4 06 a0 04 	add  %i2, 4, %i2
   15db4:	b2 07 bf 88 	add  %fp, -120, %i1
   15db8:	fa 06 80 00 	ld  [ %i2 ], %i5
   15dbc:	80 a7 60 00 	cmp  %i5, 0
   15dc0:	12 80 00 19 	bne  15e24 <__uClibc_main+0x11c>
   15dc4:	80 a7 60 0e 	cmp  %i5, 0xe
   15dc8:	40 00 02 a3 	call  16854 <_dl_aux_init>
   15dcc:	90 07 bf 88 	add  %fp, -120, %o0
   15dd0:	7f ff ff 82 	call  15bd8 <__uClibc_init>
   15dd4:	01 00 00 00 	nop 
   15dd8:	c4 07 bf 64 	ld  [ %fp + -156 ], %g2
   15ddc:	03 00 00 01 	sethi  %hi(0x400), %g1
   15de0:	c6 07 bf 64 	ld  [ %fp + -156 ], %g3
   15de4:	82 18 60 04 	xor  %g1, 4, %g1
   15de8:	82 00 80 01 	add  %g2, %g1, %g1
   15dec:	05 00 00 00 	sethi  %hi(0), %g2
   15df0:	84 18 a2 48 	xor  %g2, 0x248, %g2
   15df4:	84 00 c0 02 	add  %g3, %g2, %g2
   15df8:	c4 00 80 00 	ld  [ %g2 ], %g2
   15dfc:	c4 20 40 00 	st  %g2, [ %g1 ]
   15e00:	c2 07 bf e4 	ld  [ %fp + -28 ], %g1
   15e04:	80 a0 7f ff 	cmp  %g1, -1
   15e08:	02 80 00 11 	be  15e4c <__uClibc_main+0x144>
   15e0c:	01 00 00 00 	nop 
   15e10:	80 a0 7f ff 	cmp  %g1, -1
   15e14:	32 80 00 8f 	bne,a   16050 <__uClibc_main+0x348>
   15e18:	c4 07 bf ec 	ld  [ %fp + -20 ], %g2
   15e1c:	10 80 00 1d 	b  15e90 <__uClibc_main+0x188>
   15e20:	84 10 20 00 	clr  %g2
   15e24:	08 80 00 04 	bleu  15e34 <__uClibc_main+0x12c>
   15e28:	bb 2f 60 03 	sll  %i5, 3, %i5
   15e2c:	10 bf ff e3 	b  15db8 <__uClibc_main+0xb0>
   15e30:	b4 06 a0 08 	add  %i2, 8, %i2
   15e34:	94 10 20 08 	mov  8, %o2
   15e38:	92 10 00 1a 	mov  %i2, %o1
   15e3c:	7f ff f3 7e 	call  12c34 <__GI_memcpy>
   15e40:	90 06 40 1d 	add  %i1, %i5, %o0
   15e44:	10 bf ff dd 	b  15db8 <__uClibc_main+0xb0>
   15e48:	b4 06 a0 08 	add  %i2, 8, %i2
   15e4c:	40 00 0f fb 	call  19e38 <__GI_getuid>
   15e50:	01 00 00 00 	nop 
   15e54:	40 00 0f df 	call  19dd0 <__GI_geteuid>
   15e58:	b4 10 00 08 	mov  %o0, %i2
   15e5c:	80 a6 80 08 	cmp  %i2, %o0
   15e60:	02 80 00 73 	be  1602c <__uClibc_main+0x324>
   15e64:	13 00 00 80 	sethi  %hi(0x20000), %o1
   15e68:	7f ff ff 33 	call  15b34 <__check_one_fd>
   15e6c:	90 10 20 00 	clr  %o0
   15e70:	35 00 00 80 	sethi  %hi(0x20000), %i2
   15e74:	90 10 20 01 	mov  1, %o0
   15e78:	7f ff ff 2f 	call  15b34 <__check_one_fd>
   15e7c:	92 16 a0 02 	or  %i2, 2, %o1
   15e80:	92 16 a0 02 	or  %i2, 2, %o1
   15e84:	7f ff ff 2c 	call  15b34 <__check_one_fd>
   15e88:	90 10 20 02 	mov  2, %o0
   15e8c:	84 10 20 01 	mov  1, %g2
   15e90:	c6 07 bf 64 	ld  [ %fp + -156 ], %g3
   15e94:	03 00 00 01 	sethi  %hi(0x400), %g1
   15e98:	82 18 60 10 	xor  %g1, 0x10, %g1
   15e9c:	82 00 c0 01 	add  %g3, %g1, %g1
   15ea0:	c4 20 40 00 	st  %g2, [ %g1 ]
   15ea4:	c2 07 bf 60 	ld  [ %fp + -160 ], %g1
   15ea8:	c4 00 40 00 	ld  [ %g1 ], %g2
   15eac:	03 00 00 00 	sethi  %hi(0), %g1
   15eb0:	82 18 62 3c 	xor  %g1, 0x23c, %g1
   15eb4:	82 00 c0 01 	add  %g3, %g1, %g1
   15eb8:	80 a0 a0 00 	cmp  %g2, 0
   15ebc:	02 80 00 13 	be  15f08 <__uClibc_main+0x200>
   15ec0:	c4 20 40 00 	st  %g2, [ %g1 ]
   15ec4:	03 00 00 00 	sethi  %hi(0), %g1
   15ec8:	82 18 62 34 	xor  %g1, 0x234, %g1
   15ecc:	82 00 c0 01 	add  %g3, %g1, %g1
   15ed0:	c4 20 40 00 	st  %g2, [ %g1 ]
   15ed4:	c2 07 bf 60 	ld  [ %fp + -160 ], %g1
   15ed8:	92 10 20 2f 	mov  0x2f, %o1
   15edc:	40 00 18 e0 	call  1c25c <__GI_strrchr>
   15ee0:	d0 00 40 00 	ld  [ %g1 ], %o0
   15ee4:	03 00 00 00 	sethi  %hi(0), %g1
   15ee8:	c4 07 bf 64 	ld  [ %fp + -156 ], %g2
   15eec:	82 18 62 38 	xor  %g1, 0x238, %g1
   15ef0:	82 00 80 01 	add  %g2, %g1, %g1
   15ef4:	80 a2 20 00 	cmp  %o0, 0
   15ef8:	02 80 00 60 	be  16078 <__uClibc_main+0x370>
   15efc:	d0 20 40 00 	st  %o0, [ %g1 ]
   15f00:	90 02 20 01 	inc  %o0
   15f04:	d0 20 40 00 	st  %o0, [ %g1 ]
   15f08:	c4 07 bf 64 	ld  [ %fp + -156 ], %g2
   15f0c:	03 00 00 01 	sethi  %hi(0x400), %g1
   15f10:	82 18 60 00 	xor  %g1, 0, %g1
   15f14:	82 00 80 01 	add  %g2, %g1, %g1
   15f18:	f8 20 40 00 	st  %i4, [ %g1 ]
   15f1c:	03 00 00 00 	sethi  %hi(0), %g1
   15f20:	82 18 7f b0 	xor  %g1, -80, %g1
   15f24:	b4 10 00 1d 	mov  %i5, %i2
   15f28:	b8 00 80 01 	add  %g2, %g1, %i4
   15f2c:	03 00 00 00 	sethi  %hi(0), %g1
   15f30:	82 18 7f b0 	xor  %g1, -80, %g1
   15f34:	82 00 80 01 	add  %g2, %g1, %g1
   15f38:	b8 27 00 01 	sub  %i4, %g1, %i4
   15f3c:	b9 3f 20 02 	sra  %i4, 2, %i4
   15f40:	80 a6 80 1c 	cmp  %i2, %i4
   15f44:	12 80 00 51 	bne  16088 <__uClibc_main+0x380>
   15f48:	85 2e a0 02 	sll  %i2, 2, %g2
   15f4c:	80 a6 e0 00 	cmp  %i3, 0
   15f50:	12 80 00 57 	bne  160ac <__uClibc_main+0x3a4>
   15f54:	01 00 00 00 	nop 
   15f58:	03 00 00 00 	sethi  %hi(0), %g1
   15f5c:	82 18 7f b0 	xor  %g1, -80, %g1
   15f60:	c4 07 bf 64 	ld  [ %fp + -156 ], %g2
   15f64:	b8 00 80 01 	add  %g2, %g1, %i4
   15f68:	03 00 00 00 	sethi  %hi(0), %g1
   15f6c:	82 18 7f b0 	xor  %g1, -80, %g1
   15f70:	82 00 80 01 	add  %g2, %g1, %g1
   15f74:	b8 27 00 01 	sub  %i4, %g1, %i4
   15f78:	b9 3f 20 02 	sra  %i4, 2, %i4
   15f7c:	80 a7 40 1c 	cmp  %i5, %i4
   15f80:	12 80 00 4f 	bne  160bc <__uClibc_main+0x3b4>
   15f84:	85 2f 60 02 	sll  %i5, 2, %g2
   15f88:	03 00 00 bc 	sethi  %hi(0x2f000), %g1
   15f8c:	c4 07 bf 64 	ld  [ %fp + -156 ], %g2
   15f90:	82 18 7c b0 	xor  %g1, -848, %g1
   15f94:	82 00 80 01 	add  %g2, %g1, %g1
   15f98:	80 a0 60 00 	cmp  %g1, 0
   15f9c:	02 80 00 07 	be  15fb8 <__uClibc_main+0x2b0>
   15fa0:	03 00 00 99 	sethi  %hi(0x26400), %g1
   15fa4:	7f ff ea f6 	call  10b7c <__errno_location>
   15fa8:	01 00 00 00 	nop 
   15fac:	c0 22 00 00 	clr  [ %o0 ]
   15fb0:	03 00 00 99 	sethi  %hi(0x26400), %g1
   15fb4:	c4 07 bf 64 	ld  [ %fp + -156 ], %g2
   15fb8:	82 18 7f d4 	xor  %g1, -44, %g1
   15fbc:	82 00 80 01 	add  %g2, %g1, %g1
   15fc0:	80 a0 60 00 	cmp  %g1, 0
   15fc4:	02 80 00 05 	be  15fd8 <__uClibc_main+0x2d0>
   15fc8:	01 00 00 00 	nop 
   15fcc:	40 00 0e b5 	call  19aa0 <__h_errno_location>
   15fd0:	01 00 00 00 	nop 
   15fd4:	c0 22 00 00 	clr  [ %o0 ]
   15fd8:	40 00 0f 51 	call  19d1c <_setjmp>
   15fdc:	90 07 bf 68 	add  %fp, -152, %o0
   15fe0:	80 a2 20 00 	cmp  %o0, 0
   15fe4:	12 80 00 3f 	bne  160e0 <__uClibc_main+0x3d8>
   15fe8:	03 00 00 01 	sethi  %hi(0x400), %g1
   15fec:	c4 01 e0 7c 	ld  [ %g7 + 0x7c ], %g2
   15ff0:	c4 27 bf 78 	st  %g2, [ %fp + -136 ]
   15ff4:	c4 01 e0 78 	ld  [ %g7 + 0x78 ], %g2
   15ff8:	c4 27 bf 7c 	st  %g2, [ %fp + -132 ]
   15ffc:	84 07 bf 68 	add  %fp, -152, %g2
   16000:	c4 21 e0 7c 	st  %g2, [ %g7 + 0x7c ]
   16004:	82 18 60 08 	xor  %g1, 8, %g1
   16008:	c4 07 bf 64 	ld  [ %fp + -156 ], %g2
   1600c:	82 00 80 01 	add  %g2, %g1, %g1
   16010:	d2 07 bf 60 	ld  [ %fp + -160 ], %o1
   16014:	d4 00 40 00 	ld  [ %g1 ], %o2
   16018:	c2 07 bf 58 	ld  [ %fp + -168 ], %g1
   1601c:	9f c0 40 00 	call  %g1
   16020:	d0 07 bf 5c 	ld  [ %fp + -164 ], %o0
   16024:	40 00 1b c4 	call  1cf34 <__GI_exit>
   16028:	01 00 00 00 	nop 
   1602c:	40 00 0f 71 	call  19df0 <__GI_getgid>
   16030:	01 00 00 00 	nop 
   16034:	40 00 0f 5f 	call  19db0 <__GI_getegid>
   16038:	b4 10 00 08 	mov  %o0, %i2
   1603c:	80 a6 80 08 	cmp  %i2, %o0
   16040:	12 bf ff 8a 	bne  15e68 <__uClibc_main+0x160>
   16044:	13 00 00 80 	sethi  %hi(0x20000), %o1
   16048:	10 bf ff 72 	b  15e10 <__uClibc_main+0x108>
   1604c:	c2 07 bf e4 	ld  [ %fp + -28 ], %g1
   16050:	80 a0 40 02 	cmp  %g1, %g2
   16054:	12 bf ff 85 	bne  15e68 <__uClibc_main+0x160>
   16058:	13 00 00 80 	sethi  %hi(0x20000), %o1
   1605c:	c4 07 bf f4 	ld  [ %fp + -12 ], %g2
   16060:	c2 07 bf fc 	ld  [ %fp + -4 ], %g1
   16064:	80 a0 80 01 	cmp  %g2, %g1
   16068:	12 bf ff 80 	bne  15e68 <__uClibc_main+0x160>
   1606c:	84 10 20 00 	clr  %g2
   16070:	10 bf ff 89 	b  15e94 <__uClibc_main+0x18c>
   16074:	c6 07 bf 64 	ld  [ %fp + -156 ], %g3
   16078:	c4 07 bf 60 	ld  [ %fp + -160 ], %g2
   1607c:	c4 00 80 00 	ld  [ %g2 ], %g2
   16080:	10 bf ff a2 	b  15f08 <__uClibc_main+0x200>
   16084:	c4 20 40 00 	st  %g2, [ %g1 ]
   16088:	c6 07 bf 64 	ld  [ %fp + -156 ], %g3
   1608c:	03 00 00 00 	sethi  %hi(0), %g1
   16090:	82 18 7f b0 	xor  %g1, -80, %g1
   16094:	82 00 c0 01 	add  %g3, %g1, %g1
   16098:	c2 00 40 02 	ld  [ %g1 + %g2 ], %g1
   1609c:	9f c0 40 00 	call  %g1
   160a0:	b4 06 a0 01 	inc  %i2
   160a4:	10 bf ff a8 	b  15f44 <__uClibc_main+0x23c>
   160a8:	80 a6 80 1c 	cmp  %i2, %i4
   160ac:	9f c6 c0 00 	call  %i3
   160b0:	01 00 00 00 	nop 
   160b4:	10 bf ff aa 	b  15f5c <__uClibc_main+0x254>
   160b8:	03 00 00 00 	sethi  %hi(0), %g1
   160bc:	c6 07 bf 64 	ld  [ %fp + -156 ], %g3
   160c0:	03 00 00 00 	sethi  %hi(0), %g1
   160c4:	82 18 7f b0 	xor  %g1, -80, %g1
   160c8:	82 00 c0 01 	add  %g3, %g1, %g1
   160cc:	c2 00 40 02 	ld  [ %g1 + %g2 ], %g1
   160d0:	9f c0 40 00 	call  %g1
   160d4:	ba 07 60 01 	inc  %i5
   160d8:	10 bf ff aa 	b  15f80 <__uClibc_main+0x278>
   160dc:	80 a7 40 1c 	cmp  %i5, %i4
   160e0:	7f ff a7 c8 	call  0 <errno>
   160e4:	01 00 00 00 	nop 
   160e8:	03 00 00 00 	sethi  %hi(0), %g1
   160ec:	c4 07 bf 64 	ld  [ %fp + -156 ], %g2
   160f0:	82 18 60 bc 	xor  %g1, 0xbc, %g1
   160f4:	c2 00 80 01 	ld  [ %g2 + %g1 ], %g1
   160f8:	80 a0 60 00 	cmp  %g1, 0
   160fc:	02 80 00 35 	be  161d0 <__uClibc_main+0x4c8>
   16100:	85 38 60 02 	sra  %g1, 2, %g2
   16104:	ba 10 20 01 	mov  1, %i5
   16108:	83 38 60 0c 	sra  %g1, 0xc, %g1
   1610c:	82 18 80 01 	xor  %g2, %g1, %g1
   16110:	82 08 60 3f 	and  %g1, 0x3f, %g1
   16114:	c6 07 bf 64 	ld  [ %fp + -156 ], %g3
   16118:	05 00 00 00 	sethi  %hi(0), %g2
   1611c:	84 18 a0 bc 	xor  %g2, 0xbc, %g2
   16120:	c4 00 c0 02 	ld  [ %g3 + %g2 ], %g2
   16124:	c6 00 80 00 	ld  [ %g2 ], %g3
   16128:	c8 07 bf 64 	ld  [ %fp + -156 ], %g4
   1612c:	05 00 00 00 	sethi  %hi(0), %g2
   16130:	84 18 a3 ac 	xor  %g2, 0x3ac, %g2
   16134:	84 01 00 02 	add  %g4, %g2, %g2
   16138:	c8 68 80 01 	ldstub  [ %g2 + %g1 ], %g4
   1613c:	80 a1 20 00 	cmp  %g4, 0
   16140:	12 bf ff fb 	bne  1612c <__uClibc_main+0x424>
   16144:	c8 07 bf 64 	ld  [ %fp + -156 ], %g4
   16148:	05 00 00 00 	sethi  %hi(0), %g2
   1614c:	84 18 a0 bc 	xor  %g2, 0xbc, %g2
   16150:	c4 01 00 02 	ld  [ %g4 + %g2 ], %g2
   16154:	f8 00 80 00 	ld  [ %g2 ], %i4
   16158:	80 a7 00 03 	cmp  %i4, %g3
   1615c:	12 80 00 05 	bne  16170 <__uClibc_main+0x468>
   16160:	88 10 00 1d 	mov  %i5, %g4
   16164:	88 00 ff ff 	add  %g3, -1, %g4
   16168:	c8 20 80 00 	st  %g4, [ %g2 ]
   1616c:	88 10 20 00 	clr  %g4
   16170:	f8 07 bf 64 	ld  [ %fp + -156 ], %i4
   16174:	05 00 00 00 	sethi  %hi(0), %g2
   16178:	84 18 a3 ac 	xor  %g2, 0x3ac, %g2
   1617c:	84 07 00 02 	add  %i4, %g2, %g2
   16180:	c0 28 80 01 	clrb  [ %g2 + %g1 ]
   16184:	80 a1 20 00 	cmp  %g4, 0
   16188:	12 bf ff e3 	bne  16114 <__uClibc_main+0x40c>
   1618c:	80 a0 e0 01 	cmp  %g3, 1
   16190:	02 80 00 10 	be  161d0 <__uClibc_main+0x4c8>
   16194:	82 10 20 01 	mov  1, %g1
   16198:	90 10 20 00 	clr  %o0
   1619c:	91 d0 20 10 	ta  0x10
   161a0:	1a 80 00 03 	bcc  161ac <__uClibc_main+0x4a4>
   161a4:	82 10 00 08 	mov  %o0, %g1
   161a8:	82 20 00 08 	neg  %o0, %g1
   161ac:	80 a0 70 00 	cmp  %g1, -4096
   161b0:	28 bf ff 9d 	bleu,a   16024 <__uClibc_main+0x31c>
   161b4:	90 10 20 00 	clr  %o0
   161b8:	05 00 00 00 	sethi  %hi(0), %g2
   161bc:	c6 07 bf 64 	ld  [ %fp + -156 ], %g3
   161c0:	84 18 bf f8 	xor  %g2, -8, %g2
   161c4:	82 20 00 01 	neg  %g1
   161c8:	01 00 00 00 	nop 
   161cc:	c2 21 c0 02 	st  %g1, [ %g7 + %g2 ]
   161d0:	10 bf ff 95 	b  16024 <__uClibc_main+0x31c>
   161d4:	90 10 20 00 	clr  %o0

000161d8 <__lll_lock_wait_private>:
   161d8:	9d e3 bf a0 	save  %sp, -96, %sp
   161dc:	05 00 3f ff 	sethi  %hi(0xfffc00), %g2
   161e0:	84 10 a3 ff 	or  %g2, 0x3ff, %g2	! ffffff <_end+0xfbc85f>
   161e4:	c2 6e 00 00 	ldstub  [ %i0 ], %g1
   161e8:	80 a0 60 00 	cmp  %g1, 0
   161ec:	12 bf ff fe 	bne  161e4 <__lll_lock_wait_private+0xc>
   161f0:	01 00 00 00 	nop 
   161f4:	c2 06 00 00 	ld  [ %i0 ], %g1
   161f8:	82 08 40 02 	and  %g1, %g2, %g1
   161fc:	80 a0 60 01 	cmp  %g1, 1
   16200:	32 80 00 0e 	bne,a   16238 <__lll_lock_wait_private+0x60>
   16204:	c0 2e 00 00 	clrb  [ %i0 ]
   16208:	82 10 20 02 	mov  2, %g1
   1620c:	c2 26 00 00 	st  %g1, [ %i0 ]
   16210:	82 10 20 8e 	mov  0x8e, %g1
   16214:	96 10 20 00 	clr  %o3
   16218:	94 10 20 02 	mov  2, %o2
   1621c:	92 10 20 80 	mov  0x80, %o1
   16220:	90 10 00 18 	mov  %i0, %o0
   16224:	91 d0 20 10 	ta  0x10
   16228:	1a 80 00 03 	bcc  16234 <__lll_lock_wait_private+0x5c>
   1622c:	82 10 00 08 	mov  %o0, %g1
   16230:	82 20 00 08 	neg  %o0, %g1
   16234:	30 80 00 04 	b,a   16244 <__lll_lock_wait_private+0x6c>
   16238:	80 a0 60 00 	cmp  %g1, 0
   1623c:	12 bf ff f6 	bne  16214 <__lll_lock_wait_private+0x3c>
   16240:	82 10 20 8e 	mov  0x8e, %g1
   16244:	c2 6e 00 00 	ldstub  [ %i0 ], %g1
   16248:	80 a0 60 00 	cmp  %g1, 0
   1624c:	12 bf ff fe 	bne  16244 <__lll_lock_wait_private+0x6c>
   16250:	01 00 00 00 	nop 
   16254:	c2 06 00 00 	ld  [ %i0 ], %g1
   16258:	80 88 40 02 	btst  %g1, %g2
   1625c:	32 80 00 06 	bne,a   16274 <__lll_lock_wait_private+0x9c>
   16260:	c0 2e 00 00 	clrb  [ %i0 ]
   16264:	82 10 20 02 	mov  2, %g1
   16268:	c2 26 00 00 	st  %g1, [ %i0 ]
   1626c:	81 c7 e0 08 	ret 
   16270:	81 e8 00 00 	restore 
   16274:	30 bf ff dc 	b,a   161e4 <__lll_lock_wait_private+0xc>

00016278 <__GI_getpid>:
   16278:	9d e3 bf a0 	save  %sp, -96, %sp
   1627c:	82 10 20 14 	mov  0x14, %g1
   16280:	91 d0 20 10 	ta  0x10
   16284:	1a 80 00 03 	bcc  16290 <__GI_getpid+0x18>
   16288:	b0 10 00 08 	mov  %o0, %i0
   1628c:	b0 20 00 08 	neg  %o0, %i0
   16290:	81 c7 e0 08 	ret 
   16294:	81 e8 00 00 	restore 

00016298 <__GI_raise>:
   16298:	9d e3 bf 90 	save  %sp, -112, %sp
   1629c:	03 1f ff ff 	sethi  %hi(0x7ffffc00), %g1
   162a0:	82 10 63 ff 	or  %g1, 0x3ff, %g1	! 7fffffff <_end+0x7ffbc85f>
   162a4:	c2 27 bf f8 	st  %g1, [ %fp + -8 ]
   162a8:	82 10 3f fe 	mov  -2, %g1
   162ac:	84 07 bf f0 	add  %fp, -16, %g2
   162b0:	c2 27 bf fc 	st  %g1, [ %fp + -4 ]
   162b4:	2f 00 00 a7 	sethi  %hi(0x29c00), %l7
   162b8:	7f ff e9 5b 	call  10824 <__sparc_get_pc_thunk.l7>
   162bc:	ae 05 e0 14 	add  %l7, 0x14, %l7	! 29c14 <__FRAME_END__+0x151c>
   162c0:	82 10 20 67 	mov  0x67, %g1
   162c4:	96 10 20 08 	mov  8, %o3
   162c8:	94 10 00 02 	mov  %g2, %o2
   162cc:	92 07 bf f8 	add  %fp, -8, %o1
   162d0:	90 10 20 01 	mov  1, %o0
   162d4:	91 d0 20 10 	ta  0x10
   162d8:	1a 80 00 03 	bcc  162e4 <__GI_raise+0x4c>
   162dc:	82 10 00 08 	mov  %o0, %g1
   162e0:	82 20 00 08 	neg  %o0, %g1
   162e4:	82 10 20 14 	mov  0x14, %g1
   162e8:	91 d0 20 10 	ta  0x10
   162ec:	1a 80 00 03 	bcc  162f8 <__GI_raise+0x60>
   162f0:	86 10 00 08 	mov  %o0, %g3
   162f4:	86 20 00 08 	neg  %o0, %g3
   162f8:	82 10 20 8f 	mov  0x8f, %g1
   162fc:	91 d0 20 10 	ta  0x10
   16300:	1a 80 00 03 	bcc  1630c <__GI_raise+0x74>
   16304:	92 10 00 08 	mov  %o0, %o1
   16308:	92 20 00 08 	neg  %o0, %o1
   1630c:	82 10 20 d3 	mov  0xd3, %g1
   16310:	94 10 00 18 	mov  %i0, %o2
   16314:	90 10 00 03 	mov  %g3, %o0
   16318:	91 d0 20 10 	ta  0x10
   1631c:	1a 80 00 03 	bcc  16328 <__GI_raise+0x90>
   16320:	b0 10 00 08 	mov  %o0, %i0
   16324:	b0 20 00 08 	neg  %o0, %i0
   16328:	80 a6 30 00 	cmp  %i0, -4096
   1632c:	08 80 00 09 	bleu  16350 <__GI_raise+0xb8>
   16330:	82 10 20 67 	mov  0x67, %g1
   16334:	b0 20 00 18 	neg  %i0
   16338:	03 00 00 00 	sethi  %hi(0), %g1
   1633c:	82 18 7f f8 	xor  %g1, -8, %g1
   16340:	ae 10 00 01 	mov  %g1, %l7
   16344:	f0 21 c0 17 	st  %i0, [ %g7 + %l7 ]
   16348:	b0 10 3f ff 	mov  -1, %i0
   1634c:	82 10 20 67 	mov  0x67, %g1
   16350:	96 10 20 08 	mov  8, %o3
   16354:	94 10 20 00 	clr  %o2
   16358:	92 10 00 02 	mov  %g2, %o1
   1635c:	90 10 20 04 	mov  4, %o0
   16360:	91 d0 20 10 	ta  0x10
   16364:	1a 80 00 03 	bcc  16370 <__GI_raise+0xd8>
   16368:	82 10 00 08 	mov  %o0, %g1
   1636c:	82 20 00 08 	neg  %o0, %g1
   16370:	81 c7 e0 08 	ret 
   16374:	81 e8 00 00 	restore 

00016378 <__libc_enable_asynccancel>:
   16378:	9d e3 bf a0 	save  %sp, -96, %sp
   1637c:	2f 00 00 a6 	sethi  %hi(0x29800), %l7
   16380:	7f ff e9 29 	call  10824 <__sparc_get_pc_thunk.l7>
   16384:	ae 05 e3 4c 	add  %l7, 0x34c, %l7	! 29b4c <__FRAME_END__+0x1454>
   16388:	82 01 e0 80 	add  %g7, 0x80, %g1
   1638c:	86 10 00 07 	mov  %g7, %g3
   16390:	85 38 60 02 	sra  %g1, 2, %g2
   16394:	f0 01 e0 80 	ld  [ %g7 + 0x80 ], %i0
   16398:	83 38 60 0c 	sra  %g1, 0xc, %g1
   1639c:	84 18 80 01 	xor  %g2, %g1, %g2
   163a0:	84 08 a0 3f 	and  %g2, 0x3f, %g2
   163a4:	ba 16 20 02 	or  %i0, 2, %i5
   163a8:	80 a6 00 1d 	cmp  %i0, %i5
   163ac:	02 80 00 2e 	be  16464 <__libc_enable_asynccancel+0xec>
   163b0:	03 00 00 00 	sethi  %hi(0), %g1
   163b4:	82 18 63 ac 	xor  %g1, 0x3ac, %g1
   163b8:	82 05 c0 01 	add  %l7, %g1, %g1
   163bc:	c8 68 40 02 	ldstub  [ %g1 + %g2 ], %g4
   163c0:	80 a1 20 00 	cmp  %g4, 0
   163c4:	32 bf ff fc 	bne,a   163b4 <__libc_enable_asynccancel+0x3c>
   163c8:	03 00 00 00 	sethi  %hi(0), %g1
   163cc:	c8 00 e0 80 	ld  [ %g3 + 0x80 ], %g4
   163d0:	80 a6 00 04 	cmp  %i0, %g4
   163d4:	22 80 00 02 	be,a   163dc <__libc_enable_asynccancel+0x64>
   163d8:	fa 20 e0 80 	st  %i5, [ %g3 + 0x80 ]
   163dc:	c0 28 40 02 	clrb  [ %g1 + %g2 ]
   163e0:	80 a6 00 04 	cmp  %i0, %g4
   163e4:	32 bf ff f0 	bne,a   163a4 <__libc_enable_asynccancel+0x2c>
   163e8:	b0 10 00 04 	mov  %g4, %i0
   163ec:	84 0e 3f bb 	and  %i0, -69, %g2
   163f0:	84 10 a0 02 	or  %g2, 2, %g2
   163f4:	80 a0 a0 0a 	cmp  %g2, 0xa
   163f8:	12 80 00 1b 	bne  16464 <__libc_enable_asynccancel+0xec>
   163fc:	84 10 3f ff 	mov  -1, %g2
   16400:	88 01 e0 80 	add  %g7, 0x80, %g4
   16404:	c4 20 e2 1c 	st  %g2, [ %g3 + 0x21c ]
   16408:	85 39 20 02 	sra  %g4, 2, %g2
   1640c:	86 10 00 07 	mov  %g7, %g3
   16410:	89 39 20 0c 	sra  %g4, 0xc, %g4
   16414:	84 18 80 04 	xor  %g2, %g4, %g2
   16418:	84 08 a0 3f 	and  %g2, 0x3f, %g2
   1641c:	c8 00 e0 80 	ld  [ %g3 + 0x80 ], %g4
   16420:	fa 68 40 02 	ldstub  [ %g1 + %g2 ], %i5
   16424:	80 a7 60 00 	cmp  %i5, 0
   16428:	12 bf ff fe 	bne  16420 <__libc_enable_asynccancel+0xa8>
   1642c:	01 00 00 00 	nop 
   16430:	f8 00 e0 80 	ld  [ %g3 + 0x80 ], %i4
   16434:	80 a1 00 1c 	cmp  %g4, %i4
   16438:	12 80 00 05 	bne  1644c <__libc_enable_asynccancel+0xd4>
   1643c:	ba 10 20 01 	mov  1, %i5
   16440:	88 11 20 10 	or  %g4, 0x10, %g4
   16444:	ba 10 20 00 	clr  %i5
   16448:	c8 20 e0 80 	st  %g4, [ %g3 + 0x80 ]
   1644c:	c0 28 40 02 	clrb  [ %g1 + %g2 ]
   16450:	80 a7 60 00 	cmp  %i5, 0
   16454:	32 bf ff f3 	bne,a   16420 <__libc_enable_asynccancel+0xa8>
   16458:	c8 00 e0 80 	ld  [ %g3 + 0x80 ], %g4
   1645c:	7f ff a6 e9 	call  0 <errno>
   16460:	d0 00 e0 7c 	ld  [ %g3 + 0x7c ], %o0
   16464:	81 c7 e0 08 	ret 
   16468:	81 e8 00 00 	restore 

0001646c <__libc_disable_asynccancel>:
   1646c:	9d e3 bf a0 	save  %sp, -96, %sp
   16470:	2f 00 00 a6 	sethi  %hi(0x29800), %l7
   16474:	7f ff e8 ec 	call  10824 <__sparc_get_pc_thunk.l7>
   16478:	ae 05 e2 58 	add  %l7, 0x258, %l7	! 29a58 <__FRAME_END__+0x1360>
   1647c:	80 8e 20 02 	btst  2, %i0
   16480:	12 80 00 26 	bne  16518 <__libc_disable_asynccancel+0xac>
   16484:	ba 01 e0 80 	add  %g7, 0x80, %i5
   16488:	86 10 00 07 	mov  %g7, %g3
   1648c:	83 3f 60 02 	sra  %i5, 2, %g1
   16490:	85 3f 60 0c 	sra  %i5, 0xc, %g2
   16494:	c8 01 e0 80 	ld  [ %g7 + 0x80 ], %g4
   16498:	82 18 40 02 	xor  %g1, %g2, %g1
   1649c:	82 08 60 3f 	and  %g1, 0x3f, %g1
   164a0:	94 09 3f fd 	and  %g4, -3, %o2
   164a4:	05 00 00 00 	sethi  %hi(0), %g2
   164a8:	84 18 a3 ac 	xor  %g2, 0x3ac, %g2
   164ac:	84 05 c0 02 	add  %l7, %g2, %g2
   164b0:	f8 68 80 01 	ldstub  [ %g2 + %g1 ], %i4
   164b4:	80 a7 20 00 	cmp  %i4, 0
   164b8:	32 bf ff fc 	bne,a   164a8 <__libc_disable_asynccancel+0x3c>
   164bc:	05 00 00 00 	sethi  %hi(0), %g2
   164c0:	f8 00 e0 80 	ld  [ %g3 + 0x80 ], %i4
   164c4:	80 a1 00 1c 	cmp  %g4, %i4
   164c8:	22 80 00 02 	be,a   164d0 <__libc_disable_asynccancel+0x64>
   164cc:	d4 20 e0 80 	st  %o2, [ %g3 + 0x80 ]
   164d0:	c0 28 80 01 	clrb  [ %g2 + %g1 ]
   164d4:	80 a1 00 1c 	cmp  %g4, %i4
   164d8:	22 80 00 0d 	be,a   1650c <__libc_disable_asynccancel+0xa0>
   164dc:	82 0a a0 0c 	and  %o2, 0xc, %g1
   164e0:	10 bf ff f0 	b  164a0 <__libc_disable_asynccancel+0x34>
   164e4:	88 10 00 1c 	mov  %i4, %g4
   164e8:	96 10 20 00 	clr  %o3
   164ec:	92 10 20 80 	mov  0x80, %o1
   164f0:	90 10 00 1d 	mov  %i5, %o0
   164f4:	91 d0 20 10 	ta  0x10
   164f8:	1a 80 00 03 	bcc  16504 <__libc_disable_asynccancel+0x98>
   164fc:	82 10 00 08 	mov  %o0, %g1
   16500:	82 20 00 08 	neg  %o0, %g1
   16504:	d4 00 e0 80 	ld  [ %g3 + 0x80 ], %o2
   16508:	82 0a a0 0c 	and  %o2, 0xc, %g1
   1650c:	80 a0 60 04 	cmp  %g1, 4
   16510:	02 bf ff f6 	be  164e8 <__libc_disable_asynccancel+0x7c>
   16514:	82 10 20 8e 	mov  0x8e, %g1
   16518:	81 c7 e0 08 	ret 
   1651c:	81 e8 00 00 	restore 

00016520 <__libc_setup_tls>:
   16520:	9d e3 bf a0 	save  %sp, -96, %sp
   16524:	2f 00 00 a6 	sethi  %hi(0x29800), %l7
   16528:	7f ff e8 bf 	call  10824 <__sparc_get_pc_thunk.l7>
   1652c:	ae 05 e1 a4 	add  %l7, 0x1a4, %l7	! 299a4 <__FRAME_END__+0x12ac>
   16530:	03 00 00 0b 	sethi  %hi(0x2c00), %g1
   16534:	82 18 61 94 	xor  %g1, 0x194, %g1
   16538:	82 05 c0 01 	add  %l7, %g1, %g1
   1653c:	fa 00 40 00 	ld  [ %g1 ], %i5
   16540:	80 a7 60 00 	cmp  %i5, 0
   16544:	02 80 00 80 	be  16744 <__libc_setup_tls+0x224>
   16548:	03 00 00 0b 	sethi  %hi(0x2c00), %g1
   1654c:	82 18 61 98 	xor  %g1, 0x198, %g1
   16550:	82 05 c0 01 	add  %l7, %g1, %g1
   16554:	c2 00 40 00 	ld  [ %g1 ], %g1
   16558:	83 28 60 05 	sll  %g1, 5, %g1
   1655c:	82 07 40 01 	add  %i5, %g1, %g1
   16560:	80 a0 40 1d 	cmp  %g1, %i5
   16564:	38 80 00 08 	bgu,a   16584 <__libc_setup_tls+0x64>
   16568:	c4 07 40 00 	ld  [ %i5 ], %g2
   1656c:	b4 10 00 19 	mov  %i1, %i2
   16570:	a4 10 20 00 	clr  %l2
   16574:	ba 10 20 00 	clr  %i5
   16578:	a8 10 20 00 	clr  %l4
   1657c:	10 80 00 0e 	b  165b4 <__libc_setup_tls+0x94>
   16580:	a6 10 20 00 	clr  %l3
   16584:	80 a0 a0 07 	cmp  %g2, 7
   16588:	32 bf ff f6 	bne,a   16560 <__libc_setup_tls+0x40>
   1658c:	ba 07 60 20 	add  %i5, 0x20, %i5
   16590:	e4 07 60 1c 	ld  [ %i5 + 0x1c ], %l2
   16594:	e6 07 60 14 	ld  [ %i5 + 0x14 ], %l3
   16598:	e8 07 60 10 	ld  [ %i5 + 0x10 ], %l4
   1659c:	c2 07 60 08 	ld  [ %i5 + 8 ], %g1
   165a0:	80 a6 40 12 	cmp  %i1, %l2
   165a4:	1a 80 00 03 	bcc  165b0 <__libc_setup_tls+0x90>
   165a8:	b4 10 00 19 	mov  %i1, %i2
   165ac:	b4 10 00 12 	mov  %l2, %i2
   165b0:	ba 10 00 01 	mov  %g1, %i5
   165b4:	23 00 00 00 	sethi  %hi(0), %l1
   165b8:	a2 1c 62 44 	xor  %l1, 0x244, %l1
   165bc:	a2 05 c0 11 	add  %l7, %l1, %l1
   165c0:	c4 04 40 00 	ld  [ %l1 ], %g2
   165c4:	84 00 bf ff 	add  %g2, -1, %g2
   165c8:	84 00 80 19 	add  %g2, %i1, %g2
   165cc:	84 00 80 13 	add  %g2, %l3, %g2
   165d0:	81 80 20 00 	wr  %g0, %y
   165d4:	01 00 00 00 	nop 
   165d8:	01 00 00 00 	nop 
   165dc:	01 00 00 00 	nop 
   165e0:	84 70 80 19 	udiv  %g2, %i1, %g2
   165e4:	90 06 80 18 	add  %i2, %i0, %o0
   165e8:	b2 58 80 19 	smul  %g2, %i1, %i1
   165ec:	40 00 0e 1b 	call  19e58 <__GI_sbrk>
   165f0:	90 02 00 19 	add  %o0, %i1, %o0
   165f4:	82 06 bf ff 	add  %i2, -1, %g1
   165f8:	82 02 00 01 	add  %o0, %g1, %g1
   165fc:	84 20 00 1a 	neg  %i2, %g2
   16600:	37 00 00 0a 	sethi  %hi(0x2800), %i3
   16604:	aa 08 40 02 	and  %g1, %g2, %l5
   16608:	b6 1e e3 7c 	xor  %i3, 0x37c, %i3
   1660c:	82 10 20 3e 	mov  0x3e, %g1
   16610:	b6 05 c0 1b 	add  %l7, %i3, %i3
   16614:	c2 26 c0 00 	st  %g1, [ %i3 ]
   16618:	80 a4 a0 00 	cmp  %l2, 0
   1661c:	02 80 00 03 	be  16628 <__libc_setup_tls+0x108>
   16620:	b8 10 20 00 	clr  %i4
   16624:	b8 04 bf ff 	add  %l2, -1, %i4
   16628:	84 94 a0 00 	orcc  %l2, 0, %g2
   1662c:	22 80 00 02 	be,a   16634 <__libc_setup_tls+0x114>
   16630:	84 10 20 01 	mov  1, %g2
   16634:	82 10 20 01 	mov  1, %g1
   16638:	b8 04 c0 1c 	add  %l3, %i4, %i4
   1663c:	c2 2e e0 14 	stb  %g1, [ %i3 + 0x14 ]
   16640:	81 80 20 00 	wr  %g0, %y
   16644:	01 00 00 00 	nop 
   16648:	01 00 00 00 	nop 
   1664c:	01 00 00 00 	nop 
   16650:	b8 77 00 02 	udiv  %i4, %g2, %i4
   16654:	21 00 00 01 	sethi  %hi(0x400), %l0
   16658:	b8 5f 00 02 	smul  %i4, %g2, %i4
   1665c:	a0 1c 20 14 	xor  %l0, 0x14, %l0
   16660:	90 26 40 1c 	sub  %i1, %i4, %o0
   16664:	a0 05 c0 10 	add  %l7, %l0, %l0
   16668:	90 05 40 08 	add  %l5, %o0, %o0
   1666c:	f8 24 20 28 	st  %i4, [ %l0 + 0x28 ]
   16670:	d0 26 e0 10 	st  %o0, [ %i3 + 0x10 ]
   16674:	94 10 00 14 	mov  %l4, %o2
   16678:	7f ff f1 6f 	call  12c34 <__GI_memcpy>
   1667c:	92 10 00 1d 	mov  %i5, %o1
   16680:	82 05 40 19 	add  %l5, %i1, %g1
   16684:	84 10 20 40 	mov  0x40, %g2
   16688:	86 10 20 01 	mov  1, %g3
   1668c:	b6 06 e0 08 	add  %i3, 8, %i3
   16690:	8e 10 00 01 	mov  %g1, %g7
   16694:	f6 20 60 04 	st  %i3, [ %g1 + 4 ]
   16698:	03 00 00 01 	sethi  %hi(0x400), %g1
   1669c:	82 18 60 4c 	xor  %g1, 0x4c, %g1
   166a0:	82 05 c0 01 	add  %l7, %g1, %g1
   166a4:	c4 20 40 00 	st  %g2, [ %g1 ]
   166a8:	05 00 00 0b 	sethi  %hi(0x2c00), %g2
   166ac:	84 18 a1 80 	xor  %g2, 0x180, %g2
   166b0:	84 05 c0 02 	add  %l7, %g2, %g2
   166b4:	c6 20 80 00 	st  %g3, [ %g2 ]
   166b8:	b8 07 00 18 	add  %i4, %i0, %i4
   166bc:	05 00 00 0b 	sethi  %hi(0x2c00), %g2
   166c0:	e0 20 60 1c 	st  %l0, [ %g1 + 0x1c ]
   166c4:	84 18 a1 84 	xor  %g2, 0x184, %g2
   166c8:	84 05 c0 02 	add  %l7, %g2, %g2
   166cc:	c2 20 80 00 	st  %g1, [ %g2 ]
   166d0:	c2 04 40 00 	ld  [ %l1 ], %g1
   166d4:	82 00 60 0f 	add  %g1, 0xf, %g1
   166d8:	82 00 40 1c 	add  %g1, %i4, %g1
   166dc:	82 08 7f f0 	and  %g1, -16, %g1
   166e0:	c2 24 40 00 	st  %g1, [ %l1 ]
   166e4:	03 00 00 0a 	sethi  %hi(0x2800), %g1
   166e8:	82 18 63 78 	xor  %g1, 0x378, %g1
   166ec:	82 05 c0 01 	add  %l7, %g1, %g1
   166f0:	e4 24 20 20 	st  %l2, [ %l0 + 0x20 ]
   166f4:	f8 20 40 00 	st  %i4, [ %g1 ]
   166f8:	e6 24 20 1c 	st  %l3, [ %l0 + 0x1c ]
   166fc:	03 00 00 0b 	sethi  %hi(0x2c00), %g1
   16700:	fa 24 20 14 	st  %i5, [ %l0 + 0x14 ]
   16704:	82 18 61 7c 	xor  %g1, 0x17c, %g1
   16708:	e8 24 20 18 	st  %l4, [ %l0 + 0x18 ]
   1670c:	c6 24 20 2c 	st  %g3, [ %l0 + 0x2c ]
   16710:	84 05 c0 01 	add  %l7, %g1, %g2
   16714:	80 a6 a0 10 	cmp  %i2, 0x10
   16718:	1a 80 00 03 	bcc  16724 <__libc_setup_tls+0x204>
   1671c:	82 10 00 1a 	mov  %i2, %g1
   16720:	82 10 20 10 	mov  0x10, %g1
   16724:	c2 20 80 00 	st  %g1, [ %g2 ]
   16728:	03 00 00 0b 	sethi  %hi(0x2c00), %g1
   1672c:	82 18 61 90 	xor  %g1, 0x190, %g1
   16730:	ae 05 c0 01 	add  %l7, %g1, %l7
   16734:	82 10 20 01 	mov  1, %g1
   16738:	c2 25 c0 00 	st  %g1, [ %l7 ]
   1673c:	81 c7 e0 08 	ret 
   16740:	81 e8 00 00 	restore 
   16744:	b4 10 00 19 	mov  %i1, %i2
   16748:	10 bf ff 8c 	b  16578 <__libc_setup_tls+0x58>
   1674c:	a4 10 20 00 	clr  %l2

00016750 <_dl_tls_setup>:
   16750:	9d e3 bf a0 	save  %sp, -96, %sp
   16754:	84 10 20 40 	mov  0x40, %g2
   16758:	2f 00 00 a5 	sethi  %hi(0x29400), %l7
   1675c:	7f ff e8 32 	call  10824 <__sparc_get_pc_thunk.l7>
   16760:	ae 05 e3 70 	add  %l7, 0x370, %l7	! 29770 <__FRAME_END__+0x1078>
   16764:	86 10 20 01 	mov  1, %g3
   16768:	03 00 00 01 	sethi  %hi(0x400), %g1
   1676c:	82 18 60 4c 	xor  %g1, 0x4c, %g1
   16770:	82 05 c0 01 	add  %l7, %g1, %g1
   16774:	c4 20 40 00 	st  %g2, [ %g1 ]
   16778:	05 00 00 0b 	sethi  %hi(0x2c00), %g2
   1677c:	84 18 a1 80 	xor  %g2, 0x180, %g2
   16780:	84 05 c0 02 	add  %l7, %g2, %g2
   16784:	c6 20 80 00 	st  %g3, [ %g2 ]
   16788:	05 00 00 0b 	sethi  %hi(0x2c00), %g2
   1678c:	84 18 a1 84 	xor  %g2, 0x184, %g2
   16790:	84 05 c0 02 	add  %l7, %g2, %g2
   16794:	c2 20 80 00 	st  %g1, [ %g2 ]
   16798:	03 00 00 00 	sethi  %hi(0), %g1
   1679c:	82 18 62 44 	xor  %g1, 0x244, %g1
   167a0:	82 05 c0 01 	add  %l7, %g1, %g1
   167a4:	c4 00 40 00 	ld  [ %g1 ], %g2
   167a8:	84 00 a4 5f 	add  %g2, 0x45f, %g2
   167ac:	84 08 bf f0 	and  %g2, -16, %g2
   167b0:	c4 20 40 00 	st  %g2, [ %g1 ]
   167b4:	03 00 00 0a 	sethi  %hi(0x2800), %g1
   167b8:	82 18 63 78 	xor  %g1, 0x378, %g1
   167bc:	82 05 c0 01 	add  %l7, %g1, %g1
   167c0:	84 10 24 50 	mov  0x450, %g2
   167c4:	c4 20 40 00 	st  %g2, [ %g1 ]
   167c8:	03 00 00 0b 	sethi  %hi(0x2c00), %g1
   167cc:	82 18 61 7c 	xor  %g1, 0x17c, %g1
   167d0:	82 05 c0 01 	add  %l7, %g1, %g1
   167d4:	84 10 20 10 	mov  0x10, %g2
   167d8:	c4 20 40 00 	st  %g2, [ %g1 ]
   167dc:	03 00 00 0b 	sethi  %hi(0x2c00), %g1
   167e0:	82 18 61 90 	xor  %g1, 0x190, %g1
   167e4:	ae 05 c0 01 	add  %l7, %g1, %l7
   167e8:	c6 25 c0 00 	st  %g3, [ %l7 ]
   167ec:	81 c7 e0 08 	ret 
   167f0:	91 e8 20 00 	restore  %g0, 0, %o0

000167f4 <__pthread_initialize_minimal>:
   167f4:	9d e3 bf a0 	save  %sp, -96, %sp
   167f8:	b2 10 20 10 	mov  0x10, %i1
   167fc:	10 bf ff 49 	b  16520 <__libc_setup_tls>
   16800:	91 e8 24 50 	restore  %g0, 0x450, %o0

00016804 <_dl_nothread_init_static_tls>:
   16804:	9d e3 bf a0 	save  %sp, -96, %sp
   16808:	c2 06 20 2c 	ld  [ %i0 + 0x2c ], %g1
   1680c:	83 28 60 03 	sll  %g1, 3, %g1
   16810:	d0 06 20 28 	ld  [ %i0 + 0x28 ], %o0
   16814:	c4 01 e0 04 	ld  [ %g7 + 4 ], %g2
   16818:	90 21 c0 08 	sub  %g7, %o0, %o0
   1681c:	86 00 80 01 	add  %g2, %g1, %g3
   16820:	d0 20 80 01 	st  %o0, [ %g2 + %g1 ]
   16824:	82 10 20 01 	mov  1, %g1
   16828:	d4 06 20 18 	ld  [ %i0 + 0x18 ], %o2
   1682c:	c2 28 e0 04 	stb  %g1, [ %g3 + 4 ]
   16830:	40 00 18 41 	call  1c934 <__GI_mempcpy>
   16834:	d2 06 20 14 	ld  [ %i0 + 0x14 ], %o1
   16838:	ba 10 00 18 	mov  %i0, %i5
   1683c:	b2 10 20 00 	clr  %i1
   16840:	f4 07 60 1c 	ld  [ %i5 + 0x1c ], %i2
   16844:	c2 07 60 18 	ld  [ %i5 + 0x18 ], %g1
   16848:	b4 26 80 01 	sub  %i2, %g1, %i2
   1684c:	10 bf f5 24 	b  13cdc <__GI_memset>
   16850:	91 e8 00 08 	restore  %g0, %o0, %o0

00016854 <_dl_aux_init>:
   16854:	9d e3 bf a0 	save  %sp, -96, %sp
   16858:	2f 00 00 a5 	sethi  %hi(0x29400), %l7
   1685c:	7f ff e7 f2 	call  10824 <__sparc_get_pc_thunk.l7>
   16860:	ae 05 e2 70 	add  %l7, 0x270, %l7	! 29670 <__FRAME_END__+0xf78>
   16864:	c4 06 20 1c 	ld  [ %i0 + 0x1c ], %g2
   16868:	03 00 00 0b 	sethi  %hi(0x2c00), %g1
   1686c:	82 18 61 94 	xor  %g1, 0x194, %g1
   16870:	82 05 c0 01 	add  %l7, %g1, %g1
   16874:	c4 20 40 00 	st  %g2, [ %g1 ]
   16878:	03 00 00 0b 	sethi  %hi(0x2c00), %g1
   1687c:	c4 06 20 2c 	ld  [ %i0 + 0x2c ], %g2
   16880:	82 18 61 98 	xor  %g1, 0x198, %g1
   16884:	82 05 c0 01 	add  %l7, %g1, %g1
   16888:	c4 20 40 00 	st  %g2, [ %g1 ]
   1688c:	c2 06 20 34 	ld  [ %i0 + 0x34 ], %g1
   16890:	80 a0 60 00 	cmp  %g1, 0
   16894:	22 80 00 02 	be,a   1689c <_dl_aux_init+0x48>
   16898:	03 00 00 04 	sethi  %hi(0x1000), %g1
   1689c:	05 00 00 00 	sethi  %hi(0), %g2
   168a0:	84 18 a2 48 	xor  %g2, 0x248, %g2
   168a4:	ae 05 c0 02 	add  %l7, %g2, %l7
   168a8:	c2 25 c0 00 	st  %g1, [ %l7 ]
   168ac:	81 c7 e0 08 	ret 
   168b0:	81 e8 00 00 	restore 
   168b4:	00 00 0e fc 	unimp  0xefc
   168b8:	00 00 0e ec 	unimp  0xeec
   168bc:	00 00 0e ec 	unimp  0xeec
   168c0:	00 00 0e f8 	unimp  0xef8
   168c4:	00 00 0e ec 	unimp  0xeec
   168c8:	00 00 0e ec 	unimp  0xeec
   168cc:	00 00 0e f4 	unimp  0xef4
   168d0:	00 00 0f 6c 	unimp  0xf6c
   168d4:	00 00 0e ec 	unimp  0xeec
   168d8:	00 00 0f 88 	unimp  0xf88
   168dc:	00 00 0e ec 	unimp  0xeec
   168e0:	00 00 0e ec 	unimp  0xeec
   168e4:	00 00 0f 08 	unimp  0xf08
   168e8:	00 00 0e ec 	unimp  0xeec
   168ec:	00 00 0e ec 	unimp  0xeec
   168f0:	00 00 0e ec 	unimp  0xeec
   168f4:	00 00 0e ec 	unimp  0xeec
   168f8:	00 00 0e ec 	unimp  0xeec
   168fc:	00 00 0e ec 	unimp  0xeec
   16900:	00 00 0f b0 	unimp  0xfb0
   16904:	00 00 0e f8 	unimp  0xef8
   16908:	00 00 0f 30 	unimp  0xf30
   1690c:	00 00 0f 54 	unimp  0xf54

00016910 <_dl_build_local_scope>:
   16910:	9d e3 bf a0 	save  %sp, -96, %sp
   16914:	f2 26 00 00 	st  %i1, [ %i0 ]
   16918:	c2 16 60 4e 	lduh  [ %i1 + 0x4e ], %g1
   1691c:	ba 06 20 04 	add  %i0, 4, %i5
   16920:	82 10 60 20 	or  %g1, 0x20, %g1
   16924:	f8 06 60 5c 	ld  [ %i1 + 0x5c ], %i4
   16928:	c2 36 60 4e 	sth  %g1, [ %i1 + 0x4e ]
   1692c:	80 a7 20 00 	cmp  %i4, 0
   16930:	22 80 00 0d 	be,a   16964 <_dl_build_local_scope+0x54>
   16934:	b0 27 40 18 	sub  %i5, %i0, %i0
   16938:	d2 07 20 04 	ld  [ %i4 + 4 ], %o1
   1693c:	c2 12 60 4e 	lduh  [ %o1 + 0x4e ], %g1
   16940:	80 88 60 20 	btst  0x20, %g1
   16944:	32 bf ff fa 	bne,a   1692c <_dl_build_local_scope+0x1c>
   16948:	f8 07 00 00 	ld  [ %i4 ], %i4
   1694c:	7f ff ff f1 	call  16910 <_dl_build_local_scope>
   16950:	90 10 00 1d 	mov  %i5, %o0
   16954:	91 2a 20 02 	sll  %o0, 2, %o0
   16958:	ba 07 40 08 	add  %i5, %o0, %i5
   1695c:	10 bf ff f4 	b  1692c <_dl_build_local_scope+0x1c>
   16960:	f8 07 00 00 	ld  [ %i4 ], %i4
   16964:	b1 3e 20 02 	sra  %i0, 2, %i0
   16968:	81 c7 e0 08 	ret 
   1696c:	81 e8 00 00 	restore 

00016970 <check_match>:
   16970:	9d e3 bf a0 	save  %sp, -96, %sp
   16974:	c2 06 20 04 	ld  [ %i0 + 4 ], %g1
   16978:	80 a0 60 00 	cmp  %g1, 0
   1697c:	32 80 00 08 	bne,a   1699c <check_match+0x2c>
   16980:	c2 16 20 0e 	lduh  [ %i0 + 0xe ], %g1
   16984:	c2 0e 20 0c 	ldub  [ %i0 + 0xc ], %g1
   16988:	82 08 60 0f 	and  %g1, 0xf, %g1
   1698c:	80 a0 60 06 	cmp  %g1, 6
   16990:	32 80 00 15 	bne,a   169e4 <check_match+0x74>
   16994:	b0 10 20 00 	clr  %i0
   16998:	c2 16 20 0e 	lduh  [ %i0 + 0xe ], %g1
   1699c:	80 a0 00 01 	cmp  %g0, %g1
   169a0:	82 60 3f ff 	subx  %g0, -1, %g1
   169a4:	80 88 40 1b 	btst  %g1, %i3
   169a8:	12 80 00 0e 	bne  169e0 <check_match+0x70>
   169ac:	82 10 20 67 	mov  0x67, %g1
   169b0:	c4 0e 20 0c 	ldub  [ %i0 + 0xc ], %g2
   169b4:	84 08 a0 0f 	and  %g2, 0xf, %g2
   169b8:	83 30 40 02 	srl  %g1, %g2, %g1
   169bc:	80 88 60 01 	btst  1, %g1
   169c0:	02 80 00 08 	be  169e0 <check_match+0x70>
   169c4:	92 10 00 1a 	mov  %i2, %o1
   169c8:	d0 06 00 00 	ld  [ %i0 ], %o0
   169cc:	7f ff f5 51 	call  13f10 <__GI_strcmp>
   169d0:	90 06 40 08 	add  %i1, %o0, %o0
   169d4:	80 a2 20 00 	cmp  %o0, 0
   169d8:	02 80 00 03 	be  169e4 <check_match+0x74>
   169dc:	01 00 00 00 	nop 
   169e0:	b0 10 20 00 	clr  %i0	! 0 <errno>
   169e4:	81 c7 e0 08 	ret 
   169e8:	81 e8 00 00 	restore 

000169ec <remove_slotinfo.isra.0>:
   169ec:	9d e3 bf a0 	save  %sp, -96, %sp
   169f0:	2f 00 00 a5 	sethi  %hi(0x29400), %l7
   169f4:	7f ff e7 8c 	call  10824 <__sparc_get_pc_thunk.l7>
   169f8:	ae 05 e0 d8 	add  %l7, 0xd8, %l7	! 294d8 <__FRAME_END__+0xde0>
   169fc:	84 26 00 1a 	sub  %i0, %i2, %g2
   16a00:	d4 06 40 00 	ld  [ %i1 ], %o2
   16a04:	80 a0 80 0a 	cmp  %g2, %o2
   16a08:	0a 80 00 1c 	bcs  16a78 <remove_slotinfo.isra.0+0x8c>
   16a0c:	82 00 80 02 	add  %g2, %g2, %g1
   16a10:	d2 06 60 04 	ld  [ %i1 + 4 ], %o1
   16a14:	80 a2 60 00 	cmp  %o1, 0
   16a18:	02 80 00 3e 	be  16b10 <remove_slotinfo.isra.0+0x124>
   16a1c:	94 06 80 0a 	add  %i2, %o2, %o2
   16a20:	7f ff ff f3 	call  169ec <remove_slotinfo.isra.0>
   16a24:	90 10 00 18 	mov  %i0, %o0
   16a28:	80 a2 20 00 	cmp  %o0, 0
   16a2c:	32 80 00 28 	bne,a   16acc <remove_slotinfo.isra.0+0xe0>
   16a30:	b0 10 20 01 	mov  1, %i0
   16a34:	c2 06 40 00 	ld  [ %i1 ], %g1
   16a38:	82 06 80 01 	add  %i2, %g1, %g1
   16a3c:	80 a6 a0 00 	cmp  %i2, 0
   16a40:	12 80 00 07 	bne  16a5c <remove_slotinfo.isra.0+0x70>
   16a44:	86 10 20 00 	clr  %g3
   16a48:	05 00 00 0b 	sethi  %hi(0x2c00), %g2
   16a4c:	84 18 a1 90 	xor  %g2, 0x190, %g2
   16a50:	84 05 c0 02 	add  %l7, %g2, %g2
   16a54:	c6 00 80 00 	ld  [ %g2 ], %g3
   16a58:	86 00 e0 01 	inc  %g3
   16a5c:	82 20 40 1a 	sub  %g1, %i2, %g1
   16a60:	b2 06 60 10 	add  %i1, 0x10, %i1
   16a64:	80 a0 40 03 	cmp  %g1, %g3
   16a68:	18 80 00 1c 	bgu  16ad8 <remove_slotinfo.isra.0+0xec>
   16a6c:	88 00 7f ff 	add  %g1, -1, %g4
   16a70:	10 80 00 17 	b  16acc <remove_slotinfo.isra.0+0xe0>
   16a74:	b0 10 20 00 	clr  %i0
   16a78:	82 00 40 02 	add  %g1, %g2, %g1
   16a7c:	83 28 60 02 	sll  %g1, 2, %g1
   16a80:	82 06 40 01 	add  %i1, %g1, %g1
   16a84:	c4 00 60 10 	ld  [ %g1 + 0x10 ], %g2
   16a88:	80 a0 a0 00 	cmp  %g2, 0
   16a8c:	02 80 00 08 	be  16aac <remove_slotinfo.isra.0+0xc0>
   16a90:	05 00 00 0b 	sethi  %hi(0x2c00), %g2
   16a94:	c0 20 60 10 	clr  [ %g1 + 0x10 ]
   16a98:	84 18 a1 8c 	xor  %g2, 0x18c, %g2
   16a9c:	84 05 c0 02 	add  %l7, %g2, %g2
   16aa0:	c4 00 80 00 	ld  [ %g2 ], %g2
   16aa4:	84 00 a0 01 	inc  %g2
   16aa8:	c4 20 60 08 	st  %g2, [ %g1 + 8 ]
   16aac:	03 00 00 0b 	sethi  %hi(0x2c00), %g1
   16ab0:	82 18 61 80 	xor  %g1, 0x180, %g1
   16ab4:	82 05 c0 01 	add  %l7, %g1, %g1
   16ab8:	c2 00 40 00 	ld  [ %g1 ], %g1
   16abc:	80 a6 00 01 	cmp  %i0, %g1
   16ac0:	02 bf ff e0 	be  16a40 <remove_slotinfo.isra.0+0x54>
   16ac4:	80 a6 a0 00 	cmp  %i2, 0
   16ac8:	b0 10 20 01 	mov  1, %i0
   16acc:	b0 0e 20 01 	and  %i0, 1, %i0
   16ad0:	81 c7 e0 08 	ret 
   16ad4:	81 e8 00 00 	restore 
   16ad8:	84 01 00 04 	add  %g4, %g4, %g2
   16adc:	84 00 80 04 	add  %g2, %g4, %g2
   16ae0:	85 28 a0 02 	sll  %g2, 2, %g2
   16ae4:	c4 06 40 02 	ld  [ %i1 + %g2 ], %g2
   16ae8:	80 a0 a0 00 	cmp  %g2, 0
   16aec:	22 bf ff de 	be,a   16a64 <remove_slotinfo.isra.0+0x78>
   16af0:	82 10 00 04 	mov  %g4, %g1
   16af4:	05 00 00 0b 	sethi  %hi(0x2c00), %g2
   16af8:	b4 06 bf ff 	add  %i2, -1, %i2
   16afc:	84 18 a1 80 	xor  %g2, 0x180, %g2
   16b00:	b4 06 80 01 	add  %i2, %g1, %i2
   16b04:	84 05 c0 02 	add  %l7, %g2, %g2
   16b08:	10 bf ff f0 	b  16ac8 <remove_slotinfo.isra.0+0xdc>
   16b0c:	f4 20 80 00 	st  %i2, [ %g2 ]
   16b10:	10 bf ff cb 	b  16a3c <remove_slotinfo.isra.0+0x50>
   16b14:	82 10 00 18 	mov  %i0, %g1

00016b18 <_dl_run_init_array>:
   16b18:	9d e3 bf a0 	save  %sp, -96, %sp
   16b1c:	c2 06 20 d0 	ld  [ %i0 + 0xd0 ], %g1
   16b20:	80 a0 60 00 	cmp  %g1, 0
   16b24:	02 80 00 09 	be  16b48 <_dl_run_init_array+0x30>
   16b28:	ba 10 20 00 	clr  %i5
   16b2c:	f6 06 20 d8 	ld  [ %i0 + 0xd8 ], %i3
   16b30:	c4 06 00 00 	ld  [ %i0 ], %g2
   16b34:	b7 36 e0 02 	srl  %i3, 2, %i3
   16b38:	b8 00 40 02 	add  %g1, %g2, %i4
   16b3c:	80 a6 c0 1d 	cmp  %i3, %i5
   16b40:	12 80 00 04 	bne  16b50 <_dl_run_init_array+0x38>
   16b44:	83 2f 60 02 	sll  %i5, 2, %g1
   16b48:	81 c7 e0 08 	ret 
   16b4c:	81 e8 00 00 	restore 
   16b50:	c2 07 00 01 	ld  [ %i4 + %g1 ], %g1
   16b54:	9f c0 40 00 	call  %g1
   16b58:	ba 07 60 01 	inc  %i5
   16b5c:	10 bf ff f9 	b  16b40 <_dl_run_init_array+0x28>
   16b60:	80 a6 c0 1d 	cmp  %i3, %i5

00016b64 <_dl_app_init_array>:
   16b64:	9d e3 bf a0 	save  %sp, -96, %sp
   16b68:	2f 00 00 a4 	sethi  %hi(0x29000), %l7
   16b6c:	7f ff e7 2e 	call  10824 <__sparc_get_pc_thunk.l7>
   16b70:	ae 05 e3 60 	add  %l7, 0x360, %l7	! 29360 <__FRAME_END__+0xc68>
   16b74:	03 00 00 09 	sethi  %hi(0x2400), %g1
   16b78:	82 18 63 a8 	xor  %g1, 0x3a8, %g1
   16b7c:	ae 05 c0 01 	add  %l7, %g1, %l7
   16b80:	f0 05 c0 00 	ld  [ %l7 ], %i0
   16b84:	10 bf ff e5 	b  16b18 <_dl_run_init_array>
   16b88:	81 e8 00 00 	restore 

00016b8c <_dl_run_fini_array>:
   16b8c:	9d e3 bf a0 	save  %sp, -96, %sp
   16b90:	c2 06 20 d4 	ld  [ %i0 + 0xd4 ], %g1
   16b94:	80 a0 60 00 	cmp  %g1, 0
   16b98:	02 80 00 0a 	be  16bc0 <_dl_run_fini_array+0x34>
   16b9c:	01 00 00 00 	nop 
   16ba0:	c4 06 00 00 	ld  [ %i0 ], %g2
   16ba4:	fa 06 20 dc 	ld  [ %i0 + 0xdc ], %i5
   16ba8:	b8 00 40 02 	add  %g1, %g2, %i4
   16bac:	bb 37 60 02 	srl  %i5, 2, %i5
   16bb0:	ba 07 7f ff 	add  %i5, -1, %i5
   16bb4:	80 a7 7f ff 	cmp  %i5, -1
   16bb8:	12 80 00 04 	bne  16bc8 <_dl_run_fini_array+0x3c>
   16bbc:	83 2f 60 02 	sll  %i5, 2, %g1
   16bc0:	81 c7 e0 08 	ret 
   16bc4:	81 e8 00 00 	restore 
   16bc8:	c2 07 00 01 	ld  [ %i4 + %g1 ], %g1
   16bcc:	9f c0 40 00 	call  %g1
   16bd0:	ba 07 7f ff 	add  %i5, -1, %i5
   16bd4:	10 bf ff f9 	b  16bb8 <_dl_run_fini_array+0x2c>
   16bd8:	80 a7 7f ff 	cmp  %i5, -1

00016bdc <do_dlclose>:
   16bdc:	9d e3 bf 98 	save  %sp, -104, %sp
   16be0:	2f 00 00 a4 	sethi  %hi(0x29000), %l7
   16be4:	7f ff e7 10 	call  10824 <__sparc_get_pc_thunk.l7>
   16be8:	ae 05 e2 e8 	add  %l7, 0x2e8, %l7	! 292e8 <__FRAME_END__+0xbf0>
   16bec:	35 00 00 01 	sethi  %hi(0x400), %i2
   16bf0:	b4 1e a3 60 	xor  %i2, 0x360, %i2
   16bf4:	b4 05 c0 1a 	add  %l7, %i2, %i2
   16bf8:	c2 06 80 00 	ld  [ %i2 ], %g1
   16bfc:	80 a0 40 18 	cmp  %g1, %i0
   16c00:	02 80 00 1f 	be  16c7c <do_dlclose+0xa0>
   16c04:	03 00 00 01 	sethi  %hi(0x400), %g1
   16c08:	86 10 20 00 	clr  %g3
   16c0c:	82 18 63 5c 	xor  %g1, 0x35c, %g1
   16c10:	82 05 c0 01 	add  %l7, %g1, %g1
   16c14:	c4 00 40 00 	ld  [ %g1 ], %g2
   16c18:	80 a0 a0 00 	cmp  %g2, 0
   16c1c:	32 80 00 09 	bne,a   16c40 <do_dlclose+0x64>
   16c20:	80 a0 80 18 	cmp  %g2, %i0
   16c24:	84 10 20 0a 	mov  0xa, %g2
   16c28:	03 00 00 0b 	sethi  %hi(0x2c00), %g1
   16c2c:	82 18 61 a0 	xor  %g1, 0x1a0, %g1
   16c30:	82 05 c0 01 	add  %l7, %g1, %g1
   16c34:	c4 20 40 00 	st  %g2, [ %g1 ]
   16c38:	81 c7 e0 08 	ret 
   16c3c:	91 e8 20 01 	restore  %g0, 1, %o0
   16c40:	02 80 01 5e 	be  171b8 <do_dlclose+0x5dc>
   16c44:	80 a0 e0 00 	cmp  %g3, 0
   16c48:	86 10 00 02 	mov  %g2, %g3
   16c4c:	10 bf ff f3 	b  16c18 <do_dlclose+0x3c>
   16c50:	c4 00 a0 04 	ld  [ %g2 + 4 ], %g2
   16c54:	c4 20 e0 04 	st  %g2, [ %g3 + 4 ]
   16c58:	c2 06 00 00 	ld  [ %i0 ], %g1
   16c5c:	c4 10 60 4c 	lduh  [ %g1 + 0x4c ], %g2
   16c60:	80 a0 a0 01 	cmp  %g2, 1
   16c64:	22 80 00 08 	be,a   16c84 <do_dlclose+0xa8>
   16c68:	c4 00 60 40 	ld  [ %g1 + 0x40 ], %g2
   16c6c:	84 00 bf ff 	add  %g2, -1, %g2
   16c70:	90 10 00 18 	mov  %i0, %o0
   16c74:	7f ff f6 ca 	call  1479c <free>
   16c78:	c4 30 60 4c 	sth  %g2, [ %g1 + 0x4c ]
   16c7c:	81 c7 e0 08 	ret 
   16c80:	91 e8 20 00 	restore  %g0, 0, %o0
   16c84:	21 00 00 09 	sethi  %hi(0x2400), %l0
   16c88:	c4 27 bf fc 	st  %g2, [ %fp + -4 ]
   16c8c:	a0 1c 23 a8 	xor  %l0, 0x3a8, %l0
   16c90:	a0 05 c0 10 	add  %l7, %l0, %l0
   16c94:	f8 04 00 00 	ld  [ %l0 ], %i4
   16c98:	b8 07 20 40 	add  %i4, 0x40, %i4
   16c9c:	a6 10 00 1c 	mov  %i4, %l3
   16ca0:	f8 07 20 08 	ld  [ %i4 + 8 ], %i4
   16ca4:	80 a7 20 00 	cmp  %i4, 0
   16ca8:	32 80 00 2f 	bne,a   16d64 <do_dlclose+0x188>
   16cac:	c4 07 00 00 	ld  [ %i4 ], %g2
   16cb0:	b6 10 20 00 	clr  %i3
   16cb4:	c2 06 20 0c 	ld  [ %i0 + 0xc ], %g1
   16cb8:	80 a0 40 1b 	cmp  %g1, %i3
   16cbc:	18 80 00 30 	bgu  16d7c <do_dlclose+0x1a0>
   16cc0:	83 2e e0 02 	sll  %i3, 2, %g1
   16cc4:	b6 10 20 00 	clr  %i3
   16cc8:	b2 10 20 00 	clr  %i1
   16ccc:	aa 10 20 00 	clr  %l5
   16cd0:	a8 10 20 00 	clr  %l4
   16cd4:	a2 10 3f ff 	mov  -1, %l1
   16cd8:	c2 06 20 0c 	ld  [ %i0 + 0xc ], %g1
   16cdc:	80 a0 40 14 	cmp  %g1, %l4
   16ce0:	18 80 00 50 	bgu  16e20 <do_dlclose+0x244>
   16ce4:	83 2d 20 02 	sll  %l4, 2, %g1
   16ce8:	d0 07 bf fc 	ld  [ %fp + -4 ], %o0
   16cec:	7f ff f6 ac 	call  1479c <free>
   16cf0:	f8 24 e0 08 	st  %i4, [ %l3 + 8 ]
   16cf4:	d0 06 20 10 	ld  [ %i0 + 0x10 ], %o0
   16cf8:	80 a2 20 00 	cmp  %o0, 0
   16cfc:	12 80 01 13 	bne  17148 <do_dlclose+0x56c>
   16d00:	01 00 00 00 	nop 
   16d04:	7f ff f6 a6 	call  1479c <free>
   16d08:	d0 06 20 08 	ld  [ %i0 + 8 ], %o0
   16d0c:	7f ff f6 a4 	call  1479c <free>
   16d10:	90 10 00 18 	mov  %i0, %o0
   16d14:	80 8d 60 01 	btst  1, %l5
   16d18:	02 80 01 18 	be  17178 <do_dlclose+0x59c>
   16d1c:	03 00 00 01 	sethi  %hi(0x400), %g1
   16d20:	03 00 00 0b 	sethi  %hi(0x2c00), %g1
   16d24:	82 18 61 8c 	xor  %g1, 0x18c, %g1
   16d28:	82 05 c0 01 	add  %l7, %g1, %g1
   16d2c:	c4 00 40 00 	ld  [ %g1 ], %g2
   16d30:	84 00 a0 01 	inc  %g2
   16d34:	80 a0 a0 00 	cmp  %g2, 0
   16d38:	12 80 01 08 	bne  17158 <do_dlclose+0x57c>
   16d3c:	c4 20 40 00 	st  %g2, [ %g1 ]
   16d40:	82 10 20 01 	mov  1, %g1
   16d44:	90 10 20 1e 	mov  0x1e, %o0
   16d48:	91 d0 20 10 	ta  0x10
   16d4c:	1a 80 00 03 	bcc  16d58 <do_dlclose+0x17c>
   16d50:	ba 10 00 08 	mov  %o0, %i5
   16d54:	ba 20 00 08 	neg  %o0, %i5
   16d58:	7f ff e7 89 	call  10b7c <__errno_location>
   16d5c:	ba 20 00 1d 	neg  %i5
   16d60:	fa 22 00 00 	st  %i5, [ %o0 ]
   16d64:	c4 00 80 00 	ld  [ %g2 ], %g2
   16d68:	80 a0 40 02 	cmp  %g1, %g2
   16d6c:	32 bf ff cd 	bne,a   16ca0 <do_dlclose+0xc4>
   16d70:	a6 10 00 1c 	mov  %i4, %l3
   16d74:	10 bf ff cf 	b  16cb0 <do_dlclose+0xd4>
   16d78:	f8 07 20 08 	ld  [ %i4 + 8 ], %i4
   16d7c:	c4 06 20 08 	ld  [ %i0 + 8 ], %g2
   16d80:	fa 00 80 01 	ld  [ %g2 + %g1 ], %i5
   16d84:	c2 17 60 4c 	lduh  [ %i5 + 0x4c ], %g1
   16d88:	82 00 7f ff 	add  %g1, -1, %g1
   16d8c:	c2 37 60 4c 	sth  %g1, [ %i5 + 0x4c ]
   16d90:	83 28 60 10 	sll  %g1, 0x10, %g1
   16d94:	80 a0 60 00 	cmp  %g1, 0
   16d98:	32 bf ff c7 	bne,a   16cb4 <do_dlclose+0xd8>
   16d9c:	b6 06 e0 01 	inc  %i3
   16da0:	c2 07 60 a0 	ld  [ %i5 + 0xa0 ], %g1
   16da4:	80 a0 60 00 	cmp  %g1, 0
   16da8:	12 80 00 07 	bne  16dc4 <do_dlclose+0x1e8>
   16dac:	80 a6 60 00 	cmp  %i1, 0
   16db0:	c2 07 60 d4 	ld  [ %i5 + 0xd4 ], %g1
   16db4:	80 a0 60 00 	cmp  %g1, 0
   16db8:	22 bf ff bf 	be,a   16cb4 <do_dlclose+0xd8>
   16dbc:	b6 06 e0 01 	inc  %i3
   16dc0:	80 a6 60 00 	cmp  %i1, 0
   16dc4:	22 bf ff bc 	be,a   16cb4 <do_dlclose+0xd8>
   16dc8:	b6 06 e0 01 	inc  %i3
   16dcc:	c2 17 60 4e 	lduh  [ %i5 + 0x4e ], %g1
   16dd0:	80 88 60 08 	btst  8, %g1
   16dd4:	32 bf ff b8 	bne,a   16cb4 <do_dlclose+0xd8>
   16dd8:	b6 06 e0 01 	inc  %i3
   16ddc:	82 10 60 08 	or  %g1, 8, %g1
   16de0:	c2 37 60 4e 	sth  %g1, [ %i5 + 0x4e ]
   16de4:	c2 07 60 d4 	ld  [ %i5 + 0xd4 ], %g1
   16de8:	80 a0 60 00 	cmp  %g1, 0
   16dec:	22 80 00 05 	be,a   16e00 <do_dlclose+0x224>
   16df0:	c2 07 60 a0 	ld  [ %i5 + 0xa0 ], %g1
   16df4:	7f ff ff 66 	call  16b8c <_dl_run_fini_array>
   16df8:	90 10 00 1d 	mov  %i5, %o0
   16dfc:	c2 07 60 a0 	ld  [ %i5 + 0xa0 ], %g1
   16e00:	80 a0 60 00 	cmp  %g1, 0
   16e04:	02 bf ff ac 	be  16cb4 <do_dlclose+0xd8>
   16e08:	b6 06 e0 01 	inc  %i3
   16e0c:	c4 07 40 00 	ld  [ %i5 ], %g2
   16e10:	9f c0 40 02 	call  %g1 + %g2
   16e14:	01 00 00 00 	nop 
   16e18:	10 bf ff a8 	b  16cb8 <do_dlclose+0xdc>
   16e1c:	c2 06 20 0c 	ld  [ %i0 + 0xc ], %g1
   16e20:	c4 06 20 08 	ld  [ %i0 + 8 ], %g2
   16e24:	fa 00 80 01 	ld  [ %g2 + %g1 ], %i5
   16e28:	c2 17 60 4c 	lduh  [ %i5 + 0x4c ], %g1
   16e2c:	80 a0 60 00 	cmp  %g1, 0
   16e30:	32 bf ff aa 	bne,a   16cd8 <do_dlclose+0xfc>
   16e34:	a8 05 20 01 	inc  %l4
   16e38:	c4 07 61 0c 	ld  [ %i5 + 0x10c ], %g2
   16e3c:	c8 07 61 08 	ld  [ %i5 + 0x108 ], %g4
   16e40:	86 10 20 00 	clr  %g3
   16e44:	ac 10 20 00 	clr  %l6
   16e48:	80 a1 00 03 	cmp  %g4, %g3
   16e4c:	32 80 00 66 	bne,a   16fe4 <do_dlclose+0x408>
   16e50:	c2 00 80 00 	ld  [ %g2 ], %g1
   16e54:	c2 07 60 1c 	ld  [ %i5 + 0x1c ], %g1
   16e58:	80 a0 60 00 	cmp  %g1, 0
   16e5c:	02 80 00 25 	be  16ef0 <do_dlclose+0x314>
   16e60:	03 00 00 00 	sethi  %hi(0), %g1
   16e64:	03 00 00 0b 	sethi  %hi(0x2c00), %g1
   16e68:	82 18 61 84 	xor  %g1, 0x184, %g1
   16e6c:	82 05 c0 01 	add  %l7, %g1, %g1
   16e70:	d2 00 40 00 	ld  [ %g1 ], %o1
   16e74:	80 a2 60 00 	cmp  %o1, 0
   16e78:	02 80 00 0f 	be  16eb4 <do_dlclose+0x2d8>
   16e7c:	94 10 20 00 	clr  %o2
   16e80:	7f ff fe db 	call  169ec <remove_slotinfo.isra.0>
   16e84:	d0 07 60 2c 	ld  [ %i5 + 0x2c ], %o0
   16e88:	80 a2 20 00 	cmp  %o0, 0
   16e8c:	32 80 00 0b 	bne,a   16eb8 <do_dlclose+0x2dc>
   16e90:	c2 07 60 28 	ld  [ %i5 + 0x28 ], %g1
   16e94:	03 00 00 0b 	sethi  %hi(0x2c00), %g1
   16e98:	05 00 00 0b 	sethi  %hi(0x2c00), %g2
   16e9c:	82 18 61 80 	xor  %g1, 0x180, %g1
   16ea0:	84 18 a1 90 	xor  %g2, 0x190, %g2
   16ea4:	82 05 c0 01 	add  %l7, %g1, %g1
   16ea8:	84 05 c0 02 	add  %l7, %g2, %g2
   16eac:	c4 00 80 00 	ld  [ %g2 ], %g2
   16eb0:	c4 20 40 00 	st  %g2, [ %g1 ]
   16eb4:	c2 07 60 28 	ld  [ %i5 + 0x28 ], %g1
   16eb8:	80 a0 60 00 	cmp  %g1, 0
   16ebc:	22 80 00 6e 	be,a   17074 <do_dlclose+0x498>
   16ec0:	e4 01 e0 04 	ld  [ %g7 + 4 ], %l2
   16ec4:	80 a6 60 00 	cmp  %i1, 0
   16ec8:	02 80 00 05 	be  16edc <do_dlclose+0x300>
   16ecc:	c4 07 60 1c 	ld  [ %i5 + 0x1c ], %g2
   16ed0:	80 a0 40 19 	cmp  %g1, %i1
   16ed4:	32 80 00 53 	bne,a   17020 <do_dlclose+0x444>
   16ed8:	84 20 40 02 	sub  %g1, %g2, %g2
   16edc:	80 a6 e0 00 	cmp  %i3, 0
   16ee0:	02 80 00 77 	be  170bc <do_dlclose+0x4e0>
   16ee4:	b2 20 40 02 	sub  %g1, %g2, %i1
   16ee8:	aa 10 20 01 	mov  1, %l5
   16eec:	03 00 00 00 	sethi  %hi(0), %g1
   16ef0:	82 18 62 48 	xor  %g1, 0x248, %g1
   16ef4:	82 05 c0 01 	add  %l7, %g1, %g1
   16ef8:	c2 00 40 00 	ld  [ %g1 ], %g1
   16efc:	92 00 7f ff 	add  %g1, -1, %o1
   16f00:	82 20 00 01 	neg  %g1
   16f04:	92 02 40 16 	add  %o1, %l6, %o1
   16f08:	a2 0c 40 01 	and  %l1, %g1, %l1
   16f0c:	92 0a 40 01 	and  %o1, %g1, %o1
   16f10:	80 a2 40 11 	cmp  %o1, %l1
   16f14:	28 80 00 10 	bleu,a   16f54 <do_dlclose+0x378>
   16f18:	d0 07 60 60 	ld  [ %i5 + 0x60 ], %o0
   16f1c:	82 10 20 49 	mov  0x49, %g1
   16f20:	92 22 40 11 	sub  %o1, %l1, %o1
   16f24:	d0 07 60 38 	ld  [ %i5 + 0x38 ], %o0
   16f28:	91 d0 20 10 	ta  0x10
   16f2c:	1a 80 00 03 	bcc  16f38 <do_dlclose+0x35c>
   16f30:	ac 10 00 08 	mov  %o0, %l6
   16f34:	ac 20 00 08 	neg  %o0, %l6
   16f38:	80 a5 b0 00 	cmp  %l6, -4096
   16f3c:	28 80 00 06 	bleu,a   16f54 <do_dlclose+0x378>
   16f40:	d0 07 60 60 	ld  [ %i5 + 0x60 ], %o0
   16f44:	7f ff e7 0e 	call  10b7c <__errno_location>
   16f48:	ac 20 00 16 	neg  %l6
   16f4c:	ec 22 00 00 	st  %l6, [ %o0 ]
   16f50:	d0 07 60 60 	ld  [ %i5 + 0x60 ], %o0
   16f54:	80 a2 20 00 	cmp  %o0, 0
   16f58:	12 80 00 5b 	bne  170c4 <do_dlclose+0x4e8>
   16f5c:	01 00 00 00 	nop 
   16f60:	c2 04 00 00 	ld  [ %l0 ], %g1
   16f64:	80 a0 40 1d 	cmp  %g1, %i5
   16f68:	12 80 00 5c 	bne  170d8 <do_dlclose+0x4fc>
   16f6c:	80 a0 60 00 	cmp  %g1, 0
   16f70:	c2 07 60 0c 	ld  [ %i5 + 0xc ], %g1
   16f74:	80 a0 60 00 	cmp  %g1, 0
   16f78:	02 80 00 03 	be  16f84 <do_dlclose+0x3a8>
   16f7c:	c2 24 00 00 	st  %g1, [ %l0 ]
   16f80:	c0 20 60 10 	clr  [ %g1 + 0x10 ]
   16f84:	d0 06 80 00 	ld  [ %i2 ], %o0
   16f88:	80 a2 20 00 	cmp  %o0, 0
   16f8c:	02 80 00 0a 	be  16fb4 <do_dlclose+0x3d8>
   16f90:	01 00 00 00 	nop 
   16f94:	c4 02 00 00 	ld  [ %o0 ], %g2
   16f98:	80 a0 80 1d 	cmp  %g2, %i5
   16f9c:	12 80 00 5b 	bne  17108 <do_dlclose+0x52c>
   16fa0:	c2 02 20 10 	ld  [ %o0 + 0x10 ], %g1
   16fa4:	80 a0 60 00 	cmp  %g1, 0
   16fa8:	02 80 00 03 	be  16fb4 <do_dlclose+0x3d8>
   16fac:	c2 26 80 00 	st  %g1, [ %i2 ]
   16fb0:	c0 20 60 14 	clr  [ %g1 + 0x14 ]
   16fb4:	7f ff f5 fa 	call  1479c <free>
   16fb8:	d0 07 60 04 	ld  [ %i5 + 4 ], %o0
   16fbc:	c2 06 00 00 	ld  [ %i0 ], %g1
   16fc0:	80 a0 40 1d 	cmp  %g1, %i5
   16fc4:	02 80 00 04 	be  16fd4 <do_dlclose+0x3f8>
   16fc8:	01 00 00 00 	nop 
   16fcc:	7f ff f5 f4 	call  1479c <free>
   16fd0:	d0 07 60 40 	ld  [ %i5 + 0x40 ], %o0
   16fd4:	7f ff f5 f2 	call  1479c <free>
   16fd8:	90 10 00 1d 	mov  %i5, %o0
   16fdc:	10 bf ff 3f 	b  16cd8 <do_dlclose+0xfc>
   16fe0:	a8 05 20 01 	inc  %l4
   16fe4:	80 a0 60 01 	cmp  %g1, 1
   16fe8:	32 80 00 0c 	bne,a   17018 <do_dlclose+0x43c>
   16fec:	84 00 a0 20 	add  %g2, 0x20, %g2
   16ff0:	c2 00 a0 08 	ld  [ %g2 + 8 ], %g1
   16ff4:	80 a4 40 01 	cmp  %l1, %g1
   16ff8:	38 80 00 02 	bgu,a   17000 <do_dlclose+0x424>
   16ffc:	a2 10 00 01 	mov  %g1, %l1
   17000:	de 00 a0 14 	ld  [ %g2 + 0x14 ], %o7
   17004:	82 00 40 0f 	add  %g1, %o7, %g1
   17008:	80 a5 80 01 	cmp  %l6, %g1
   1700c:	2a 80 00 02 	bcs,a   17014 <do_dlclose+0x438>
   17010:	ac 10 00 01 	mov  %g1, %l6
   17014:	84 00 a0 20 	add  %g2, 0x20, %g2
   17018:	10 bf ff 8c 	b  16e48 <do_dlclose+0x26c>
   1701c:	86 00 e0 01 	inc  %g3
   17020:	80 a0 80 1b 	cmp  %g2, %i3
   17024:	02 80 00 26 	be  170bc <do_dlclose+0x4e0>
   17028:	07 00 00 0a 	sethi  %hi(0x2800), %g3
   1702c:	86 18 e3 78 	xor  %g3, 0x378, %g3
   17030:	86 05 c0 03 	add  %l7, %g3, %g3
   17034:	c8 00 c0 00 	ld  [ %g3 ], %g4
   17038:	80 a1 00 1b 	cmp  %g4, %i3
   1703c:	12 80 00 06 	bne  17054 <do_dlclose+0x478>
   17040:	80 a0 40 04 	cmp  %g1, %g4
   17044:	f2 20 c0 00 	st  %i1, [ %g3 ]
   17048:	b6 10 00 01 	mov  %g1, %i3
   1704c:	10 bf ff a7 	b  16ee8 <do_dlclose+0x30c>
   17050:	b2 10 00 02 	mov  %g2, %i1
   17054:	12 80 00 04 	bne  17064 <do_dlclose+0x488>
   17058:	80 a0 40 1b 	cmp  %g1, %i3
   1705c:	10 bf ff a3 	b  16ee8 <do_dlclose+0x30c>
   17060:	c4 20 c0 00 	st  %g2, [ %g3 ]
   17064:	38 bf ff fa 	bgu,a   1704c <do_dlclose+0x470>
   17068:	b6 10 00 01 	mov  %g1, %i3
   1706c:	10 bf ff a0 	b  16eec <do_dlclose+0x310>
   17070:	aa 10 20 01 	mov  1, %l5
   17074:	c2 07 60 2c 	ld  [ %i5 + 0x2c ], %g1
   17078:	83 28 60 03 	sll  %g1, 3, %g1
   1707c:	86 04 80 01 	add  %l2, %g1, %g3
   17080:	c6 08 e0 04 	ldub  [ %g3 + 4 ], %g3
   17084:	80 a0 e0 00 	cmp  %g3, 0
   17088:	12 bf ff 99 	bne  16eec <do_dlclose+0x310>
   1708c:	aa 10 20 01 	mov  1, %l5
   17090:	d0 04 80 01 	ld  [ %l2 + %g1 ], %o0
   17094:	80 a2 3f ff 	cmp  %o0, -1
   17098:	02 bf ff 96 	be  16ef0 <do_dlclose+0x314>
   1709c:	03 00 00 00 	sethi  %hi(0), %g1
   170a0:	7f ff f5 bf 	call  1479c <free>
   170a4:	01 00 00 00 	nop 
   170a8:	c2 07 60 2c 	ld  [ %i5 + 0x2c ], %g1
   170ac:	86 10 3f ff 	mov  -1, %g3
   170b0:	83 28 60 03 	sll  %g1, 3, %g1
   170b4:	10 bf ff 8e 	b  16eec <do_dlclose+0x310>
   170b8:	c6 24 80 01 	st  %g3, [ %l2 + %g1 ]
   170bc:	10 bf ff 8b 	b  16ee8 <do_dlclose+0x30c>
   170c0:	b6 10 00 01 	mov  %g1, %i3
   170c4:	7f ff f5 b6 	call  1479c <free>
   170c8:	ec 02 00 00 	ld  [ %o0 ], %l6
   170cc:	10 bf ff a2 	b  16f54 <do_dlclose+0x378>
   170d0:	90 10 00 16 	mov  %l6, %o0
   170d4:	80 a0 60 00 	cmp  %g1, 0
   170d8:	22 bf ff ac 	be,a   16f88 <do_dlclose+0x3ac>
   170dc:	d0 06 80 00 	ld  [ %i2 ], %o0
   170e0:	c4 00 60 0c 	ld  [ %g1 + 0xc ], %g2
   170e4:	80 a0 80 1d 	cmp  %g2, %i5
   170e8:	32 bf ff fb 	bne,a   170d4 <do_dlclose+0x4f8>
   170ec:	82 10 00 02 	mov  %g2, %g1
   170f0:	c4 07 60 0c 	ld  [ %i5 + 0xc ], %g2
   170f4:	80 a0 a0 00 	cmp  %g2, 0
   170f8:	02 bf ff a3 	be  16f84 <do_dlclose+0x3a8>
   170fc:	c4 20 60 0c 	st  %g2, [ %g1 + 0xc ]
   17100:	10 bf ff a1 	b  16f84 <do_dlclose+0x3a8>
   17104:	c2 20 a0 10 	st  %g1, [ %g2 + 0x10 ]
   17108:	a4 10 00 08 	mov  %o0, %l2
   1710c:	d0 02 20 10 	ld  [ %o0 + 0x10 ], %o0
   17110:	80 a2 20 00 	cmp  %o0, 0
   17114:	02 bf ff a8 	be  16fb4 <do_dlclose+0x3d8>
   17118:	01 00 00 00 	nop 
   1711c:	c4 02 00 00 	ld  [ %o0 ], %g2
   17120:	80 a0 80 1d 	cmp  %g2, %i5
   17124:	32 bf ff fa 	bne,a   1710c <do_dlclose+0x530>
   17128:	a4 10 00 08 	mov  %o0, %l2
   1712c:	7f ff f5 9c 	call  1479c <free>
   17130:	ec 02 20 10 	ld  [ %o0 + 0x10 ], %l6
   17134:	80 a5 a0 00 	cmp  %l6, 0
   17138:	02 bf ff 9f 	be  16fb4 <do_dlclose+0x3d8>
   1713c:	ec 24 a0 10 	st  %l6, [ %l2 + 0x10 ]
   17140:	10 bf ff 9d 	b  16fb4 <do_dlclose+0x3d8>
   17144:	e4 25 a0 14 	st  %l2, [ %l6 + 0x14 ]
   17148:	7f ff f5 95 	call  1479c <free>
   1714c:	fa 02 20 10 	ld  [ %o0 + 0x10 ], %i5
   17150:	10 bf fe ea 	b  16cf8 <do_dlclose+0x11c>
   17154:	90 10 00 1d 	mov  %i5, %o0
   17158:	03 00 00 0a 	sethi  %hi(0x2800), %g1
   1715c:	82 18 63 78 	xor  %g1, 0x378, %g1
   17160:	82 05 c0 01 	add  %l7, %g1, %g1
   17164:	c4 00 40 00 	ld  [ %g1 ], %g2
   17168:	80 a0 80 1b 	cmp  %g2, %i3
   1716c:	22 80 00 02 	be,a   17174 <do_dlclose+0x598>
   17170:	f2 20 40 00 	st  %i1, [ %g1 ]
   17174:	03 00 00 01 	sethi  %hi(0x400), %g1
   17178:	82 18 63 64 	xor  %g1, 0x364, %g1
   1717c:	ae 05 c0 01 	add  %l7, %g1, %l7
   17180:	c2 05 c0 00 	ld  [ %l7 ], %g1
   17184:	80 a0 60 00 	cmp  %g1, 0
   17188:	02 bf fe bd 	be  16c7c <do_dlclose+0xa0>
   1718c:	01 00 00 00 	nop 
   17190:	f8 00 60 08 	ld  [ %g1 + 8 ], %i4
   17194:	80 a7 20 00 	cmp  %i4, 0
   17198:	02 bf fe b9 	be  16c7c <do_dlclose+0xa0>
   1719c:	84 10 20 02 	mov  2, %g2
   171a0:	9f c7 00 00 	call  %i4
   171a4:	c4 20 60 0c 	st  %g2, [ %g1 + 0xc ]
   171a8:	c2 05 c0 00 	ld  [ %l7 ], %g1
   171ac:	9f c7 00 00 	call  %i4
   171b0:	c0 20 60 0c 	clr  [ %g1 + 0xc ]
   171b4:	30 bf fe b2 	b,a   16c7c <do_dlclose+0xa0>
   171b8:	12 bf fe a7 	bne  16c54 <do_dlclose+0x78>
   171bc:	c4 06 20 04 	ld  [ %i0 + 4 ], %g2
   171c0:	10 bf fe a6 	b  16c58 <do_dlclose+0x7c>
   171c4:	c4 20 40 00 	st  %g2, [ %g1 ]

000171c8 <_dl_app_fini_array>:
   171c8:	9d e3 bf a0 	save  %sp, -96, %sp
   171cc:	2f 00 00 a3 	sethi  %hi(0x28c00), %l7
   171d0:	7f ff e5 95 	call  10824 <__sparc_get_pc_thunk.l7>
   171d4:	ae 05 e0 fc 	add  %l7, 0xfc, %l7	! 28cfc <__FRAME_END__+0x604>
   171d8:	03 00 00 09 	sethi  %hi(0x2400), %g1
   171dc:	82 18 63 a8 	xor  %g1, 0x3a8, %g1
   171e0:	ae 05 c0 01 	add  %l7, %g1, %l7
   171e4:	f0 05 c0 00 	ld  [ %l7 ], %i0
   171e8:	10 bf fe 69 	b  16b8c <_dl_run_fini_array>
   171ec:	81 e8 00 00 	restore 

000171f0 <_dl_add_elf_hash_table>:
   171f0:	9d e3 bf a0 	save  %sp, -96, %sp
   171f4:	7f ff f6 12 	call  14a3c <malloc>
   171f8:	90 10 21 28 	mov  0x128, %o0
   171fc:	ba 10 00 18 	mov  %i0, %i5
   17200:	94 10 21 28 	mov  0x128, %o2
   17204:	b0 10 00 08 	mov  %o0, %i0
   17208:	7f ff f2 b5 	call  13cdc <__GI_memset>
   1720c:	92 10 20 00 	clr  %o1
   17210:	03 00 00 09 	sethi  %hi(0x2400), %g1
   17214:	82 18 63 a8 	xor  %g1, 0x3a8, %g1
   17218:	2f 00 00 a3 	sethi  %hi(0x28c00), %l7
   1721c:	7f ff e5 82 	call  10824 <__sparc_get_pc_thunk.l7>
   17220:	ae 05 e0 b0 	add  %l7, 0xb0, %l7	! 28cb0 <__FRAME_END__+0x5b8>
   17224:	ae 05 c0 01 	add  %l7, %g1, %l7
   17228:	c2 05 c0 00 	ld  [ %l7 ], %g1
   1722c:	80 a0 60 00 	cmp  %g1, 0
   17230:	12 80 00 23 	bne  172bc <_dl_add_elf_hash_table+0xcc>
   17234:	84 10 00 01 	mov  %g1, %g2
   17238:	f0 25 c0 00 	st  %i0, [ %l7 ]
   1723c:	c0 26 20 0c 	clr  [ %i0 + 0xc ]
   17240:	c0 36 20 4e 	clrh  [ %i0 + 0x4e ]
   17244:	40 00 16 08 	call  1ca64 <__GI_strdup>
   17248:	90 10 00 1d 	mov  %i5, %o0
   1724c:	82 10 20 03 	mov  3, %g1
   17250:	d0 26 20 04 	st  %o0, [ %i0 + 4 ]
   17254:	f6 26 20 08 	st  %i3, [ %i0 + 8 ]
   17258:	c2 26 20 3c 	st  %g1, [ %i0 + 0x3c ]
   1725c:	c6 06 a0 10 	ld  [ %i2 + 0x10 ], %g3
   17260:	80 a0 e0 00 	cmp  %g3, 0
   17264:	22 80 00 0c 	be,a   17294 <_dl_add_elf_hash_table+0xa4>
   17268:	f2 26 00 00 	st  %i1, [ %i0 ]
   1726c:	c4 00 c0 00 	ld  [ %g3 ], %g2
   17270:	82 00 e0 08 	add  %g3, 8, %g1
   17274:	c4 26 20 54 	st  %g2, [ %i0 + 0x54 ]
   17278:	85 28 a0 02 	sll  %g2, 2, %g2
   1727c:	c6 00 e0 04 	ld  [ %g3 + 4 ], %g3
   17280:	c2 26 20 58 	st  %g1, [ %i0 + 0x58 ]
   17284:	c6 26 20 64 	st  %g3, [ %i0 + 0x64 ]
   17288:	82 00 40 02 	add  %g1, %g2, %g1
   1728c:	c2 26 20 68 	st  %g1, [ %i0 + 0x68 ]
   17290:	f2 26 00 00 	st  %i1, [ %i0 ]
   17294:	82 10 20 00 	clr  %g1
   17298:	84 06 20 6c 	add  %i0, 0x6c, %g2
   1729c:	c6 06 80 01 	ld  [ %i2 + %g1 ], %g3
   172a0:	c6 20 80 01 	st  %g3, [ %g2 + %g1 ]
   172a4:	82 00 60 04 	add  %g1, 4, %g1
   172a8:	80 a0 60 9c 	cmp  %g1, 0x9c
   172ac:	32 bf ff fd 	bne,a   172a0 <_dl_add_elf_hash_table+0xb0>
   172b0:	c6 06 80 01 	ld  [ %i2 + %g1 ], %g3
   172b4:	81 c7 e0 08 	ret 
   172b8:	81 e8 00 00 	restore 
   172bc:	c2 00 60 0c 	ld  [ %g1 + 0xc ], %g1
   172c0:	80 a0 60 00 	cmp  %g1, 0
   172c4:	32 bf ff fe 	bne,a   172bc <_dl_add_elf_hash_table+0xcc>
   172c8:	84 10 00 01 	mov  %g1, %g2
   172cc:	f0 20 a0 0c 	st  %i0, [ %g2 + 0xc ]
   172d0:	10 bf ff db 	b  1723c <_dl_add_elf_hash_table+0x4c>
   172d4:	c4 26 20 10 	st  %g2, [ %i0 + 0x10 ]

000172d8 <_dl_find_hash>:
   172d8:	9d e3 bf 98 	save  %sp, -104, %sp
   172dc:	80 a7 20 00 	cmp  %i4, 0
   172e0:	02 80 00 07 	be  172fc <_dl_find_hash+0x24>
   172e4:	80 a0 00 1a 	cmp  %g0, %i2
   172e8:	d0 07 00 00 	ld  [ %i4 ], %o0
   172ec:	80 a2 20 00 	cmp  %o0, 0
   172f0:	32 80 00 11 	bne,a   17334 <_dl_find_hash+0x5c>
   172f4:	c2 0a 20 0d 	ldub  [ %o0 + 0xd ], %g1
   172f8:	80 a0 00 1a 	cmp  %g0, %i2
   172fc:	25 03 ff ff 	sethi  %hi(0xffffc00), %l2
   17300:	a0 10 3f ff 	mov  -1, %l0
   17304:	ba 10 20 00 	clr  %i5
   17308:	90 10 20 00 	clr  %o0
   1730c:	aa 40 20 00 	addx  %g0, 0, %l5
   17310:	ac 0e e0 02 	and  %i3, 2, %l6
   17314:	a4 14 a3 ff 	or  %l2, 0x3ff, %l2
   17318:	80 a6 60 00 	cmp  %i1, 0
   1731c:	02 80 00 73 	be  174e8 <_dl_find_hash+0x210>
   17320:	80 a2 20 00 	cmp  %o0, 0
   17324:	12 80 00 75 	bne  174f8 <_dl_find_hash+0x220>
   17328:	a2 10 20 00 	clr  %l1
   1732c:	10 80 00 19 	b  17390 <_dl_find_hash+0xb8>
   17330:	e6 06 60 04 	ld  [ %i1 + 4 ], %l3
   17334:	82 08 60 03 	and  %g1, 3, %g1
   17338:	80 a0 60 03 	cmp  %g1, 3
   1733c:	12 bf ff f0 	bne  172fc <_dl_find_hash+0x24>
   17340:	80 a0 00 1a 	cmp  %g0, %i2
   17344:	ba 10 00 1a 	mov  %i2, %i5
   17348:	d0 27 00 00 	st  %o0, [ %i4 ]
   1734c:	10 80 00 6e 	b  17504 <_dl_find_hash+0x22c>
   17350:	fa 27 20 04 	st  %i5, [ %i4 + 4 ]
   17354:	c4 06 40 00 	ld  [ %i1 ], %g2
   17358:	fa 00 80 01 	ld  [ %g2 + %g1 ], %i5
   1735c:	c2 07 60 50 	ld  [ %i5 + 0x50 ], %g1
   17360:	83 30 60 08 	srl  %g1, 8, %g1
   17364:	82 18 60 01 	xor  %g1, 1, %g1
   17368:	80 88 40 15 	btst  %g1, %l5
   1736c:	02 80 00 14 	be  173bc <_dl_find_hash+0xe4>
   17370:	80 a6 80 1d 	cmp  %i2, %i5
   17374:	02 80 00 13 	be  173c0 <_dl_find_hash+0xe8>
   17378:	80 a5 a0 00 	cmp  %l6, 0
   1737c:	c2 06 a0 60 	ld  [ %i2 + 0x60 ], %g1
   17380:	80 a0 60 00 	cmp  %g1, 0
   17384:	32 80 00 09 	bne,a   173a8 <_dl_find_hash+0xd0>
   17388:	c4 00 60 04 	ld  [ %g1 + 4 ], %g2
   1738c:	a2 04 60 01 	inc  %l1
   17390:	80 a4 40 13 	cmp  %l1, %l3
   17394:	32 bf ff f0 	bne,a   17354 <_dl_find_hash+0x7c>
   17398:	83 2c 60 02 	sll  %l1, 2, %g1
   1739c:	90 10 20 00 	clr  %o0
   173a0:	10 bf ff de 	b  17318 <_dl_find_hash+0x40>
   173a4:	f2 06 60 08 	ld  [ %i1 + 8 ], %i1
   173a8:	80 a0 80 1d 	cmp  %g2, %i5
   173ac:	02 80 00 05 	be  173c0 <_dl_find_hash+0xe8>
   173b0:	80 a5 a0 00 	cmp  %l6, 0
   173b4:	10 bf ff f3 	b  17380 <_dl_find_hash+0xa8>
   173b8:	c2 00 40 00 	ld  [ %g1 ], %g1
   173bc:	80 a5 a0 00 	cmp  %l6, 0
   173c0:	22 80 00 07 	be,a   173dc <_dl_find_hash+0x104>
   173c4:	c8 07 60 54 	ld  [ %i5 + 0x54 ], %g4
   173c8:	c2 07 60 3c 	ld  [ %i5 + 0x3c ], %g1
   173cc:	80 a0 60 01 	cmp  %g1, 1
   173d0:	22 bf ff f0 	be,a   17390 <_dl_find_hash+0xb8>
   173d4:	a2 04 60 01 	inc  %l1
   173d8:	c8 07 60 54 	ld  [ %i5 + 0x54 ], %g4
   173dc:	80 a1 20 00 	cmp  %g4, 0
   173e0:	22 bf ff ec 	be,a   17390 <_dl_find_hash+0xb8>
   173e4:	a2 04 60 01 	inc  %l1
   173e8:	80 a4 3f ff 	cmp  %l0, -1
   173ec:	12 80 00 0f 	bne  17428 <_dl_find_hash+0x150>
   173f0:	ee 07 60 84 	ld  [ %i5 + 0x84 ], %l7
   173f4:	84 10 00 18 	mov  %i0, %g2
   173f8:	10 80 00 08 	b  17418 <_dl_find_hash+0x140>
   173fc:	a0 10 20 00 	clr  %l0
   17400:	84 00 a0 01 	inc  %g2
   17404:	82 00 40 10 	add  %g1, %l0, %g1
   17408:	a0 08 40 12 	and  %g1, %l2, %l0
   1740c:	83 30 60 18 	srl  %g1, 0x18, %g1
   17410:	82 08 60 f0 	and  %g1, 0xf0, %g1
   17414:	a0 1c 00 01 	xor  %l0, %g1, %l0
   17418:	c2 08 80 00 	ldub  [ %g2 ], %g1
   1741c:	80 a0 60 00 	cmp  %g1, 0
   17420:	32 bf ff f8 	bne,a   17400 <_dl_find_hash+0x128>
   17424:	a1 2c 20 04 	sll  %l0, 4, %l0
   17428:	82 10 00 04 	mov  %g4, %g1
   1742c:	84 10 20 00 	clr  %g2
   17430:	80 a0 60 00 	cmp  %g1, 0
   17434:	16 80 00 21 	bge  174b8 <_dl_find_hash+0x1e0>
   17438:	82 00 40 01 	add  %g1, %g1, %g1
   1743c:	84 00 bf ff 	add  %g2, -1, %g2
   17440:	82 10 00 10 	mov  %l0, %g1
   17444:	80 a0 a0 02 	cmp  %g2, 2
   17448:	08 80 00 07 	bleu  17464 <_dl_find_hash+0x18c>
   1744c:	80 a1 00 01 	cmp  %g4, %g1
   17450:	87 29 00 02 	sll  %g4, %g2, %g3
   17454:	80 a0 e0 00 	cmp  %g3, 0
   17458:	16 80 00 20 	bge  174d8 <_dl_find_hash+0x200>
   1745c:	80 a0 40 03 	cmp  %g1, %g3
   17460:	80 a1 00 01 	cmp  %g4, %g1
   17464:	28 bf ff ff 	bleu,a   17460 <_dl_find_hash+0x188>
   17468:	82 20 40 04 	sub  %g1, %g4, %g1
   1746c:	c4 07 60 58 	ld  [ %i5 + 0x58 ], %g2
   17470:	83 28 60 02 	sll  %g1, 2, %g1
   17474:	d2 07 60 80 	ld  [ %i5 + 0x80 ], %o1
   17478:	e8 00 80 01 	ld  [ %g2 + %g1 ], %l4
   1747c:	80 a5 20 00 	cmp  %l4, 0
   17480:	02 bf ff c3 	be  1738c <_dl_find_hash+0xb4>
   17484:	91 2d 20 04 	sll  %l4, 4, %o0
   17488:	96 10 00 1b 	mov  %i3, %o3
   1748c:	94 10 00 18 	mov  %i0, %o2
   17490:	d2 27 bf fc 	st  %o1, [ %fp + -4 ]
   17494:	7f ff fd 37 	call  16970 <check_match>
   17498:	90 05 c0 08 	add  %l7, %o0, %o0
   1749c:	80 a2 20 00 	cmp  %o0, 0
   174a0:	12 bf ff c0 	bne  173a0 <_dl_find_hash+0xc8>
   174a4:	d2 07 bf fc 	ld  [ %fp + -4 ], %o1
   174a8:	83 2d 20 02 	sll  %l4, 2, %g1
   174ac:	c4 07 60 68 	ld  [ %i5 + 0x68 ], %g2
   174b0:	10 bf ff f3 	b  1747c <_dl_find_hash+0x1a4>
   174b4:	e8 00 80 01 	ld  [ %g2 + %g1 ], %l4
   174b8:	10 bf ff de 	b  17430 <_dl_find_hash+0x158>
   174bc:	84 00 a0 01 	inc  %g2
   174c0:	86 00 c0 03 	add  %g3, %g3, %g3
   174c4:	80 a0 c0 04 	cmp  %g3, %g4
   174c8:	0a 80 00 06 	bcs  174e0 <_dl_find_hash+0x208>
   174cc:	80 a0 e0 00 	cmp  %g3, 0
   174d0:	06 80 00 04 	bl  174e0 <_dl_find_hash+0x208>
   174d4:	80 a0 40 03 	cmp  %g1, %g3
   174d8:	3a bf ff fa 	bcc,a   174c0 <_dl_find_hash+0x1e8>
   174dc:	82 20 40 03 	sub  %g1, %g3, %g1
   174e0:	10 bf ff d9 	b  17444 <_dl_find_hash+0x16c>
   174e4:	84 00 bf ff 	add  %g2, -1, %g2
   174e8:	12 80 00 05 	bne  174fc <_dl_find_hash+0x224>
   174ec:	80 a7 20 00 	cmp  %i4, 0
   174f0:	81 c7 e0 08 	ret 
   174f4:	91 e8 20 00 	restore  %g0, 0, %o0
   174f8:	80 a7 20 00 	cmp  %i4, 0
   174fc:	32 bf ff 94 	bne,a   1734c <_dl_find_hash+0x74>
   17500:	d0 27 00 00 	st  %o0, [ %i4 ]
   17504:	c2 0a 20 0c 	ldub  [ %o0 + 0xc ], %g1
   17508:	84 08 60 0f 	and  %g1, 0xf, %g2
   1750c:	80 a0 a0 06 	cmp  %g2, 6
   17510:	32 80 00 05 	bne,a   17524 <_dl_find_hash+0x24c>
   17514:	82 08 60 ff 	and  %g1, 0xff, %g1
   17518:	f0 02 20 04 	ld  [ %o0 + 4 ], %i0
   1751c:	81 c7 e0 08 	ret 
   17520:	81 e8 00 00 	restore 
   17524:	83 30 60 04 	srl  %g1, 4, %g1
   17528:	82 00 7f ff 	add  %g1, -1, %g1
   1752c:	80 a0 60 01 	cmp  %g1, 1
   17530:	18 bf ff f0 	bgu  174f0 <_dl_find_hash+0x218>
   17534:	01 00 00 00 	nop 
   17538:	f0 07 40 00 	ld  [ %i5 ], %i0
   1753c:	c2 02 20 04 	ld  [ %o0 + 4 ], %g1
   17540:	81 c7 e0 08 	ret 
   17544:	91 ee 00 01 	restore  %i0, %g1, %o0

00017548 <_dl_linux_resolver>:
   17548:	9d e3 bf a0 	save  %sp, -96, %sp
   1754c:	c4 06 20 c8 	ld  [ %i0 + 0xc8 ], %g2
   17550:	c6 06 20 84 	ld  [ %i0 + 0x84 ], %g3
   17554:	b3 3e 60 0a 	sra  %i1, 0xa, %i1
   17558:	b2 06 7f f4 	add  %i1, -12, %i1
   1755c:	82 06 40 02 	add  %i1, %g2, %g1
   17560:	c2 00 60 04 	ld  [ %g1 + 4 ], %g1
   17564:	83 30 60 08 	srl  %g1, 8, %g1
   17568:	83 28 60 04 	sll  %g1, 4, %g1
   1756c:	c2 00 c0 01 	ld  [ %g3 + %g1 ], %g1
   17570:	f8 06 20 80 	ld  [ %i0 + 0x80 ], %i4
   17574:	b8 07 00 01 	add  %i4, %g1, %i4
   17578:	c2 06 00 00 	ld  [ %i0 ], %g1
   1757c:	fa 06 40 02 	ld  [ %i1 + %g2 ], %i5
   17580:	2f 00 00 a2 	sethi  %hi(0x28800), %l7
   17584:	7f ff e4 a8 	call  10824 <__sparc_get_pc_thunk.l7>
   17588:	ae 05 e1 48 	add  %l7, 0x148, %l7	! 28948 <__FRAME_END__+0x250>
   1758c:	ba 07 40 01 	add  %i5, %g1, %i5
   17590:	03 00 00 09 	sethi  %hi(0x2400), %g1
   17594:	82 18 63 a8 	xor  %g1, 0x3a8, %g1
   17598:	82 05 c0 01 	add  %l7, %g1, %g1
   1759c:	94 10 00 18 	mov  %i0, %o2
   175a0:	d2 00 40 00 	ld  [ %g1 ], %o1
   175a4:	98 10 20 00 	clr  %o4
   175a8:	96 10 20 01 	mov  1, %o3
   175ac:	92 02 60 40 	add  %o1, 0x40, %o1
   175b0:	7f ff ff 4a 	call  172d8 <_dl_find_hash>
   175b4:	90 10 00 1c 	mov  %i4, %o0
   175b8:	b0 92 20 00 	orcc  %o0, 0, %i0
   175bc:	12 80 00 15 	bne  17610 <_dl_linux_resolver+0xc8>
   175c0:	83 36 20 0a 	srl  %i0, 0xa, %g1
   175c4:	03 00 00 00 	sethi  %hi(0), %g1
   175c8:	82 18 62 64 	xor  %g1, 0x264, %g1
   175cc:	82 05 c0 01 	add  %l7, %g1, %g1
   175d0:	96 10 00 1c 	mov  %i4, %o3
   175d4:	d4 00 40 00 	ld  [ %g1 ], %o2
   175d8:	13 00 00 82 	sethi  %hi(0x20800), %o1
   175dc:	90 10 20 02 	mov  2, %o0
   175e0:	92 1a 7f ac 	xor  %o1, -84, %o1
   175e4:	7f ff e5 7b 	call  10bd0 <dprintf>
   175e8:	92 05 c0 09 	add  %l7, %o1, %o1
   175ec:	82 10 20 01 	mov  1, %g1
   175f0:	90 10 20 01 	mov  1, %o0
   175f4:	91 d0 20 10 	ta  0x10
   175f8:	1a 80 00 03 	bcc  17604 <_dl_linux_resolver+0xbc>
   175fc:	ba 10 00 08 	mov  %o0, %i5
   17600:	ba 20 00 08 	neg  %o0, %i5
   17604:	7f ff e5 5e 	call  10b7c <__errno_location>
   17608:	ba 20 00 1d 	neg  %i5
   1760c:	fa 22 00 00 	st  %i5, [ %o0 ]
   17610:	05 00 c0 00 	sethi  %hi(0x3000000), %g2
   17614:	82 10 40 02 	or  %g1, %g2, %g1
   17618:	05 20 70 18 	sethi  %hi(0x81c06000), %g2
   1761c:	c2 27 60 04 	st  %g1, [ %i5 + 4 ]
   17620:	82 0e 23 ff 	and  %i0, 0x3ff, %g1
   17624:	82 10 40 02 	or  %g1, %g2, %g1
   17628:	c2 27 60 08 	st  %g1, [ %i5 + 8 ]
   1762c:	81 c7 e0 08 	ret 
   17630:	81 e8 00 00 	restore 

00017634 <_dl_parse_relocation_information>:
   17634:	9d e3 bf 90 	save  %sp, -112, %sp
   17638:	2f 00 00 a2 	sethi  %hi(0x28800), %l7
   1763c:	7f ff e4 7a 	call  10824 <__sparc_get_pc_thunk.l7>
   17640:	ae 05 e0 90 	add  %l7, 0x90, %l7	! 28890 <__FRAME_END__+0x198>
   17644:	e0 06 00 00 	ld  [ %i0 ], %l0
   17648:	23 00 00 a5 	sethi  %hi(0x29400), %l1
   1764c:	f2 27 bf f4 	st  %i1, [ %fp + -12 ]
   17650:	a2 14 62 18 	or  %l1, 0x218, %l1
   17654:	81 80 20 00 	wr  %g0, %y
   17658:	01 00 00 00 	nop 
   1765c:	01 00 00 00 	nop 
   17660:	01 00 00 00 	nop 
   17664:	b6 76 e0 0c 	udiv  %i3, 0xc, %i3
   17668:	e6 04 20 84 	ld  [ %l0 + 0x84 ], %l3
   1766c:	e8 04 20 80 	ld  [ %l0 + 0x80 ], %l4
   17670:	a4 10 20 00 	clr  %l2
   17674:	a2 25 c0 11 	sub  %l7, %l1, %l1
   17678:	80 a6 c0 12 	cmp  %i3, %l2
   1767c:	32 80 00 04 	bne,a   1768c <_dl_parse_relocation_information+0x58>
   17680:	f0 04 00 00 	ld  [ %l0 ], %i0
   17684:	81 c7 e0 08 	ret 
   17688:	91 e8 20 00 	restore  %g0, 0, %o0
   1768c:	fa 06 a0 04 	ld  [ %i2 + 4 ], %i5
   17690:	c0 27 bf fc 	clr  [ %fp + -4 ]
   17694:	b3 37 60 08 	srl  %i5, 8, %i1
   17698:	ad 2e 60 04 	sll  %i1, 4, %l6
   1769c:	82 04 c0 16 	add  %l3, %l6, %g1
   176a0:	c2 27 bf f8 	st  %g1, [ %fp + -8 ]
   176a4:	f8 06 80 00 	ld  [ %i2 ], %i4
   176a8:	ba 0f 60 ff 	and  %i5, 0xff, %i5
   176ac:	aa 06 00 1c 	add  %i0, %i4, %l5
   176b0:	80 a6 60 00 	cmp  %i1, 0
   176b4:	02 80 00 31 	be  17778 <_dl_parse_relocation_information+0x144>
   176b8:	d0 04 c0 16 	ld  [ %l3 + %l6 ], %o0
   176bc:	80 a7 60 4e 	cmp  %i5, 0x4e
   176c0:	18 80 00 2a 	bgu  17768 <_dl_parse_relocation_information+0x134>
   176c4:	80 a7 60 49 	cmp  %i5, 0x49
   176c8:	18 80 00 23 	bgu  17754 <_dl_parse_relocation_information+0x120>
   176cc:	80 a7 60 13 	cmp  %i5, 0x13
   176d0:	02 80 00 28 	be  17770 <_dl_parse_relocation_information+0x13c>
   176d4:	82 10 20 00 	clr  %g1
   176d8:	82 1f 60 15 	xor  %i5, 0x15, %g1
   176dc:	80 a0 00 01 	cmp  %g0, %g1
   176e0:	82 60 3f ff 	subx  %g0, -1, %g1
   176e4:	96 10 20 00 	clr  %o3
   176e8:	d2 07 bf f4 	ld  [ %fp + -12 ], %o1
   176ec:	98 07 bf f8 	add  %fp, -8, %o4
   176f0:	96 12 c0 01 	or  %o3, %g1, %o3
   176f4:	94 10 00 10 	mov  %l0, %o2
   176f8:	7f ff fe f8 	call  172d8 <_dl_find_hash>
   176fc:	90 05 00 08 	add  %l4, %o0, %o0
   17700:	92 92 20 00 	orcc  %o0, 0, %o1
   17704:	12 80 00 0d 	bne  17738 <_dl_parse_relocation_information+0x104>
   17708:	d0 07 bf fc 	ld  [ %fp + -4 ], %o0
   1770c:	c2 07 bf f8 	ld  [ %fp + -8 ], %g1
   17710:	c2 08 60 0c 	ldub  [ %g1 + 0xc ], %g1
   17714:	86 08 60 0f 	and  %g1, 0xf, %g3
   17718:	80 a0 e0 06 	cmp  %g3, 6
   1771c:	02 80 00 08 	be  1773c <_dl_parse_relocation_information+0x108>
   17720:	80 a7 60 16 	cmp  %i5, 0x16
   17724:	82 08 60 ff 	and  %g1, 0xff, %g1
   17728:	83 30 60 04 	srl  %g1, 4, %g1
   1772c:	80 a0 60 02 	cmp  %g1, 2
   17730:	32 80 00 68 	bne,a   178d0 <_dl_parse_relocation_information+0x29c>
   17734:	ba 10 20 01 	mov  1, %i5
   17738:	80 a7 60 16 	cmp  %i5, 0x16
   1773c:	18 80 00 12 	bgu  17784 <_dl_parse_relocation_information+0x150>
   17740:	c6 06 a0 08 	ld  [ %i2 + 8 ], %g3
   17744:	bb 2f 60 02 	sll  %i5, 2, %i5
   17748:	c2 04 40 1d 	ld  [ %l1 + %i5 ], %g1
   1774c:	81 c4 40 01 	jmp  %l1 + %g1
   17750:	92 00 c0 09 	add  %g3, %o1, %o1
   17754:	86 07 7f b6 	add  %i5, -74, %g3
   17758:	82 10 20 15 	mov  0x15, %g1
   1775c:	83 30 40 03 	srl  %g1, %g3, %g1
   17760:	10 bf ff e1 	b  176e4 <_dl_parse_relocation_information+0xb0>
   17764:	82 08 60 01 	and  %g1, 1, %g1
   17768:	10 bf ff df 	b  176e4 <_dl_parse_relocation_information+0xb0>
   1776c:	82 10 20 00 	clr  %g1
   17770:	10 bf ff de 	b  176e8 <_dl_parse_relocation_information+0xb4>
   17774:	96 10 20 02 	mov  2, %o3
   17778:	d2 00 60 04 	ld  [ %g1 + 4 ], %o1
   1777c:	10 bf ff ef 	b  17738 <_dl_parse_relocation_information+0x104>
   17780:	90 10 00 10 	mov  %l0, %o0
   17784:	80 a7 60 4c 	cmp  %i5, 0x4c
   17788:	02 80 00 40 	be  17888 <_dl_parse_relocation_information+0x254>
   1778c:	80 a7 60 4e 	cmp  %i5, 0x4e
   17790:	02 80 00 42 	be  17898 <_dl_parse_relocation_information+0x264>
   17794:	80 a7 60 4a 	cmp  %i5, 0x4a
   17798:	22 80 00 20 	be,a   17818 <_dl_parse_relocation_information+0x1e4>
   1779c:	c2 02 20 2c 	ld  [ %o0 + 0x2c ], %g1
   177a0:	10 80 00 4c 	b  178d0 <_dl_parse_relocation_information+0x29c>
   177a4:	ba 10 3f ff 	mov  -1, %i5
   177a8:	92 22 40 15 	sub  %o1, %l5, %o1
   177ac:	d2 26 00 1c 	st  %o1, [ %i0 + %i4 ]
   177b0:	a4 04 a0 01 	inc  %l2
   177b4:	10 bf ff b1 	b  17678 <_dl_parse_relocation_information+0x44>
   177b8:	b4 06 a0 0c 	add  %i2, 0xc, %i2
   177bc:	80 a2 60 00 	cmp  %o1, 0
   177c0:	12 80 00 04 	bne  177d0 <_dl_parse_relocation_information+0x19c>
   177c4:	82 00 c0 09 	add  %g3, %o1, %g1
   177c8:	c2 04 00 00 	ld  [ %l0 ], %g1
   177cc:	82 00 c0 01 	add  %g3, %g1, %g1
   177d0:	c4 06 00 1c 	ld  [ %i0 + %i4 ], %g2
   177d4:	82 08 63 ff 	and  %g1, 0x3ff, %g1
   177d8:	84 08 bc 00 	and  %g2, -1024, %g2
   177dc:	10 80 00 0f 	b  17818 <_dl_parse_relocation_information+0x1e4>
   177e0:	82 10 80 01 	or  %g2, %g1, %g1
   177e4:	83 32 60 0a 	srl  %o1, 0xa, %g1
   177e8:	05 00 c0 00 	sethi  %hi(0x3000000), %g2
   177ec:	82 10 40 02 	or  %g1, %g2, %g1
   177f0:	92 0a 63 ff 	and  %o1, 0x3ff, %o1
   177f4:	c2 25 60 04 	st  %g1, [ %l5 + 4 ]
   177f8:	03 20 70 18 	sethi  %hi(0x81c06000), %g1
   177fc:	92 12 40 01 	or  %o1, %g1, %o1
   17800:	10 bf ff ec 	b  177b0 <_dl_parse_relocation_information+0x17c>
   17804:	d2 25 60 08 	st  %o1, [ %l5 + 8 ]
   17808:	c4 04 00 00 	ld  [ %l0 ], %g2
   1780c:	c2 06 00 1c 	ld  [ %i0 + %i4 ], %g1
   17810:	84 00 c0 02 	add  %g3, %g2, %g2
   17814:	82 00 40 02 	add  %g1, %g2, %g1
   17818:	10 bf ff e6 	b  177b0 <_dl_parse_relocation_information+0x17c>
   1781c:	c2 26 00 1c 	st  %g1, [ %i0 + %i4 ]
   17820:	c2 06 00 1c 	ld  [ %i0 + %i4 ], %g1
   17824:	05 30 00 00 	sethi  %hi(0xc0000000), %g2
   17828:	92 22 40 15 	sub  %o1, %l5, %o1
   1782c:	82 08 40 02 	and  %g1, %g2, %g1
   17830:	93 32 60 02 	srl  %o1, 2, %o1
   17834:	10 bf ff f9 	b  17818 <_dl_parse_relocation_information+0x1e4>
   17838:	82 10 40 09 	or  %g1, %o1, %g1
   1783c:	80 a2 60 00 	cmp  %o1, 0
   17840:	12 80 00 04 	bne  17850 <_dl_parse_relocation_information+0x21c>
   17844:	82 00 c0 09 	add  %g3, %o1, %g1
   17848:	c2 04 00 00 	ld  [ %l0 ], %g1
   1784c:	82 00 c0 01 	add  %g3, %g1, %g1
   17850:	c4 06 00 1c 	ld  [ %i0 + %i4 ], %g2
   17854:	07 3f f0 00 	sethi  %hi(0xffc00000), %g3
   17858:	83 30 60 0a 	srl  %g1, 0xa, %g1
   1785c:	10 bf ff e0 	b  177dc <_dl_parse_relocation_information+0x1a8>
   17860:	84 08 80 03 	and  %g2, %g3, %g2
   17864:	80 a2 60 00 	cmp  %o1, 0
   17868:	22 bf ff d3 	be,a   177b4 <_dl_parse_relocation_information+0x180>
   1786c:	a4 04 a0 01 	inc  %l2
   17870:	c2 07 bf f8 	ld  [ %fp + -8 ], %g1
   17874:	90 10 00 15 	mov  %l5, %o0
   17878:	7f ff ec ef 	call  12c34 <__GI_memcpy>
   1787c:	d4 00 60 08 	ld  [ %g1 + 8 ], %o2
   17880:	10 bf ff cd 	b  177b4 <_dl_parse_relocation_information+0x180>
   17884:	a4 04 a0 01 	inc  %l2
   17888:	c2 07 bf f8 	ld  [ %fp + -8 ], %g1
   1788c:	c2 00 60 04 	ld  [ %g1 + 4 ], %g1
   17890:	10 bf ff e2 	b  17818 <_dl_parse_relocation_information+0x1e4>
   17894:	82 00 40 03 	add  %g1, %g3, %g1
   17898:	c2 02 20 28 	ld  [ %o0 + 0x28 ], %g1
   1789c:	80 a0 60 00 	cmp  %g1, 0
   178a0:	32 80 00 06 	bne,a   178b8 <_dl_parse_relocation_information+0x284>
   178a4:	c4 06 a0 08 	ld  [ %i2 + 8 ], %g2
   178a8:	40 00 15 e5 	call  1d03c <_dl_allocate_static_tls>
   178ac:	d0 27 bf f0 	st  %o0, [ %fp + -16 ]
   178b0:	d0 07 bf f0 	ld  [ %fp + -16 ], %o0
   178b4:	c4 06 a0 08 	ld  [ %i2 + 8 ], %g2
   178b8:	c2 07 bf f8 	ld  [ %fp + -8 ], %g1
   178bc:	c2 00 60 04 	ld  [ %g1 + 4 ], %g1
   178c0:	82 00 40 02 	add  %g1, %g2, %g1
   178c4:	c4 02 20 28 	ld  [ %o0 + 0x28 ], %g2
   178c8:	10 bf ff d4 	b  17818 <_dl_parse_relocation_information+0x1e4>
   178cc:	82 20 40 02 	sub  %g1, %g2, %g1
   178d0:	03 00 00 00 	sethi  %hi(0), %g1
   178d4:	82 18 62 64 	xor  %g1, 0x264, %g1
   178d8:	82 05 c0 01 	add  %l7, %g1, %g1
   178dc:	13 00 00 82 	sethi  %hi(0x20800), %o1
   178e0:	d4 00 40 00 	ld  [ %g1 ], %o2
   178e4:	92 1a 7f cc 	xor  %o1, -52, %o1
   178e8:	90 10 20 02 	mov  2, %o0
   178ec:	7f ff e4 b9 	call  10bd0 <dprintf>
   178f0:	92 05 c0 09 	add  %l7, %o1, %o1
   178f4:	80 a6 60 00 	cmp  %i1, 0
   178f8:	02 80 00 0a 	be  17920 <_dl_parse_relocation_information+0x2ec>
   178fc:	80 a7 7f ff 	cmp  %i5, -1
   17900:	d4 04 c0 16 	ld  [ %l3 + %l6 ], %o2
   17904:	13 00 00 82 	sethi  %hi(0x20800), %o1
   17908:	94 05 00 0a 	add  %l4, %o2, %o2
   1790c:	92 1a 7f d4 	xor  %o1, -44, %o1
   17910:	90 10 20 02 	mov  2, %o0
   17914:	7f ff e4 af 	call  10bd0 <dprintf>
   17918:	92 05 c0 09 	add  %l7, %o1, %o1
   1791c:	80 a7 7f ff 	cmp  %i5, -1
   17920:	32 80 00 11 	bne,a   17964 <_dl_parse_relocation_information+0x330>
   17924:	13 00 00 81 	sethi  %hi(0x20400), %o1
   17928:	d4 0e a0 07 	ldub  [ %i2 + 7 ], %o2
   1792c:	13 00 00 82 	sethi  %hi(0x20800), %o1
   17930:	90 10 20 02 	mov  2, %o0
   17934:	92 1a 7f e4 	xor  %o1, -28, %o1
   17938:	7f ff e4 a6 	call  10bd0 <dprintf>
   1793c:	92 05 c0 09 	add  %l7, %o1, %o1
   17940:	82 10 20 01 	mov  1, %g1
   17944:	90 10 20 01 	mov  1, %o0
   17948:	91 d0 20 10 	ta  0x10
   1794c:	1a 80 00 03 	bcc  17958 <_dl_parse_relocation_information+0x324>
   17950:	ba 10 00 08 	mov  %o0, %i5
   17954:	ba 20 00 08 	neg  %o0, %i5
   17958:	7f ff e4 89 	call  10b7c <__errno_location>
   1795c:	ba 20 00 1d 	neg  %i5
   17960:	fa 22 00 00 	st  %i5, [ %o0 ]
   17964:	90 10 20 02 	mov  2, %o0
   17968:	92 1a 7c 04 	xor  %o1, -1020, %o1
   1796c:	b0 10 20 01 	mov  1, %i0
   17970:	7f ff e4 98 	call  10bd0 <dprintf>
   17974:	92 05 c0 09 	add  %l7, %o1, %o1
   17978:	81 c7 e0 08 	ret 
   1797c:	81 e8 00 00 	restore 

00017980 <_dl_parse_lazy_relocation_information>:
   17980:	9d e3 bf a0 	save  %sp, -96, %sp
   17984:	03 00 00 09 	sethi  %hi(0x2400), %g1
   17988:	82 18 63 a8 	xor  %g1, 0x3a8, %g1
   1798c:	2f 00 00 a1 	sethi  %hi(0x28400), %l7
   17990:	7f ff e3 a5 	call  10824 <__sparc_get_pc_thunk.l7>
   17994:	ae 05 e1 3c 	add  %l7, 0x13c, %l7	! 2853c <__EH_FRAME_BEGIN__+0x4c>
   17998:	b6 10 00 1a 	mov  %i2, %i3
   1799c:	ae 05 c0 01 	add  %l7, %g1, %l7
   179a0:	b4 10 00 19 	mov  %i1, %i2
   179a4:	c2 05 c0 00 	ld  [ %l7 ], %g1
   179a8:	10 bf ff 23 	b  17634 <_dl_parse_relocation_information>
   179ac:	93 e8 60 40 	restore  %g1, 0x40, %o1

000179b0 <_dl_protect_relro>:
   179b0:	9d e3 bf a0 	save  %sp, -96, %sp
   179b4:	c2 06 21 10 	ld  [ %i0 + 0x110 ], %g1
   179b8:	2f 00 00 a1 	sethi  %hi(0x28400), %l7
   179bc:	7f ff e3 9a 	call  10824 <__sparc_get_pc_thunk.l7>
   179c0:	ae 05 e1 10 	add  %l7, 0x110, %l7	! 28510 <__EH_FRAME_BEGIN__+0x20>
   179c4:	d2 06 00 00 	ld  [ %i0 ], %o1
   179c8:	c4 06 21 14 	ld  [ %i0 + 0x114 ], %g2
   179cc:	92 02 40 01 	add  %o1, %g1, %o1
   179d0:	03 00 00 00 	sethi  %hi(0), %g1
   179d4:	82 18 62 48 	xor  %g1, 0x248, %g1
   179d8:	82 05 c0 01 	add  %l7, %g1, %g1
   179dc:	c2 00 40 00 	ld  [ %g1 ], %g1
   179e0:	82 20 00 01 	neg  %g1
   179e4:	90 08 40 09 	and  %g1, %o1, %o0
   179e8:	92 02 40 02 	add  %o1, %g2, %o1
   179ec:	92 0a 40 01 	and  %o1, %g1, %o1
   179f0:	80 a2 00 09 	cmp  %o0, %o1
   179f4:	02 80 00 1f 	be  17a70 <_dl_protect_relro+0xc0>
   179f8:	82 10 20 4a 	mov  0x4a, %g1
   179fc:	94 10 20 01 	mov  1, %o2
   17a00:	92 22 40 08 	sub  %o1, %o0, %o1
   17a04:	91 d0 20 10 	ta  0x10
   17a08:	1a 80 00 03 	bcc  17a14 <_dl_protect_relro+0x64>
   17a0c:	ba 10 00 08 	mov  %o0, %i5
   17a10:	ba 20 00 08 	neg  %o0, %i5
   17a14:	80 a7 70 00 	cmp  %i5, -4096
   17a18:	08 80 00 14 	bleu  17a68 <_dl_protect_relro+0xb8>
   17a1c:	80 a7 60 00 	cmp  %i5, 0
   17a20:	7f ff e4 57 	call  10b7c <__errno_location>
   17a24:	ba 20 00 1d 	neg  %i5
   17a28:	fa 22 00 00 	st  %i5, [ %o0 ]
   17a2c:	d4 06 20 04 	ld  [ %i0 + 4 ], %o2
   17a30:	13 00 00 81 	sethi  %hi(0x20400), %o1
   17a34:	90 10 20 02 	mov  2, %o0
   17a38:	92 1a 7c 1c 	xor  %o1, -996, %o1
   17a3c:	7f ff e4 65 	call  10bd0 <dprintf>
   17a40:	92 05 c0 09 	add  %l7, %o1, %o1
   17a44:	82 10 20 01 	mov  1, %g1
   17a48:	90 10 20 00 	clr  %o0
   17a4c:	91 d0 20 10 	ta  0x10
   17a50:	1a 80 00 03 	bcc  17a5c <_dl_protect_relro+0xac>
   17a54:	ba 10 00 08 	mov  %o0, %i5
   17a58:	ba 20 00 08 	neg  %o0, %i5
   17a5c:	7f ff e4 48 	call  10b7c <__errno_location>
   17a60:	ba 20 00 1d 	neg  %i5
   17a64:	fa 22 00 00 	st  %i5, [ %o0 ]
   17a68:	26 bf ff f2 	bl,a   17a30 <_dl_protect_relro+0x80>
   17a6c:	d4 06 20 04 	ld  [ %i0 + 4 ], %o2
   17a70:	81 c7 e0 08 	ret 
   17a74:	81 e8 00 00 	restore 

00017a78 <_dl_fixup>:
   17a78:	9d e3 bf a0 	save  %sp, -96, %sp
   17a7c:	d0 06 20 10 	ld  [ %i0 + 0x10 ], %o0
   17a80:	80 a2 20 00 	cmp  %o0, 0
   17a84:	12 80 00 0a 	bne  17aac <_dl_fixup+0x34>
   17a88:	b8 10 00 18 	mov  %i0, %i4
   17a8c:	fa 07 00 00 	ld  [ %i4 ], %i5
   17a90:	b0 10 20 01 	mov  1, %i0
   17a94:	c2 07 60 b0 	ld  [ %i5 + 0xb0 ], %g1
   17a98:	80 a0 60 00 	cmp  %g1, 0
   17a9c:	02 80 00 0c 	be  17acc <_dl_fixup+0x54>
   17aa0:	de 17 60 4e 	lduh  [ %i5 + 0x4e ], %o7
   17aa4:	81 c7 e0 08 	ret 
   17aa8:	81 e8 00 00 	restore 
   17aac:	94 10 00 1a 	mov  %i2, %o2
   17ab0:	7f ff ff f2 	call  17a78 <_dl_fixup>
   17ab4:	92 10 00 19 	mov  %i1, %o1
   17ab8:	b0 92 20 00 	orcc  %o0, 0, %i0
   17abc:	22 bf ff f5 	be,a   17a90 <_dl_fixup+0x18>
   17ac0:	fa 07 00 00 	ld  [ %i4 ], %i5
   17ac4:	81 c7 e0 08 	ret 
   17ac8:	81 e8 00 00 	restore 
   17acc:	c2 07 60 fc 	ld  [ %i5 + 0xfc ], %g1
   17ad0:	80 a0 60 00 	cmp  %g1, 0
   17ad4:	32 80 00 29 	bne,a   17b78 <_dl_fixup+0x100>
   17ad8:	c4 07 60 f8 	ld  [ %i5 + 0xf8 ], %g2
   17adc:	d4 07 60 88 	ld  [ %i5 + 0x88 ], %o2
   17ae0:	80 a2 a0 00 	cmp  %o2, 0
   17ae4:	02 80 00 04 	be  17af4 <_dl_fixup+0x7c>
   17ae8:	80 8b e0 01 	btst  1, %o7
   17aec:	22 80 00 46 	be,a   17c04 <_dl_fixup+0x18c>
   17af0:	c2 07 60 74 	ld  [ %i5 + 0x74 ], %g1
   17af4:	b0 10 20 00 	clr  %i0
   17af8:	c2 07 60 cc 	ld  [ %i5 + 0xcc ], %g1
   17afc:	80 a0 60 00 	cmp  %g1, 0
   17b00:	32 80 00 02 	bne,a   17b08 <_dl_fixup+0x90>
   17b04:	b4 10 20 02 	mov  2, %i2
   17b08:	d2 07 60 c8 	ld  [ %i5 + 0xc8 ], %o1
   17b0c:	80 a2 60 00 	cmp  %o1, 0
   17b10:	02 80 00 18 	be  17b70 <_dl_fixup+0xf8>
   17b14:	01 00 00 00 	nop 
   17b18:	c2 17 60 4e 	lduh  [ %i5 + 0x4e ], %g1
   17b1c:	80 88 60 02 	btst  2, %g1
   17b20:	22 80 00 09 	be,a   17b44 <_dl_fixup+0xcc>
   17b24:	c2 07 60 50 	ld  [ %i5 + 0x50 ], %g1
   17b28:	80 a6 a0 00 	cmp  %i2, 0
   17b2c:	02 80 00 11 	be  17b70 <_dl_fixup+0xf8>
   17b30:	01 00 00 00 	nop 
   17b34:	c2 07 60 50 	ld  [ %i5 + 0x50 ], %g1
   17b38:	80 8e 80 01 	btst  %i2, %g1
   17b3c:	12 80 00 0d 	bne  17b70 <_dl_fixup+0xf8>
   17b40:	01 00 00 00 	nop 
   17b44:	b4 16 80 01 	or  %i2, %g1, %i2
   17b48:	f4 27 60 50 	st  %i2, [ %i5 + 0x50 ]
   17b4c:	80 8e a0 02 	btst  2, %i2
   17b50:	12 80 00 49 	bne  17c74 <_dl_fixup+0x1fc>
   17b54:	d6 07 60 74 	ld  [ %i5 + 0x74 ], %o3
   17b58:	94 10 00 0b 	mov  %o3, %o2
   17b5c:	7f ff ff 89 	call  17980 <_dl_parse_lazy_relocation_information>
   17b60:	90 10 00 1c 	mov  %i4, %o0
   17b64:	c2 17 60 4e 	lduh  [ %i5 + 0x4e ], %g1
   17b68:	82 10 60 02 	or  %g1, 2, %g1
   17b6c:	c2 37 60 4e 	sth  %g1, [ %i5 + 0x4e ]
   17b70:	81 c7 e0 08 	ret 
   17b74:	81 e8 00 00 	restore 
   17b78:	80 a0 a0 00 	cmp  %g2, 0
   17b7c:	22 bf ff d9 	be,a   17ae0 <_dl_fixup+0x68>
   17b80:	d4 07 60 88 	ld  [ %i5 + 0x88 ], %o2
   17b84:	c6 07 40 00 	ld  [ %i5 ], %g3
   17b88:	82 00 40 03 	add  %g1, %g3, %g1
   17b8c:	88 00 40 02 	add  %g1, %g2, %g4
   17b90:	84 10 20 00 	clr  %g2
   17b94:	80 a0 40 04 	cmp  %g1, %g4
   17b98:	3a bf ff d2 	bcc,a   17ae0 <_dl_fixup+0x68>
   17b9c:	d4 07 60 88 	ld  [ %i5 + 0x88 ], %o2
   17ba0:	c6 00 40 00 	ld  [ %g1 ], %g3
   17ba4:	80 88 e0 01 	btst  1, %g3
   17ba8:	12 80 00 11 	bne  17bec <_dl_fixup+0x174>
   17bac:	b6 10 00 02 	mov  %g2, %i3
   17bb0:	f6 07 40 00 	ld  [ %i5 ], %i3
   17bb4:	84 06 c0 03 	add  %i3, %g3, %g2
   17bb8:	b1 2e e0 02 	sll  %i3, 2, %i0
   17bbc:	b0 00 80 18 	add  %g2, %i0, %i0
   17bc0:	84 00 a0 04 	add  %g2, 4, %g2
   17bc4:	f0 26 c0 03 	st  %i0, [ %i3 + %g3 ]
   17bc8:	10 bf ff f3 	b  17b94 <_dl_fixup+0x11c>
   17bcc:	82 00 60 04 	add  %g1, 4, %g1
   17bd0:	22 80 00 07 	be,a   17bec <_dl_fixup+0x174>
   17bd4:	b6 06 e0 04 	add  %i3, 4, %i3
   17bd8:	f0 06 c0 00 	ld  [ %i3 ], %i0
   17bdc:	da 07 40 00 	ld  [ %i5 ], %o5
   17be0:	b0 06 00 0d 	add  %i0, %o5, %i0
   17be4:	f0 26 c0 00 	st  %i0, [ %i3 ]
   17be8:	b6 06 e0 04 	add  %i3, 4, %i3
   17bec:	87 30 e0 01 	srl  %g3, 1, %g3
   17bf0:	80 a0 e0 00 	cmp  %g3, 0
   17bf4:	12 bf ff f7 	bne  17bd0 <_dl_fixup+0x158>
   17bf8:	80 88 e0 01 	btst  1, %g3
   17bfc:	10 bf ff f3 	b  17bc8 <_dl_fixup+0x150>
   17c00:	84 00 a0 7c 	add  %g2, 0x7c, %g2
   17c04:	d6 07 60 8c 	ld  [ %i5 + 0x8c ], %o3
   17c08:	96 22 c0 01 	sub  %o3, %g1, %o3
   17c0c:	c2 07 61 04 	ld  [ %i5 + 0x104 ], %g1
   17c10:	80 a0 60 00 	cmp  %g1, 0
   17c14:	02 80 00 11 	be  17c58 <_dl_fixup+0x1e0>
   17c18:	92 10 00 19 	mov  %i1, %o1
   17c1c:	84 00 40 01 	add  %g1, %g1, %g2
   17c20:	f6 07 40 00 	ld  [ %i5 ], %i3
   17c24:	84 00 80 01 	add  %g2, %g1, %g2
   17c28:	86 02 bf f4 	add  %o2, -12, %g3
   17c2c:	85 28 a0 02 	sll  %g2, 2, %g2
   17c30:	96 22 c0 02 	sub  %o3, %g2, %o3
   17c34:	c8 00 e0 14 	ld  [ %g3 + 0x14 ], %g4
   17c38:	f0 00 e0 0c 	ld  [ %g3 + 0xc ], %i0
   17c3c:	88 01 00 1b 	add  %g4, %i3, %g4
   17c40:	c8 26 00 1b 	st  %g4, [ %i0 + %i3 ]
   17c44:	82 80 7f ff 	addcc  %g1, -1, %g1
   17c48:	12 bf ff fb 	bne  17c34 <_dl_fixup+0x1bc>
   17c4c:	86 00 e0 0c 	add  %g3, 0xc, %g3
   17c50:	94 02 80 02 	add  %o2, %g2, %o2
   17c54:	92 10 00 19 	mov  %i1, %o1
   17c58:	7f ff fe 77 	call  17634 <_dl_parse_relocation_information>
   17c5c:	90 10 00 1c 	mov  %i4, %o0
   17c60:	c2 17 60 4e 	lduh  [ %i5 + 0x4e ], %g1
   17c64:	b0 10 00 08 	mov  %o0, %i0
   17c68:	82 10 60 01 	or  %g1, 1, %g1
   17c6c:	10 bf ff a3 	b  17af8 <_dl_fixup+0x80>
   17c70:	c2 37 60 4e 	sth  %g1, [ %i5 + 0x4e ]
   17c74:	94 10 00 09 	mov  %o1, %o2
   17c78:	90 10 00 1c 	mov  %i4, %o0
   17c7c:	7f ff fe 6e 	call  17634 <_dl_parse_relocation_information>
   17c80:	92 10 00 19 	mov  %i1, %o1
   17c84:	10 bf ff b8 	b  17b64 <_dl_fixup+0xec>
   17c88:	b0 06 00 08 	add  %i0, %o0, %i0

00017c8c <_dl_parse_dynamic_info>:
   17c8c:	9d e3 bf a0 	save  %sp, -96, %sp
   17c90:	03 1b ff ff 	sethi  %hi(0x6ffffc00), %g1
   17c94:	84 10 00 18 	mov  %i0, %g2
   17c98:	ba 10 63 ff 	or  %g1, 0x3ff, %i5
   17c9c:	b0 10 20 00 	clr  %i0
   17ca0:	b8 10 63 f9 	or  %g1, 0x3f9, %i4
   17ca4:	86 10 63 fb 	or  %g1, 0x3fb, %g3
   17ca8:	9e 10 20 01 	mov  1, %o7
   17cac:	c2 00 80 00 	ld  [ %g2 ], %g1
   17cb0:	80 a0 60 00 	cmp  %g1, 0
   17cb4:	12 80 00 2a 	bne  17d5c <_dl_parse_dynamic_info+0xd0>
   17cb8:	80 a0 60 25 	cmp  %g1, 0x25
   17cbc:	80 a6 e0 00 	cmp  %i3, 0
   17cc0:	02 80 00 62 	be  17e48 <_dl_parse_dynamic_info+0x1bc>
   17cc4:	01 00 00 00 	nop 
   17cc8:	c2 06 60 10 	ld  [ %i1 + 0x10 ], %g1
   17ccc:	80 a0 60 00 	cmp  %g1, 0
   17cd0:	22 80 00 05 	be,a   17ce4 <_dl_parse_dynamic_info+0x58>
   17cd4:	c2 06 60 0c 	ld  [ %i1 + 0xc ], %g1
   17cd8:	82 06 c0 01 	add  %i3, %g1, %g1
   17cdc:	c2 26 60 10 	st  %g1, [ %i1 + 0x10 ]
   17ce0:	c2 06 60 0c 	ld  [ %i1 + 0xc ], %g1
   17ce4:	80 a0 60 00 	cmp  %g1, 0
   17ce8:	22 80 00 05 	be,a   17cfc <_dl_parse_dynamic_info+0x70>
   17cec:	c2 06 60 14 	ld  [ %i1 + 0x14 ], %g1
   17cf0:	82 06 c0 01 	add  %i3, %g1, %g1
   17cf4:	c2 26 60 0c 	st  %g1, [ %i1 + 0xc ]
   17cf8:	c2 06 60 14 	ld  [ %i1 + 0x14 ], %g1
   17cfc:	80 a0 60 00 	cmp  %g1, 0
   17d00:	22 80 00 05 	be,a   17d14 <_dl_parse_dynamic_info+0x88>
   17d04:	c2 06 60 18 	ld  [ %i1 + 0x18 ], %g1
   17d08:	82 06 c0 01 	add  %i3, %g1, %g1
   17d0c:	c2 26 60 14 	st  %g1, [ %i1 + 0x14 ]
   17d10:	c2 06 60 18 	ld  [ %i1 + 0x18 ], %g1
   17d14:	80 a0 60 00 	cmp  %g1, 0
   17d18:	22 80 00 05 	be,a   17d2c <_dl_parse_dynamic_info+0xa0>
   17d1c:	c2 06 60 1c 	ld  [ %i1 + 0x1c ], %g1
   17d20:	82 06 c0 01 	add  %i3, %g1, %g1
   17d24:	c2 26 60 18 	st  %g1, [ %i1 + 0x18 ]
   17d28:	c2 06 60 1c 	ld  [ %i1 + 0x1c ], %g1
   17d2c:	80 a0 60 00 	cmp  %g1, 0
   17d30:	22 80 00 05 	be,a   17d44 <_dl_parse_dynamic_info+0xb8>
   17d34:	c2 06 60 5c 	ld  [ %i1 + 0x5c ], %g1
   17d38:	82 06 c0 01 	add  %i3, %g1, %g1
   17d3c:	c2 26 60 1c 	st  %g1, [ %i1 + 0x1c ]
   17d40:	c2 06 60 5c 	ld  [ %i1 + 0x5c ], %g1
   17d44:	80 a0 60 00 	cmp  %g1, 0
   17d48:	02 80 00 03 	be  17d54 <_dl_parse_dynamic_info+0xc8>
   17d4c:	82 06 c0 01 	add  %i3, %g1, %g1
   17d50:	c2 26 60 5c 	st  %g1, [ %i1 + 0x5c ]
   17d54:	81 c7 e0 08 	ret 
   17d58:	81 e8 00 00 	restore 
   17d5c:	14 80 00 1f 	bg  17dd8 <_dl_parse_dynamic_info+0x14c>
   17d60:	80 a0 40 1d 	cmp  %g1, %i5
   17d64:	c8 00 a0 04 	ld  [ %g2 + 4 ], %g4
   17d68:	9b 28 60 02 	sll  %g1, 2, %o5
   17d6c:	80 a0 60 15 	cmp  %g1, 0x15
   17d70:	12 80 00 05 	bne  17d84 <_dl_parse_dynamic_info+0xf8>
   17d74:	c8 26 40 0d 	st  %g4, [ %i1 + %o5 ]
   17d78:	f4 20 a0 04 	st  %i2, [ %g2 + 4 ]
   17d7c:	10 bf ff cc 	b  17cac <_dl_parse_dynamic_info+0x20>
   17d80:	84 00 a0 08 	add  %g2, 8, %g2
   17d84:	80 a0 60 18 	cmp  %g1, 0x18
   17d88:	12 80 00 05 	bne  17d9c <_dl_parse_dynamic_info+0x110>
   17d8c:	80 a0 60 1e 	cmp  %g1, 0x1e
   17d90:	82 10 20 01 	mov  1, %g1
   17d94:	10 bf ff fa 	b  17d7c <_dl_parse_dynamic_info+0xf0>
   17d98:	c2 26 60 60 	st  %g1, [ %i1 + 0x60 ]
   17d9c:	12 80 00 06 	bne  17db4 <_dl_parse_dynamic_info+0x128>
   17da0:	80 89 20 08 	btst  8, %g4
   17da4:	22 bf ff c2 	be,a   17cac <_dl_parse_dynamic_info+0x20>
   17da8:	84 00 a0 08 	add  %g2, 8, %g2
   17dac:	10 bf ff fa 	b  17d94 <_dl_parse_dynamic_info+0x108>
   17db0:	82 10 20 01 	mov  1, %g1
   17db4:	80 a0 60 16 	cmp  %g1, 0x16
   17db8:	12 80 00 04 	bne  17dc8 <_dl_parse_dynamic_info+0x13c>
   17dbc:	80 a0 60 1d 	cmp  %g1, 0x1d
   17dc0:	10 bf ff ef 	b  17d7c <_dl_parse_dynamic_info+0xf0>
   17dc4:	de 26 60 58 	st  %o7, [ %i1 + 0x58 ]
   17dc8:	12 80 00 18 	bne  17e28 <_dl_parse_dynamic_info+0x19c>
   17dcc:	80 a0 60 0f 	cmp  %g1, 0xf
   17dd0:	10 bf ff eb 	b  17d7c <_dl_parse_dynamic_info+0xf0>
   17dd4:	c0 26 60 3c 	clr  [ %i1 + 0x3c ]
   17dd8:	34 bf ff b5 	bg,a   17cac <_dl_parse_dynamic_info+0x20>
   17ddc:	84 00 a0 08 	add  %g2, 8, %g2
   17de0:	80 a0 40 1c 	cmp  %g1, %i4
   17de4:	12 80 00 05 	bne  17df8 <_dl_parse_dynamic_info+0x16c>
   17de8:	80 a0 40 03 	cmp  %g1, %g3
   17dec:	c2 00 a0 04 	ld  [ %g2 + 4 ], %g1
   17df0:	10 bf ff e3 	b  17d7c <_dl_parse_dynamic_info+0xf0>
   17df4:	c2 26 60 98 	st  %g1, [ %i1 + 0x98 ]
   17df8:	32 bf ff ad 	bne,a   17cac <_dl_parse_dynamic_info+0x20>
   17dfc:	84 00 a0 08 	add  %g2, 8, %g2
   17e00:	c2 00 a0 04 	ld  [ %g2 + 4 ], %g1
   17e04:	80 88 60 01 	btst  1, %g1
   17e08:	02 80 00 04 	be  17e18 <_dl_parse_dynamic_info+0x18c>
   17e0c:	80 88 60 08 	btst  8, %g1
   17e10:	88 10 20 01 	mov  1, %g4
   17e14:	c8 26 60 60 	st  %g4, [ %i1 + 0x60 ]
   17e18:	32 bf ff d9 	bne,a   17d7c <_dl_parse_dynamic_info+0xf0>
   17e1c:	31 00 00 04 	sethi  %hi(0x1000), %i0
   17e20:	10 bf ff a3 	b  17cac <_dl_parse_dynamic_info+0x20>
   17e24:	84 00 a0 08 	add  %g2, 8, %g2
   17e28:	32 bf ff a1 	bne,a   17cac <_dl_parse_dynamic_info+0x20>
   17e2c:	84 00 a0 08 	add  %g2, 8, %g2
   17e30:	c2 06 60 74 	ld  [ %i1 + 0x74 ], %g1
   17e34:	80 a0 60 00 	cmp  %g1, 0
   17e38:	22 bf ff 9d 	be,a   17cac <_dl_parse_dynamic_info+0x20>
   17e3c:	84 00 a0 08 	add  %g2, 8, %g2
   17e40:	10 bf ff cf 	b  17d7c <_dl_parse_dynamic_info+0xf0>
   17e44:	c0 26 60 3c 	clr  [ %i1 + 0x3c ]
   17e48:	81 c7 e0 08 	ret 
   17e4c:	81 e8 00 00 	restore 

00017e50 <_dl_load_elf_shared_library>:
   17e50:	9d e3 be 80 	save  %sp, -384, %sp
   17e54:	2f 00 00 a0 	sethi  %hi(0x28000), %l7
   17e58:	7f ff e2 73 	call  10824 <__sparc_get_pc_thunk.l7>
   17e5c:	ae 05 e0 74 	add  %l7, 0x74, %l7	! 28074 <__C_ctype_tolower_data+0x184>
   17e60:	f0 27 bf 04 	st  %i0, [ %fp + -252 ]
   17e64:	82 10 20 05 	mov  5, %g1
   17e68:	94 10 20 00 	clr  %o2
   17e6c:	92 10 20 00 	clr  %o1
   17e70:	90 10 00 1a 	mov  %i2, %o0
   17e74:	91 d0 20 10 	ta  0x10
   17e78:	1a 80 00 03 	bcc  17e84 <_dl_load_elf_shared_library+0x34>
   17e7c:	b8 10 00 08 	mov  %o0, %i4
   17e80:	b8 20 00 08 	neg  %o0, %i4
   17e84:	80 a7 30 00 	cmp  %i4, -4096
   17e88:	08 80 00 0c 	bleu  17eb8 <_dl_load_elf_shared_library+0x68>
   17e8c:	80 a7 20 00 	cmp  %i4, 0
   17e90:	7f ff e3 3b 	call  10b7c <__errno_location>
   17e94:	b8 20 00 1c 	neg  %i4
   17e98:	f8 22 00 00 	st  %i4, [ %o0 ]
   17e9c:	03 00 00 0b 	sethi  %hi(0x2c00), %g1
   17ea0:	84 10 20 01 	mov  1, %g2
   17ea4:	82 18 61 9c 	xor  %g1, 0x19c, %g1
   17ea8:	82 05 c0 01 	add  %l7, %g1, %g1
   17eac:	c4 20 40 00 	st  %g2, [ %g1 ]
   17eb0:	81 c7 e0 08 	ret 
   17eb4:	91 e8 20 00 	restore  %g0, 0, %o0
   17eb8:	06 bf ff f9 	bl  17e9c <_dl_load_elf_shared_library+0x4c>
   17ebc:	82 10 20 3e 	mov  0x3e, %g1
   17ec0:	92 07 bf 08 	add  %fp, -248, %o1
   17ec4:	90 10 00 1c 	mov  %i4, %o0
   17ec8:	91 d0 20 10 	ta  0x10
   17ecc:	1a 80 00 03 	bcc  17ed8 <_dl_load_elf_shared_library+0x88>
   17ed0:	ba 10 00 08 	mov  %o0, %i5
   17ed4:	ba 20 00 08 	neg  %o0, %i5
   17ed8:	80 a7 70 00 	cmp  %i5, -4096
   17edc:	08 80 00 17 	bleu  17f38 <_dl_load_elf_shared_library+0xe8>
   17ee0:	80 a7 60 00 	cmp  %i5, 0
   17ee4:	7f ff e3 26 	call  10b7c <__errno_location>
   17ee8:	ba 20 00 1d 	neg  %i5
   17eec:	fa 22 00 00 	st  %i5, [ %o0 ]
   17ef0:	03 00 00 0b 	sethi  %hi(0x2c00), %g1
   17ef4:	84 10 20 01 	mov  1, %g2
   17ef8:	82 18 61 9c 	xor  %g1, 0x19c, %g1
   17efc:	82 05 c0 01 	add  %l7, %g1, %g1
   17f00:	c4 20 40 00 	st  %g2, [ %g1 ]
   17f04:	82 10 20 06 	mov  6, %g1
   17f08:	90 10 00 1c 	mov  %i4, %o0
   17f0c:	91 d0 20 10 	ta  0x10
   17f10:	1a 80 00 03 	bcc  17f1c <_dl_load_elf_shared_library+0xcc>
   17f14:	ba 10 00 08 	mov  %o0, %i5
   17f18:	ba 20 00 08 	neg  %o0, %i5
   17f1c:	80 a7 70 00 	cmp  %i5, -4096
   17f20:	08 bf ff e4 	bleu  17eb0 <_dl_load_elf_shared_library+0x60>
   17f24:	01 00 00 00 	nop 
   17f28:	7f ff e3 15 	call  10b7c <__errno_location>
   17f2c:	ba 20 00 1d 	neg  %i5
   17f30:	10 bf ff e0 	b  17eb0 <_dl_load_elf_shared_library+0x60>
   17f34:	fa 22 00 00 	st  %i5, [ %o0 ]
   17f38:	06 bf ff ee 	bl  17ef0 <_dl_load_elf_shared_library+0xa0>
   17f3c:	03 01 00 00 	sethi  %hi(0x4000000), %g1
   17f40:	c4 07 bf 04 	ld  [ %fp + -252 ], %g2
   17f44:	80 88 80 01 	btst  %g2, %g1
   17f48:	02 80 00 06 	be  17f60 <_dl_load_elf_shared_library+0x110>
   17f4c:	03 00 00 09 	sethi  %hi(0x2400), %g1
   17f50:	c2 17 bf 10 	lduh  [ %fp + -240 ], %g1
   17f54:	80 88 68 00 	btst  0x800, %g1
   17f58:	02 bf ff eb 	be  17f04 <_dl_load_elf_shared_library+0xb4>
   17f5c:	03 00 00 09 	sethi  %hi(0x2400), %g1
   17f60:	82 18 63 a8 	xor  %g1, 0x3a8, %g1
   17f64:	82 05 c0 01 	add  %l7, %g1, %g1
   17f68:	c4 17 bf 08 	lduh  [ %fp + -248 ], %g2
   17f6c:	f0 00 40 00 	ld  [ %g1 ], %i0
   17f70:	c2 07 bf 0c 	ld  [ %fp + -244 ], %g1
   17f74:	80 a6 20 00 	cmp  %i0, 0
   17f78:	32 80 00 35 	bne,a   1804c <_dl_load_elf_shared_library+0x1fc>
   17f7c:	c6 06 21 18 	ld  [ %i0 + 0x118 ], %g3
   17f80:	c2 07 bf 04 	ld  [ %fp + -252 ], %g1
   17f84:	80 88 60 04 	btst  4, %g1
   17f88:	12 bf ff df 	bne  17f04 <_dl_load_elf_shared_library+0xb4>
   17f8c:	21 00 00 00 	sethi  %hi(0), %l0
   17f90:	82 10 20 47 	mov  0x47, %g1
   17f94:	a0 1c 22 48 	xor  %l0, 0x248, %l0
   17f98:	9a 10 20 00 	clr  %o5
   17f9c:	a0 05 c0 10 	add  %l7, %l0, %l0
   17fa0:	98 10 3f ff 	mov  -1, %o4
   17fa4:	96 10 20 22 	mov  0x22, %o3
   17fa8:	94 10 20 03 	mov  3, %o2
   17fac:	d2 04 00 00 	ld  [ %l0 ], %o1
   17fb0:	90 10 20 00 	clr  %o0
   17fb4:	91 d0 20 10 	ta  0x10
   17fb8:	1a 80 00 03 	bcc  17fc4 <_dl_load_elf_shared_library+0x174>
   17fbc:	ba 10 00 08 	mov  %o0, %i5
   17fc0:	ba 20 00 08 	neg  %o0, %i5
   17fc4:	80 a7 70 00 	cmp  %i5, -4096
   17fc8:	08 80 00 40 	bleu  180c8 <_dl_load_elf_shared_library+0x278>
   17fcc:	82 10 20 03 	mov  3, %g1
   17fd0:	7f ff e2 eb 	call  10b7c <__errno_location>
   17fd4:	ba 20 00 1d 	neg  %i5
   17fd8:	03 00 00 00 	sethi  %hi(0), %g1
   17fdc:	82 18 62 64 	xor  %g1, 0x264, %g1
   17fe0:	82 05 c0 01 	add  %l7, %g1, %g1
   17fe4:	b6 10 00 08 	mov  %o0, %i3
   17fe8:	d4 00 40 00 	ld  [ %g1 ], %o2
   17fec:	98 10 00 1a 	mov  %i2, %o4
   17ff0:	fa 22 00 00 	st  %i5, [ %o0 ]
   17ff4:	96 10 22 43 	mov  0x243, %o3
   17ff8:	13 00 00 81 	sethi  %hi(0x20400), %o1
   17ffc:	90 10 20 02 	mov  2, %o0
   18000:	92 1a 7c 5c 	xor  %o1, -932, %o1
   18004:	7f ff e2 f3 	call  10bd0 <dprintf>
   18008:	92 05 c0 09 	add  %l7, %o1, %o1
   1800c:	03 00 00 0b 	sethi  %hi(0x2c00), %g1
   18010:	82 18 61 9c 	xor  %g1, 0x19c, %g1
   18014:	82 05 c0 01 	add  %l7, %g1, %g1
   18018:	84 10 20 06 	mov  6, %g2
   1801c:	90 10 00 1c 	mov  %i4, %o0
   18020:	c4 20 40 00 	st  %g2, [ %g1 ]
   18024:	82 10 20 06 	mov  6, %g1
   18028:	91 d0 20 10 	ta  0x10
   1802c:	1a 80 00 03 	bcc  18038 <_dl_load_elf_shared_library+0x1e8>
   18030:	82 10 00 08 	mov  %o0, %g1
   18034:	82 20 00 08 	neg  %o0, %g1
   18038:	80 a0 70 00 	cmp  %g1, -4096
   1803c:	08 bf ff 9d 	bleu  17eb0 <_dl_load_elf_shared_library+0x60>
   18040:	82 20 00 01 	neg  %g1
   18044:	10 bf ff 9b 	b  17eb0 <_dl_load_elf_shared_library+0x60>
   18048:	c2 26 c0 00 	st  %g1, [ %i3 ]
   1804c:	80 a0 e0 00 	cmp  %g3, 0
   18050:	32 bf ff c9 	bne,a   17f74 <_dl_load_elf_shared_library+0x124>
   18054:	f0 06 20 0c 	ld  [ %i0 + 0xc ], %i0
   18058:	c6 06 21 1c 	ld  [ %i0 + 0x11c ], %g3
   1805c:	80 a0 c0 02 	cmp  %g3, %g2
   18060:	32 bf ff c5 	bne,a   17f74 <_dl_load_elf_shared_library+0x124>
   18064:	f0 06 20 0c 	ld  [ %i0 + 0xc ], %i0
   18068:	c6 06 21 20 	ld  [ %i0 + 0x120 ], %g3
   1806c:	80 a0 c0 01 	cmp  %g3, %g1
   18070:	32 bf ff c1 	bne,a   17f74 <_dl_load_elf_shared_library+0x124>
   18074:	f0 06 20 0c 	ld  [ %i0 + 0xc ], %i0
   18078:	c2 16 20 4c 	lduh  [ %i0 + 0x4c ], %g1
   1807c:	82 00 60 01 	inc  %g1
   18080:	c2 36 20 4c 	sth  %g1, [ %i0 + 0x4c ]
   18084:	c2 16 20 4e 	lduh  [ %i0 + 0x4e ], %g1
   18088:	82 10 60 10 	or  %g1, 0x10, %g1
   1808c:	90 10 00 1c 	mov  %i4, %o0
   18090:	c2 36 20 4e 	sth  %g1, [ %i0 + 0x4e ]
   18094:	82 10 20 06 	mov  6, %g1
   18098:	91 d0 20 10 	ta  0x10
   1809c:	1a 80 00 03 	bcc  180a8 <_dl_load_elf_shared_library+0x258>
   180a0:	ba 10 00 08 	mov  %o0, %i5
   180a4:	ba 20 00 08 	neg  %o0, %i5
   180a8:	80 a7 70 00 	cmp  %i5, -4096
   180ac:	08 80 00 05 	bleu  180c0 <_dl_load_elf_shared_library+0x270>
   180b0:	01 00 00 00 	nop 
   180b4:	7f ff e2 b2 	call  10b7c <__errno_location>
   180b8:	ba 20 00 1d 	neg  %i5
   180bc:	fa 22 00 00 	st  %i5, [ %o0 ]
   180c0:	81 c7 e0 08 	ret 
   180c4:	81 e8 00 00 	restore 
   180c8:	d4 04 00 00 	ld  [ %l0 ], %o2
   180cc:	92 10 00 1d 	mov  %i5, %o1
   180d0:	90 10 00 1c 	mov  %i4, %o0
   180d4:	91 d0 20 10 	ta  0x10
   180d8:	1a 80 00 03 	bcc  180e4 <_dl_load_elf_shared_library+0x294>
   180dc:	b6 10 00 08 	mov  %o0, %i3
   180e0:	b6 20 00 08 	neg  %o0, %i3
   180e4:	80 a6 f0 00 	cmp  %i3, -4096
   180e8:	28 80 00 06 	bleu,a   18100 <_dl_load_elf_shared_library+0x2b0>
   180ec:	c4 07 40 00 	ld  [ %i5 ], %g2
   180f0:	7f ff e2 a3 	call  10b7c <__errno_location>
   180f4:	b6 20 00 1b 	neg  %i3
   180f8:	f6 22 00 00 	st  %i3, [ %o0 ]
   180fc:	c4 07 40 00 	ld  [ %i5 ], %g2
   18100:	03 1f d1 53 	sethi  %hi(0x7f454c00), %g1
   18104:	82 10 60 46 	or  %g1, 0x46, %g1	! 7f454c46 <_end+0x7f4114a6>
   18108:	80 a0 80 01 	cmp  %g2, %g1
   1810c:	22 80 00 12 	be,a   18154 <_dl_load_elf_shared_library+0x304>
   18110:	c4 07 60 10 	ld  [ %i5 + 0x10 ], %g2
   18114:	03 00 00 00 	sethi  %hi(0), %g1
   18118:	82 18 62 64 	xor  %g1, 0x264, %g1
   1811c:	82 05 c0 01 	add  %l7, %g1, %g1
   18120:	96 10 00 1a 	mov  %i2, %o3
   18124:	d4 00 40 00 	ld  [ %g1 ], %o2
   18128:	13 00 00 81 	sethi  %hi(0x20400), %o1
   1812c:	90 10 20 02 	mov  2, %o0
   18130:	92 1a 7c 74 	xor  %o1, -908, %o1
   18134:	7f ff e2 a7 	call  10bd0 <dprintf>
   18138:	92 05 c0 09 	add  %l7, %o1, %o1
   1813c:	03 00 00 0b 	sethi  %hi(0x2c00), %g1
   18140:	84 10 20 03 	mov  3, %g2
   18144:	82 18 61 9c 	xor  %g1, 0x19c, %g1
   18148:	82 05 c0 01 	add  %l7, %g1, %g1
   1814c:	10 80 00 1a 	b  181b4 <_dl_load_elf_shared_library+0x364>
   18150:	c4 20 40 00 	st  %g2, [ %g1 ]
   18154:	03 00 00 c0 	sethi  %hi(0x30000), %g1
   18158:	82 10 60 02 	or  %g1, 2, %g1	! 30002 <__FRAME_END__+0x790a>
   1815c:	80 a0 80 01 	cmp  %g2, %g1
   18160:	22 80 00 2a 	be,a   18208 <_dl_load_elf_shared_library+0x3b8>
   18164:	f6 07 60 1c 	ld  [ %i5 + 0x1c ], %i3
   18168:	c2 17 60 10 	lduh  [ %i5 + 0x10 ], %g1
   1816c:	80 a0 60 03 	cmp  %g1, 3
   18170:	02 80 00 03 	be  1817c <_dl_load_elf_shared_library+0x32c>
   18174:	84 10 20 04 	mov  4, %g2
   18178:	84 10 20 05 	mov  5, %g2
   1817c:	03 00 00 0b 	sethi  %hi(0x2c00), %g1
   18180:	82 18 61 9c 	xor  %g1, 0x19c, %g1
   18184:	82 05 c0 01 	add  %l7, %g1, %g1
   18188:	c4 20 40 00 	st  %g2, [ %g1 ]
   1818c:	03 00 00 00 	sethi  %hi(0), %g1
   18190:	82 18 62 64 	xor  %g1, 0x264, %g1
   18194:	82 05 c0 01 	add  %l7, %g1, %g1
   18198:	13 00 00 81 	sethi  %hi(0x20400), %o1
   1819c:	96 10 00 1a 	mov  %i2, %o3
   181a0:	92 1a 7c 94 	xor  %o1, -876, %o1
   181a4:	d4 00 40 00 	ld  [ %g1 ], %o2
   181a8:	92 05 c0 09 	add  %l7, %o1, %o1
   181ac:	7f ff e2 89 	call  10bd0 <dprintf>
   181b0:	90 10 20 02 	mov  2, %o0
   181b4:	82 10 20 06 	mov  6, %g1
   181b8:	90 10 00 1c 	mov  %i4, %o0
   181bc:	91 d0 20 10 	ta  0x10
   181c0:	1a 80 00 03 	bcc  181cc <_dl_load_elf_shared_library+0x37c>
   181c4:	b8 10 00 08 	mov  %o0, %i4
   181c8:	b8 20 00 08 	neg  %o0, %i4
   181cc:	80 a7 30 00 	cmp  %i4, -4096
   181d0:	08 80 00 06 	bleu  181e8 <_dl_load_elf_shared_library+0x398>
   181d4:	82 10 20 49 	mov  0x49, %g1
   181d8:	7f ff e2 69 	call  10b7c <__errno_location>
   181dc:	b8 20 00 1c 	neg  %i4
   181e0:	f8 22 00 00 	st  %i4, [ %o0 ]
   181e4:	82 10 20 49 	mov  0x49, %g1
   181e8:	d2 04 00 00 	ld  [ %l0 ], %o1
   181ec:	90 10 00 1d 	mov  %i5, %o0
   181f0:	91 d0 20 10 	ta  0x10
   181f4:	1a 80 00 03 	bcc  18200 <_dl_load_elf_shared_library+0x3b0>
   181f8:	ba 10 00 08 	mov  %o0, %i5
   181fc:	ba 20 00 08 	neg  %o0, %i5
   18200:	10 bf ff 48 	b  17f20 <_dl_load_elf_shared_library+0xd0>
   18204:	80 a7 70 00 	cmp  %i5, -4096
   18208:	a4 10 20 00 	clr  %l2
   1820c:	b6 07 40 1b 	add  %i5, %i3, %i3
   18210:	a8 10 20 00 	clr  %l4
   18214:	aa 10 20 00 	clr  %l5
   18218:	ac 10 20 01 	mov  1, %l6
   1821c:	a2 10 20 00 	clr  %l1
   18220:	b0 10 3f ff 	mov  -1, %i0
   18224:	c2 17 60 2c 	lduh  [ %i5 + 0x2c ], %g1
   18228:	80 a0 40 11 	cmp  %g1, %l1
   1822c:	34 80 00 2e 	bg,a   182e4 <_dl_load_elf_shared_library+0x494>
   18230:	c2 06 c0 00 	ld  [ %i3 ], %g1
   18234:	e2 04 00 00 	ld  [ %l0 ], %l1
   18238:	80 a5 a0 00 	cmp  %l6, 0
   1823c:	82 04 7f ff 	add  %l1, -1, %g1
   18240:	a2 20 00 11 	neg  %l1
   18244:	82 00 40 12 	add  %g1, %l2, %g1
   18248:	82 08 40 11 	and  %g1, %l1, %g1
   1824c:	a2 0c 40 18 	and  %l1, %i0, %l1
   18250:	02 80 00 03 	be  1825c <_dl_load_elf_shared_library+0x40c>
   18254:	90 10 00 11 	mov  %l1, %o0
   18258:	90 10 20 00 	clr  %o0
   1825c:	82 20 40 11 	sub  %g1, %l1, %g1
   18260:	9a 10 20 00 	clr  %o5
   18264:	c2 27 bf 00 	st  %g1, [ %fp + -256 ]
   18268:	98 10 3f ff 	mov  -1, %o4
   1826c:	82 10 20 47 	mov  0x47, %g1
   18270:	96 10 20 22 	mov  0x22, %o3
   18274:	94 10 20 00 	clr  %o2
   18278:	d2 07 bf 00 	ld  [ %fp + -256 ], %o1
   1827c:	91 d0 20 10 	ta  0x10
   18280:	1a 80 00 03 	bcc  1828c <_dl_load_elf_shared_library+0x43c>
   18284:	a4 10 00 08 	mov  %o0, %l2
   18288:	a4 20 00 08 	neg  %o0, %l2
   1828c:	80 a4 b0 00 	cmp  %l2, -4096
   18290:	28 80 00 49 	bleu,a   183b4 <_dl_load_elf_shared_library+0x564>
   18294:	03 19 1d 39 	sethi  %hi(0x6474e400), %g1
   18298:	7f ff e2 39 	call  10b7c <__errno_location>
   1829c:	a4 20 00 12 	neg  %l2
   182a0:	e4 22 00 00 	st  %l2, [ %o0 ]
   182a4:	03 00 00 00 	sethi  %hi(0), %g1
   182a8:	82 18 62 64 	xor  %g1, 0x264, %g1
   182ac:	82 05 c0 01 	add  %l7, %g1, %g1
   182b0:	98 10 00 1a 	mov  %i2, %o4
   182b4:	d4 00 40 00 	ld  [ %g1 ], %o2
   182b8:	96 10 22 ab 	mov  0x2ab, %o3
   182bc:	13 00 00 81 	sethi  %hi(0x20400), %o1
   182c0:	90 10 20 02 	mov  2, %o0
   182c4:	92 1a 7c 5c 	xor  %o1, -932, %o1
   182c8:	7f ff e2 42 	call  10bd0 <dprintf>
   182cc:	92 05 c0 09 	add  %l7, %o1, %o1
   182d0:	03 00 00 0b 	sethi  %hi(0x2c00), %g1
   182d4:	84 10 20 06 	mov  6, %g2
   182d8:	82 18 61 9c 	xor  %g1, 0x19c, %g1
   182dc:	10 bf ff 9c 	b  1814c <_dl_load_elf_shared_library+0x2fc>
   182e0:	82 05 c0 01 	add  %l7, %g1, %g1
   182e4:	80 a0 60 02 	cmp  %g1, 2
   182e8:	32 80 00 11 	bne,a   1832c <_dl_load_elf_shared_library+0x4dc>
   182ec:	c2 06 c0 00 	ld  [ %i3 ], %g1
   182f0:	80 a5 60 00 	cmp  %l5, 0
   182f4:	22 80 00 0d 	be,a   18328 <_dl_load_elf_shared_library+0x4d8>
   182f8:	ea 06 e0 08 	ld  [ %i3 + 8 ], %l5
   182fc:	03 00 00 00 	sethi  %hi(0), %g1
   18300:	82 18 62 64 	xor  %g1, 0x264, %g1
   18304:	82 05 c0 01 	add  %l7, %g1, %g1
   18308:	13 00 00 81 	sethi  %hi(0x20400), %o1
   1830c:	96 10 00 1a 	mov  %i2, %o3
   18310:	92 1a 7c c4 	xor  %o1, -828, %o1
   18314:	d4 00 40 00 	ld  [ %g1 ], %o2
   18318:	92 05 c0 09 	add  %l7, %o1, %o1
   1831c:	7f ff e2 2d 	call  10bd0 <dprintf>
   18320:	90 10 20 02 	mov  2, %o0
   18324:	ea 06 e0 08 	ld  [ %i3 + 8 ], %l5
   18328:	c2 06 c0 00 	ld  [ %i3 ], %g1
   1832c:	80 a0 60 01 	cmp  %g1, 1
   18330:	12 80 00 19 	bne  18394 <_dl_load_elf_shared_library+0x544>
   18334:	80 a0 60 07 	cmp  %g1, 7
   18338:	80 a6 3f ff 	cmp  %i0, -1
   1833c:	12 80 00 06 	bne  18354 <_dl_load_elf_shared_library+0x504>
   18340:	c2 06 e0 08 	ld  [ %i3 + 8 ], %g1
   18344:	07 00 40 00 	sethi  %hi(0x1000000), %g3
   18348:	80 a0 40 03 	cmp  %g1, %g3
   1834c:	38 80 00 10 	bgu,a   1838c <_dl_load_elf_shared_library+0x53c>
   18350:	b0 10 00 01 	mov  %g1, %i0
   18354:	80 a5 a0 00 	cmp  %l6, 0
   18358:	22 80 00 06 	be,a   18370 <_dl_load_elf_shared_library+0x520>
   1835c:	c6 06 e0 14 	ld  [ %i3 + 0x14 ], %g3
   18360:	80 a6 00 01 	cmp  %i0, %g1
   18364:	38 80 00 02 	bgu,a   1836c <_dl_load_elf_shared_library+0x51c>
   18368:	b0 10 00 01 	mov  %g1, %i0
   1836c:	c6 06 e0 14 	ld  [ %i3 + 0x14 ], %g3
   18370:	82 00 40 03 	add  %g1, %g3, %g1
   18374:	80 a4 80 01 	cmp  %l2, %g1
   18378:	2a 80 00 02 	bcs,a   18380 <_dl_load_elf_shared_library+0x530>
   1837c:	a4 10 00 01 	mov  %g1, %l2
   18380:	b6 06 e0 20 	add  %i3, 0x20, %i3
   18384:	10 bf ff a8 	b  18224 <_dl_load_elf_shared_library+0x3d4>
   18388:	a2 04 60 01 	inc  %l1
   1838c:	10 bf ff f8 	b  1836c <_dl_load_elf_shared_library+0x51c>
   18390:	ac 10 20 00 	clr  %l6
   18394:	32 bf ff fc 	bne,a   18384 <_dl_load_elf_shared_library+0x534>
   18398:	b6 06 e0 20 	add  %i3, 0x20, %i3
   1839c:	c2 06 e0 14 	ld  [ %i3 + 0x14 ], %g1
   183a0:	80 a0 60 00 	cmp  %g1, 0
   183a4:	22 bf ff a0 	be,a   18224 <_dl_load_elf_shared_library+0x3d4>
   183a8:	a2 04 60 01 	inc  %l1
   183ac:	10 bf ff f5 	b  18380 <_dl_load_elf_shared_library+0x530>
   183b0:	a8 10 00 1b 	mov  %i3, %l4
   183b4:	82 10 61 52 	or  %g1, 0x152, %g1
   183b8:	f6 07 60 1c 	ld  [ %i5 + 0x1c ], %i3
   183bc:	a2 24 80 11 	sub  %l2, %l1, %l1
   183c0:	27 00 00 01 	sethi  %hi(0x400), %l3
   183c4:	c2 27 be f0 	st  %g1, [ %fp + -272 ]
   183c8:	a6 1c e3 58 	xor  %l3, 0x358, %l3
   183cc:	03 1f ff ff 	sethi  %hi(0x7ffffc00), %g1
   183d0:	a6 05 c0 13 	add  %l7, %l3, %l3
   183d4:	82 10 63 ff 	or  %g1, 0x3ff, %g1
   183d8:	b6 07 40 1b 	add  %i5, %i3, %i3
   183dc:	e2 24 c0 00 	st  %l1, [ %l3 ]
   183e0:	c0 27 be f8 	clr  [ %fp + -264 ]
   183e4:	c0 27 be fc 	clr  [ %fp + -260 ]
   183e8:	84 10 20 00 	clr  %g2
   183ec:	c2 27 be f4 	st  %g1, [ %fp + -268 ]
   183f0:	c2 17 60 2c 	lduh  [ %i5 + 0x2c ], %g1
   183f4:	80 a0 40 02 	cmp  %g1, %g2
   183f8:	34 80 00 25 	bg,a   1848c <_dl_load_elf_shared_library+0x63c>
   183fc:	c2 06 c0 00 	ld  [ %i3 ], %g1
   18400:	80 a5 a0 00 	cmp  %l6, 0
   18404:	32 80 00 02 	bne,a   1840c <_dl_load_elf_shared_library+0x5bc>
   18408:	aa 05 40 11 	add  %l5, %l1, %l5
   1840c:	80 a5 60 00 	cmp  %l5, 0
   18410:	12 80 00 cd 	bne  18744 <_dl_load_elf_shared_library+0x8f4>
   18414:	b0 07 bf 64 	add  %fp, -156, %i0
   18418:	03 00 00 0b 	sethi  %hi(0x2c00), %g1
   1841c:	82 18 61 9c 	xor  %g1, 0x19c, %g1
   18420:	82 05 c0 01 	add  %l7, %g1, %g1
   18424:	84 10 20 07 	mov  7, %g2
   18428:	c4 20 40 00 	st  %g2, [ %g1 ]
   1842c:	03 00 00 00 	sethi  %hi(0), %g1
   18430:	82 18 62 64 	xor  %g1, 0x264, %g1
   18434:	82 05 c0 01 	add  %l7, %g1, %g1
   18438:	96 10 00 1a 	mov  %i2, %o3
   1843c:	d4 00 40 00 	ld  [ %g1 ], %o2
   18440:	13 00 00 81 	sethi  %hi(0x20400), %o1
   18444:	90 10 20 02 	mov  2, %o0
   18448:	92 1a 7c f4 	xor  %o1, -780, %o1
   1844c:	7f ff e1 e1 	call  10bd0 <dprintf>
   18450:	92 05 c0 09 	add  %l7, %o1, %o1
   18454:	82 10 20 49 	mov  0x49, %g1
   18458:	d2 04 00 00 	ld  [ %l0 ], %o1
   1845c:	90 10 00 1d 	mov  %i5, %o0
   18460:	91 d0 20 10 	ta  0x10
   18464:	1a 80 00 03 	bcc  18470 <_dl_load_elf_shared_library+0x620>
   18468:	ba 10 00 08 	mov  %o0, %i5
   1846c:	ba 20 00 08 	neg  %o0, %i5
   18470:	80 a7 70 00 	cmp  %i5, -4096
   18474:	08 bf fe a5 	bleu  17f08 <_dl_load_elf_shared_library+0xb8>
   18478:	82 10 20 06 	mov  6, %g1
   1847c:	7f ff e1 c0 	call  10b7c <__errno_location>
   18480:	ba 20 00 1d 	neg  %i5
   18484:	10 bf fe a0 	b  17f04 <_dl_load_elf_shared_library+0xb4>
   18488:	fa 22 00 00 	st  %i5, [ %o0 ]
   1848c:	c6 07 be f0 	ld  [ %fp + -272 ], %g3
   18490:	80 a0 40 03 	cmp  %g1, %g3
   18494:	12 80 00 09 	bne  184b8 <_dl_load_elf_shared_library+0x668>
   18498:	80 a0 60 01 	cmp  %g1, 1
   1849c:	c2 06 e0 08 	ld  [ %i3 + 8 ], %g1
   184a0:	c2 27 be fc 	st  %g1, [ %fp + -260 ]
   184a4:	c2 06 e0 14 	ld  [ %i3 + 0x14 ], %g1
   184a8:	c2 27 be f8 	st  %g1, [ %fp + -264 ]
   184ac:	b6 06 e0 20 	add  %i3, 0x20, %i3
   184b0:	10 bf ff d0 	b  183f0 <_dl_load_elf_shared_library+0x5a0>
   184b4:	84 00 a0 01 	inc  %g2
   184b8:	32 bf ff fe 	bne,a   184b0 <_dl_load_elf_shared_library+0x660>
   184bc:	b6 06 e0 20 	add  %i3, 0x20, %i3
   184c0:	c8 04 00 00 	ld  [ %l0 ], %g4
   184c4:	c6 06 e0 18 	ld  [ %i3 + 0x18 ], %g3
   184c8:	9a 20 00 04 	neg  %g4, %o5
   184cc:	de 06 e0 08 	ld  [ %i3 + 8 ], %o7
   184d0:	80 88 e0 02 	btst  2, %g3
   184d4:	b0 0b c0 0d 	and  %o7, %o5, %i0
   184d8:	88 01 3f ff 	add  %g4, -1, %g4
   184dc:	d2 06 e0 10 	ld  [ %i3 + 0x10 ], %o1
   184e0:	02 80 00 73 	be  186ac <_dl_load_elf_shared_library+0x85c>
   184e4:	c2 06 e0 04 	ld  [ %i3 + 4 ], %g1
   184e8:	86 10 e0 02 	or  %g3, 2, %g3
   184ec:	80 a5 a0 00 	cmp  %l6, 0
   184f0:	12 80 00 03 	bne  184fc <_dl_load_elf_shared_library+0x6ac>
   184f4:	98 10 00 12 	mov  %l2, %o4
   184f8:	d8 04 c0 00 	ld  [ %l3 ], %o4
   184fc:	9e 09 00 0f 	and  %g4, %o7, %o7
   18500:	89 38 e0 02 	sra  %g3, 2, %g4
   18504:	88 09 20 01 	and  %g4, 1, %g4
   18508:	b0 06 00 0c 	add  %i0, %o4, %i0
   1850c:	9e 03 c0 09 	add  %o7, %o1, %o7
   18510:	9a 0b 40 01 	and  %o5, %g1, %o5
   18514:	87 28 e0 02 	sll  %g3, 2, %g3
   18518:	82 10 20 47 	mov  0x47, %g1
   1851c:	86 08 e0 04 	and  %g3, 4, %g3
   18520:	98 10 00 1c 	mov  %i4, %o4
   18524:	86 11 00 03 	or  %g4, %g3, %g3
   18528:	96 10 20 12 	mov  0x12, %o3
   1852c:	86 10 e0 02 	or  %g3, 2, %g3
   18530:	c8 07 be f4 	ld  [ %fp + -268 ], %g4
   18534:	94 10 00 03 	mov  %g3, %o2
   18538:	9a 0b 40 04 	and  %o5, %g4, %o5
   1853c:	92 10 00 0f 	mov  %o7, %o1
   18540:	90 10 00 18 	mov  %i0, %o0
   18544:	91 d0 20 10 	ta  0x10
   18548:	1a 80 00 03 	bcc  18554 <_dl_load_elf_shared_library+0x704>
   1854c:	88 10 00 08 	mov  %o0, %g4
   18550:	88 20 00 08 	neg  %o0, %g4
   18554:	80 a1 30 00 	cmp  %g4, -4096
   18558:	08 80 00 15 	bleu  185ac <_dl_load_elf_shared_library+0x75c>
   1855c:	80 a6 20 00 	cmp  %i0, 0
   18560:	7f ff e1 87 	call  10b7c <__errno_location>
   18564:	c8 27 bf 04 	st  %g4, [ %fp + -252 ]
   18568:	c8 07 bf 04 	ld  [ %fp + -252 ], %g4
   1856c:	88 20 00 04 	neg  %g4
   18570:	c8 22 00 00 	st  %g4, [ %o0 ]
   18574:	82 10 20 49 	mov  0x49, %g1
   18578:	d2 07 bf 00 	ld  [ %fp + -256 ], %o1
   1857c:	90 10 00 11 	mov  %l1, %o0
   18580:	91 d0 20 10 	ta  0x10
   18584:	1a 80 00 03 	bcc  18590 <_dl_load_elf_shared_library+0x740>
   18588:	b6 10 00 08 	mov  %o0, %i3
   1858c:	b6 20 00 08 	neg  %o0, %i3
   18590:	80 a6 f0 00 	cmp  %i3, -4096
   18594:	28 bf ff 45 	bleu,a   182a8 <_dl_load_elf_shared_library+0x458>
   18598:	03 00 00 00 	sethi  %hi(0), %g1
   1859c:	7f ff e1 78 	call  10b7c <__errno_location>
   185a0:	b6 20 00 1b 	neg  %i3
   185a4:	10 bf ff 40 	b  182a4 <_dl_load_elf_shared_library+0x454>
   185a8:	f6 22 00 00 	st  %i3, [ %o0 ]
   185ac:	02 80 00 04 	be  185bc <_dl_load_elf_shared_library+0x76c>
   185b0:	80 a6 00 04 	cmp  %i0, %g4
   185b4:	12 bf ff f1 	bne  18578 <_dl_load_elf_shared_library+0x728>
   185b8:	82 10 20 49 	mov  0x49, %g1
   185bc:	d8 06 e0 10 	ld  [ %i3 + 0x10 ], %o4
   185c0:	da 04 00 00 	ld  [ %l0 ], %o5
   185c4:	c2 06 e0 08 	ld  [ %i3 + 8 ], %g1
   185c8:	b0 03 7f ff 	add  %o5, -1, %i0
   185cc:	82 03 00 01 	add  %o4, %g1, %g1
   185d0:	9a 20 00 0d 	neg  %o5
   185d4:	b0 06 00 01 	add  %i0, %g1, %i0
   185d8:	d4 06 e0 14 	ld  [ %i3 + 0x14 ], %o2
   185dc:	b0 0e 00 0d 	and  %i0, %o5, %i0
   185e0:	94 22 80 0c 	sub  %o2, %o4, %o2
   185e4:	82 26 00 01 	sub  %i0, %g1, %g1
   185e8:	80 a2 80 01 	cmp  %o2, %g1
   185ec:	38 80 00 02 	bgu,a   185f4 <_dl_load_elf_shared_library+0x7a4>
   185f0:	94 10 00 01 	mov  %g1, %o2
   185f4:	c6 27 be e4 	st  %g3, [ %fp + -284 ]
   185f8:	c4 27 be e8 	st  %g2, [ %fp + -280 ]
   185fc:	92 10 20 00 	clr  %o1
   18600:	90 01 00 0f 	add  %g4, %o7, %o0
   18604:	7f ff ed b6 	call  13cdc <__GI_memset>
   18608:	c8 27 be ec 	st  %g4, [ %fp + -276 ]
   1860c:	d2 06 e0 08 	ld  [ %i3 + 8 ], %o1
   18610:	c2 06 e0 14 	ld  [ %i3 + 0x14 ], %g1
   18614:	c8 07 be ec 	ld  [ %fp + -276 ], %g4
   18618:	92 02 40 01 	add  %o1, %g1, %o1
   1861c:	c4 07 be e8 	ld  [ %fp + -280 ], %g2
   18620:	80 a6 00 09 	cmp  %i0, %o1
   18624:	0a 80 00 07 	bcs  18640 <_dl_load_elf_shared_library+0x7f0>
   18628:	c6 07 be e4 	ld  [ %fp + -284 ], %g3
   1862c:	80 a1 20 00 	cmp  %g4, 0
   18630:	12 bf ff a0 	bne  184b0 <_dl_load_elf_shared_library+0x660>
   18634:	b6 06 e0 20 	add  %i3, 0x20, %i3
   18638:	10 bf ff d0 	b  18578 <_dl_load_elf_shared_library+0x728>
   1863c:	82 10 20 49 	mov  0x49, %g1
   18640:	80 a5 a0 00 	cmp  %l6, 0
   18644:	12 80 00 03 	bne  18650 <_dl_load_elf_shared_library+0x800>
   18648:	9e 10 00 12 	mov  %l2, %o7
   1864c:	9e 10 20 00 	clr  %o7
   18650:	9e 03 c0 18 	add  %o7, %i0, %o7
   18654:	82 10 20 47 	mov  0x47, %g1
   18658:	9a 10 20 00 	clr  %o5
   1865c:	98 10 3f ff 	mov  -1, %o4
   18660:	96 10 20 32 	mov  0x32, %o3
   18664:	94 10 00 03 	mov  %g3, %o2
   18668:	92 22 40 18 	sub  %o1, %i0, %o1
   1866c:	90 10 00 0f 	mov  %o7, %o0
   18670:	91 d0 20 10 	ta  0x10
   18674:	1a 80 00 03 	bcc  18680 <_dl_load_elf_shared_library+0x830>
   18678:	b0 10 00 08 	mov  %o0, %i0
   1867c:	b0 20 00 08 	neg  %o0, %i0
   18680:	80 a6 30 00 	cmp  %i0, -4096
   18684:	08 80 00 06 	bleu  1869c <_dl_load_elf_shared_library+0x84c>
   18688:	80 a3 c0 18 	cmp  %o7, %i0
   1868c:	7f ff e1 3c 	call  10b7c <__errno_location>
   18690:	b0 20 00 18 	neg  %i0
   18694:	10 bf ff b8 	b  18574 <_dl_load_elf_shared_library+0x724>
   18698:	f0 22 00 00 	st  %i0, [ %o0 ]
   1869c:	02 bf ff e5 	be  18630 <_dl_load_elf_shared_library+0x7e0>
   186a0:	80 a1 20 00 	cmp  %g4, 0
   186a4:	10 bf ff b5 	b  18578 <_dl_load_elf_shared_library+0x728>
   186a8:	82 10 20 49 	mov  0x49, %g1
   186ac:	80 a5 a0 00 	cmp  %l6, 0
   186b0:	12 80 00 03 	bne  186bc <_dl_load_elf_shared_library+0x86c>
   186b4:	98 10 00 12 	mov  %l2, %o4
   186b8:	d8 04 c0 00 	ld  [ %l3 ], %o4
   186bc:	b0 03 00 18 	add  %o4, %i0, %i0
   186c0:	88 09 00 0f 	and  %g4, %o7, %g4
   186c4:	95 30 e0 02 	srl  %g3, 2, %o2
   186c8:	9a 0b 40 01 	and  %o5, %g1, %o5
   186cc:	de 07 be f4 	ld  [ %fp + -268 ], %o7
   186d0:	94 0a a0 01 	and  %o2, 1, %o2
   186d4:	87 28 e0 02 	sll  %g3, 2, %g3
   186d8:	82 10 20 47 	mov  0x47, %g1
   186dc:	86 08 e0 04 	and  %g3, 4, %g3
   186e0:	9a 0b 40 0f 	and  %o5, %o7, %o5
   186e4:	98 10 00 1c 	mov  %i4, %o4
   186e8:	96 10 20 12 	mov  0x12, %o3
   186ec:	94 12 80 03 	or  %o2, %g3, %o2
   186f0:	92 01 00 09 	add  %g4, %o1, %o1
   186f4:	90 10 00 18 	mov  %i0, %o0
   186f8:	91 d0 20 10 	ta  0x10
   186fc:	1a 80 00 03 	bcc  18708 <_dl_load_elf_shared_library+0x8b8>
   18700:	82 10 00 08 	mov  %o0, %g1
   18704:	82 20 00 08 	neg  %o0, %g1
   18708:	80 a0 70 00 	cmp  %g1, -4096
   1870c:	08 80 00 08 	bleu  1872c <_dl_load_elf_shared_library+0x8dc>
   18710:	80 a6 20 00 	cmp  %i0, 0
   18714:	7f ff e1 1a 	call  10b7c <__errno_location>
   18718:	c2 27 bf 04 	st  %g1, [ %fp + -252 ]
   1871c:	c2 07 bf 04 	ld  [ %fp + -252 ], %g1
   18720:	82 20 00 01 	neg  %g1
   18724:	10 bf ff 94 	b  18574 <_dl_load_elf_shared_library+0x724>
   18728:	c2 22 00 00 	st  %g1, [ %o0 ]
   1872c:	02 bf ff 60 	be  184ac <_dl_load_elf_shared_library+0x65c>
   18730:	80 a6 00 01 	cmp  %i0, %g1
   18734:	02 bf ff 5f 	be  184b0 <_dl_load_elf_shared_library+0x660>
   18738:	b6 06 e0 20 	add  %i3, 0x20, %i3
   1873c:	10 bf ff 8f 	b  18578 <_dl_load_elf_shared_library+0x728>
   18740:	82 10 20 49 	mov  0x49, %g1
   18744:	94 10 20 9c 	mov  0x9c, %o2
   18748:	92 10 20 00 	clr  %o1
   1874c:	7f ff ed 64 	call  13cdc <__GI_memset>
   18750:	90 10 00 18 	mov  %i0, %o0
   18754:	96 10 00 11 	mov  %l1, %o3
   18758:	94 10 20 00 	clr  %o2
   1875c:	92 10 00 18 	mov  %i0, %o1
   18760:	7f ff fd 4b 	call  17c8c <_dl_parse_dynamic_info>
   18764:	90 10 00 15 	mov  %l5, %o0
   18768:	c2 07 bf bc 	ld  [ %fp + -68 ], %g1
   1876c:	80 a0 60 00 	cmp  %g1, 0
   18770:	12 80 00 7b 	bne  1895c <_dl_load_elf_shared_library+0xb0c>
   18774:	b6 10 00 08 	mov  %o0, %i3
   18778:	82 10 20 06 	mov  6, %g1
   1877c:	90 10 00 1c 	mov  %i4, %o0
   18780:	91 d0 20 10 	ta  0x10
   18784:	1a 80 00 03 	bcc  18790 <_dl_load_elf_shared_library+0x940>
   18788:	b8 10 00 08 	mov  %o0, %i4
   1878c:	b8 20 00 08 	neg  %o0, %i4
   18790:	80 a7 30 00 	cmp  %i4, -4096
   18794:	08 80 00 06 	bleu  187ac <_dl_load_elf_shared_library+0x95c>
   18798:	94 10 00 18 	mov  %i0, %o2
   1879c:	7f ff e0 f8 	call  10b7c <__errno_location>
   187a0:	b8 20 00 1c 	neg  %i4
   187a4:	f8 22 00 00 	st  %i4, [ %o0 ]
   187a8:	94 10 00 18 	mov  %i0, %o2
   187ac:	98 10 20 00 	clr  %o4
   187b0:	96 10 00 15 	mov  %l5, %o3
   187b4:	92 10 00 11 	mov  %l1, %o1
   187b8:	7f ff fa 8e 	call  171f0 <_dl_add_elf_hash_table>
   187bc:	90 10 00 1a 	mov  %i2, %o0
   187c0:	c2 07 be fc 	ld  [ %fp + -260 ], %g1
   187c4:	c2 22 21 10 	st  %g1, [ %o0 + 0x110 ]
   187c8:	c2 07 be f8 	ld  [ %fp + -264 ], %g1
   187cc:	c2 22 21 14 	st  %g1, [ %o0 + 0x114 ]
   187d0:	c2 17 bf 08 	lduh  [ %fp + -248 ], %g1
   187d4:	c2 22 21 1c 	st  %g1, [ %o0 + 0x11c ]
   187d8:	c2 07 bf 0c 	ld  [ %fp + -244 ], %g1
   187dc:	c2 22 21 20 	st  %g1, [ %o0 + 0x120 ]
   187e0:	c2 07 60 1c 	ld  [ %i5 + 0x1c ], %g1
   187e4:	82 00 40 12 	add  %g1, %l2, %g1
   187e8:	c2 22 21 0c 	st  %g1, [ %o0 + 0x10c ]
   187ec:	c2 17 60 2c 	lduh  [ %i5 + 0x2c ], %g1
   187f0:	e4 22 20 38 	st  %l2, [ %o0 + 0x38 ]
   187f4:	c2 22 21 08 	st  %g1, [ %o0 + 0x108 ]
   187f8:	c0 22 21 18 	clr  [ %o0 + 0x118 ]
   187fc:	c2 07 bf 04 	ld  [ %fp + -252 ], %g1
   18800:	ac 10 40 1b 	or  %g1, %i3, %l6
   18804:	ec 22 20 50 	st  %l6, [ %o0 + 0x50 ]
   18808:	80 a5 20 00 	cmp  %l4, 0
   1880c:	02 80 00 19 	be  18870 <_dl_load_elf_shared_library+0xa20>
   18810:	b0 10 00 08 	mov  %o0, %i0
   18814:	c2 05 20 14 	ld  [ %l4 + 0x14 ], %g1
   18818:	c2 22 20 1c 	st  %g1, [ %o0 + 0x1c ]
   1881c:	c2 05 20 1c 	ld  [ %l4 + 0x1c ], %g1
   18820:	c2 22 20 20 	st  %g1, [ %o0 + 0x20 ]
   18824:	80 a0 60 00 	cmp  %g1, 0
   18828:	02 80 00 04 	be  18838 <_dl_load_elf_shared_library+0x9e8>
   1882c:	c4 05 20 08 	ld  [ %l4 + 8 ], %g2
   18830:	82 00 7f ff 	add  %g1, -1, %g1
   18834:	82 08 40 02 	and  %g1, %g2, %g1
   18838:	c2 26 20 24 	st  %g1, [ %i0 + 0x24 ]
   1883c:	c2 05 20 10 	ld  [ %l4 + 0x10 ], %g1
   18840:	c4 26 20 14 	st  %g2, [ %i0 + 0x14 ]
   18844:	40 00 12 3d 	call  1d138 <_dl_next_tls_modid>
   18848:	c2 26 20 18 	st  %g1, [ %i0 + 0x18 ]
   1884c:	d0 26 20 2c 	st  %o0, [ %i0 + 0x2c ]
   18850:	c2 06 20 14 	ld  [ %i0 + 0x14 ], %g1
   18854:	80 a0 60 00 	cmp  %g1, 0
   18858:	22 80 00 07 	be,a   18874 <_dl_load_elf_shared_library+0xa24>
   1885c:	f8 06 40 00 	ld  [ %i1 ], %i4
   18860:	c4 05 20 08 	ld  [ %l4 + 8 ], %g2
   18864:	c2 06 00 00 	ld  [ %i0 ], %g1
   18868:	82 00 40 02 	add  %g1, %g2, %g1
   1886c:	c2 26 20 14 	st  %g1, [ %i0 + 0x14 ]
   18870:	f8 06 40 00 	ld  [ %i1 ], %i4
   18874:	80 a7 20 00 	cmp  %i4, 0
   18878:	02 80 00 6a 	be  18a20 <_dl_load_elf_shared_library+0xbd0>
   1887c:	90 10 20 18 	mov  0x18, %o0
   18880:	7f ff f0 6f 	call  14a3c <malloc>
   18884:	01 00 00 00 	nop 
   18888:	d0 27 20 10 	st  %o0, [ %i4 + 0x10 ]
   1888c:	c2 06 40 00 	ld  [ %i1 ], %g1
   18890:	94 10 20 18 	mov  0x18, %o2
   18894:	d0 00 60 10 	ld  [ %g1 + 0x10 ], %o0
   18898:	7f ff ed 11 	call  13cdc <__GI_memset>
   1889c:	92 10 20 00 	clr  %o1
   188a0:	c4 06 40 00 	ld  [ %i1 ], %g2
   188a4:	c2 00 a0 10 	ld  [ %g2 + 0x10 ], %g1
   188a8:	c4 20 60 14 	st  %g2, [ %g1 + 0x14 ]
   188ac:	c2 26 40 00 	st  %g1, [ %i1 ]
   188b0:	c2 06 40 00 	ld  [ %i1 ], %g1
   188b4:	80 a0 60 00 	cmp  %g1, 0
   188b8:	32 80 00 02 	bne,a   188c0 <_dl_load_elf_shared_library+0xa70>
   188bc:	f0 20 40 00 	st  %i0, [ %g1 ]
   188c0:	c2 16 20 4c 	lduh  [ %i0 + 0x4c ], %g1
   188c4:	84 00 60 01 	add  %g1, 1, %g2
   188c8:	c4 36 20 4c 	sth  %g2, [ %i0 + 0x4c ]
   188cc:	c6 06 20 50 	ld  [ %i0 + 0x50 ], %g3
   188d0:	05 00 00 04 	sethi  %hi(0x1000), %g2
   188d4:	80 88 c0 02 	btst  %g3, %g2
   188d8:	22 80 00 05 	be,a   188ec <_dl_load_elf_shared_library+0xa9c>
   188dc:	c0 26 20 3c 	clr  [ %i0 + 0x3c ]
   188e0:	82 00 60 02 	add  %g1, 2, %g1
   188e4:	c2 36 20 4c 	sth  %g1, [ %i0 + 0x4c ]
   188e8:	c0 26 20 3c 	clr  [ %i0 + 0x3c ]
   188ec:	c4 07 bf 70 	ld  [ %fp + -144 ], %g2
   188f0:	80 a0 a0 00 	cmp  %g2, 0
   188f4:	02 80 00 12 	be  1893c <_dl_load_elf_shared_library+0xaec>
   188f8:	82 10 20 49 	mov  0x49, %g1
   188fc:	03 27 78 ef 	sethi  %hi(0x9de3bc00), %g1
   18900:	82 10 63 c0 	or  %g1, 0x3c0, %g1	! 9de3bfc0 <_end+0x9ddf8820>
   18904:	07 10 00 00 	sethi  %hi(0x40000000), %g3
   18908:	c2 20 80 00 	st  %g1, [ %g2 ]
   1890c:	03 00 00 99 	sethi  %hi(0x26400), %g1
   18910:	82 18 7f b4 	xor  %g1, -76, %g1
   18914:	82 05 c0 01 	add  %l7, %g1, %g1
   18918:	82 00 7f fc 	add  %g1, -4, %g1
   1891c:	82 20 40 02 	sub  %g1, %g2, %g1
   18920:	83 30 60 02 	srl  %g1, 2, %g1
   18924:	82 10 40 03 	or  %g1, %g3, %g1
   18928:	f0 20 a0 0c 	st  %i0, [ %g2 + 0xc ]
   1892c:	c2 20 a0 04 	st  %g1, [ %g2 + 4 ]
   18930:	03 00 40 00 	sethi  %hi(0x1000000), %g1
   18934:	c2 20 a0 08 	st  %g1, [ %g2 + 8 ]
   18938:	82 10 20 49 	mov  0x49, %g1
   1893c:	d2 04 00 00 	ld  [ %l0 ], %o1
   18940:	90 10 00 1d 	mov  %i5, %o0
   18944:	91 d0 20 10 	ta  0x10
   18948:	1a 80 00 03 	bcc  18954 <_dl_load_elf_shared_library+0xb04>
   1894c:	ba 10 00 08 	mov  %o0, %i5
   18950:	ba 20 00 08 	neg  %o0, %i5
   18954:	10 bf fd d6 	b  180ac <_dl_load_elf_shared_library+0x25c>
   18958:	80 a7 70 00 	cmp  %i5, -4096
   1895c:	c6 07 60 1c 	ld  [ %i5 + 0x1c ], %g3
   18960:	88 10 20 00 	clr  %g4
   18964:	86 07 40 03 	add  %i5, %g3, %g3
   18968:	c2 17 60 2c 	lduh  [ %i5 + 0x2c ], %g1
   1896c:	80 a0 40 04 	cmp  %g1, %g4
   18970:	04 bf ff 83 	ble  1877c <_dl_load_elf_shared_library+0x92c>
   18974:	82 10 20 06 	mov  6, %g1
   18978:	c2 00 c0 00 	ld  [ %g3 ], %g1
   1897c:	80 a0 60 01 	cmp  %g1, 1
   18980:	32 80 00 26 	bne,a   18a18 <_dl_load_elf_shared_library+0xbc8>
   18984:	88 01 20 01 	inc  %g4
   18988:	c2 00 e0 18 	ld  [ %g3 + 0x18 ], %g1
   1898c:	80 88 60 02 	btst  2, %g1
   18990:	32 80 00 22 	bne,a   18a18 <_dl_load_elf_shared_library+0xbc8>
   18994:	88 01 20 01 	inc  %g4
   18998:	80 a5 a0 00 	cmp  %l6, 0
   1899c:	12 80 00 03 	bne  189a8 <_dl_load_elf_shared_library+0xb58>
   189a0:	90 10 00 12 	mov  %l2, %o0
   189a4:	d0 04 c0 00 	ld  [ %l3 ], %o0
   189a8:	c2 00 e0 08 	ld  [ %g3 + 8 ], %g1
   189ac:	d2 04 00 00 	ld  [ %l0 ], %o1
   189b0:	da 00 e0 10 	ld  [ %g3 + 0x10 ], %o5
   189b4:	9e 20 00 09 	neg  %o1, %o7
   189b8:	94 10 20 07 	mov  7, %o2
   189bc:	9e 0b c0 01 	and  %o7, %g1, %o7
   189c0:	92 02 7f ff 	add  %o1, -1, %o1
   189c4:	90 03 c0 08 	add  %o7, %o0, %o0
   189c8:	92 0a 40 01 	and  %o1, %g1, %o1
   189cc:	82 10 20 4a 	mov  0x4a, %g1
   189d0:	92 02 40 0d 	add  %o1, %o5, %o1
   189d4:	91 d0 20 10 	ta  0x10
   189d8:	1a 80 00 03 	bcc  189e4 <_dl_load_elf_shared_library+0xb94>
   189dc:	82 10 00 08 	mov  %o0, %g1
   189e0:	82 20 00 08 	neg  %o0, %g1
   189e4:	80 a0 70 00 	cmp  %g1, -4096
   189e8:	28 80 00 0c 	bleu,a   18a18 <_dl_load_elf_shared_library+0xbc8>
   189ec:	88 01 20 01 	inc  %g4
   189f0:	c2 27 be f0 	st  %g1, [ %fp + -272 ]
   189f4:	c8 27 be f4 	st  %g4, [ %fp + -268 ]
   189f8:	7f ff e0 61 	call  10b7c <__errno_location>
   189fc:	c6 27 bf 00 	st  %g3, [ %fp + -256 ]
   18a00:	c2 07 be f0 	ld  [ %fp + -272 ], %g1
   18a04:	c8 07 be f4 	ld  [ %fp + -268 ], %g4
   18a08:	82 20 00 01 	neg  %g1
   18a0c:	c6 07 bf 00 	ld  [ %fp + -256 ], %g3
   18a10:	c2 22 00 00 	st  %g1, [ %o0 ]
   18a14:	88 01 20 01 	inc  %g4
   18a18:	10 bf ff d4 	b  18968 <_dl_load_elf_shared_library+0xb18>
   18a1c:	86 00 e0 20 	add  %g3, 0x20, %g3
   18a20:	7f ff f0 07 	call  14a3c <malloc>
   18a24:	01 00 00 00 	nop 
   18a28:	03 00 00 01 	sethi  %hi(0x400), %g1
   18a2c:	82 18 63 60 	xor  %g1, 0x360, %g1
   18a30:	82 05 c0 01 	add  %l7, %g1, %g1
   18a34:	d0 20 40 00 	st  %o0, [ %g1 ]
   18a38:	d0 26 40 00 	st  %o0, [ %i1 ]
   18a3c:	94 10 20 18 	mov  0x18, %o2
   18a40:	7f ff ec a7 	call  13cdc <__GI_memset>
   18a44:	92 10 20 00 	clr  %o1
   18a48:	10 bf ff 9b 	b  188b4 <_dl_load_elf_shared_library+0xa64>
   18a4c:	c2 06 40 00 	ld  [ %i1 ], %g1

00018a50 <search_for_named_library>:
   18a50:	9d e3 bf a0 	save  %sp, -96, %sp
   18a54:	2f 00 00 9d 	sethi  %hi(0x27400), %l7
   18a58:	7f ff df 73 	call  10824 <__sparc_get_pc_thunk.l7>
   18a5c:	ae 05 e0 74 	add  %l7, 0x74, %l7	! 27474 <locale_mmap+0x6d14>
   18a60:	80 a6 a0 00 	cmp  %i2, 0
   18a64:	02 80 00 22 	be  18aec <search_for_named_library+0x9c>
   18a68:	a6 10 00 18 	mov  %i0, %l3
   18a6c:	9c 03 b7 f8 	add  %sp, -2056, %sp
   18a70:	a9 36 60 1a 	srl  %i1, 0x1a, %l4
   18a74:	a0 03 a0 60 	add  %sp, 0x60, %l0
   18a78:	a8 0d 20 01 	and  %l4, 1, %l4
   18a7c:	92 10 20 3a 	mov  0x3a, %o1
   18a80:	40 00 0d 74 	call  1c050 <__GI_strchr>
   18a84:	90 06 a0 01 	add  %i2, 1, %o0
   18a88:	a4 92 20 00 	orcc  %o0, 0, %l2
   18a8c:	02 80 00 1a 	be  18af4 <search_for_named_library+0xa4>
   18a90:	01 00 00 00 	nop 
   18a94:	ba 24 80 1a 	sub  %l2, %i2, %i5
   18a98:	a4 04 a0 01 	inc  %l2
   18a9c:	80 a7 60 06 	cmp  %i5, 6
   18aa0:	04 80 00 51 	ble  18be4 <search_for_named_library+0x194>
   18aa4:	80 a7 60 00 	cmp  %i5, 0
   18aa8:	94 10 20 07 	mov  7, %o2
   18aac:	13 00 00 81 	sethi  %hi(0x20400), %o1
   18ab0:	90 10 00 1a 	mov  %i2, %o0
   18ab4:	92 1a 7d 1c 	xor  %o1, -740, %o1
   18ab8:	40 00 0e fc 	call  1c6a8 <__GI_memcmp>
   18abc:	92 05 c0 09 	add  %l7, %o1, %o1
   18ac0:	80 a2 20 00 	cmp  %o0, 0
   18ac4:	12 80 00 4b 	bne  18bf0 <search_for_named_library+0x1a0>
   18ac8:	94 10 00 1d 	mov  %i5, %o2
   18acc:	80 a5 20 00 	cmp  %l4, 0
   18ad0:	02 80 00 0d 	be  18b04 <search_for_named_library+0xb4>
   18ad4:	80 a7 60 07 	cmp  %i5, 7
   18ad8:	02 80 00 0c 	be  18b08 <search_for_named_library+0xb8>
   18adc:	80 a7 20 00 	cmp  %i4, 0
   18ae0:	80 a4 a0 00 	cmp  %l2, 0
   18ae4:	32 bf ff e6 	bne,a   18a7c <search_for_named_library+0x2c>
   18ae8:	b4 10 00 12 	mov  %l2, %i2
   18aec:	10 80 00 3c 	b  18bdc <search_for_named_library+0x18c>
   18af0:	b0 10 20 00 	clr  %i0
   18af4:	7f ff ed c3 	call  14200 <__GI_strlen>
   18af8:	90 10 00 1a 	mov  %i2, %o0
   18afc:	10 bf ff e8 	b  18a9c <search_for_named_library+0x4c>
   18b00:	ba 10 00 08 	mov  %o0, %i5
   18b04:	80 a7 20 00 	cmp  %i4, 0
   18b08:	02 bf ff f7 	be  18ae4 <search_for_named_library+0x94>
   18b0c:	80 a4 a0 00 	cmp  %l2, 0
   18b10:	7f ff ed bc 	call  14200 <__GI_strlen>
   18b14:	90 10 00 1c 	mov  %i4, %o0
   18b18:	a2 02 3f ff 	add  %o0, -1, %l1
   18b1c:	80 a4 60 00 	cmp  %l1, 0
   18b20:	06 bf ff f1 	bl  18ae4 <search_for_named_library+0x94>
   18b24:	80 a4 a0 00 	cmp  %l2, 0
   18b28:	c2 0f 00 11 	ldub  [ %i4 + %l1 ], %g1
   18b2c:	80 a0 60 2f 	cmp  %g1, 0x2f
   18b30:	32 bf ff fb 	bne,a   18b1c <search_for_named_library+0xcc>
   18b34:	a2 04 7f ff 	add  %l1, -1, %l1
   18b38:	80 a4 60 00 	cmp  %l1, 0
   18b3c:	02 bf ff e9 	be  18ae0 <search_for_named_library+0x90>
   18b40:	94 10 00 11 	mov  %l1, %o2
   18b44:	92 10 00 1c 	mov  %i4, %o1
   18b48:	7f ff e8 3b 	call  12c34 <__GI_memcpy>
   18b4c:	90 10 00 10 	mov  %l0, %o0
   18b50:	94 07 7f f9 	add  %i5, -7, %o2
   18b54:	92 06 a0 07 	add  %i2, 7, %o1
   18b58:	90 04 00 11 	add  %l0, %l1, %o0
   18b5c:	7f ff e8 36 	call  12c34 <__GI_memcpy>
   18b60:	ba 04 00 1d 	add  %l0, %i5, %i5
   18b64:	ba 07 40 11 	add  %i5, %l1, %i5
   18b68:	c0 2f 7f f9 	clrb  [ %i5 + -7 ]
   18b6c:	7f ff ed a5 	call  14200 <__GI_strlen>
   18b70:	90 10 00 10 	mov  %l0, %o0
   18b74:	80 a2 20 00 	cmp  %o0, 0
   18b78:	02 80 00 07 	be  18b94 <search_for_named_library+0x144>
   18b7c:	13 00 00 81 	sethi  %hi(0x20400), %o1
   18b80:	90 04 00 08 	add  %l0, %o0, %o0
   18b84:	c2 0a 3f ff 	ldub  [ %o0 + -1 ], %g1
   18b88:	80 a0 60 2f 	cmp  %g1, 0x2f
   18b8c:	22 80 00 07 	be,a   18ba8 <search_for_named_library+0x158>
   18b90:	92 10 00 13 	mov  %l3, %o1
   18b94:	90 10 00 10 	mov  %l0, %o0
   18b98:	92 1a 7d 2c 	xor  %o1, -724, %o1
   18b9c:	40 00 0c 30 	call  1bc5c <__GI_strcat>
   18ba0:	92 05 c0 09 	add  %l7, %o1, %o1
   18ba4:	92 10 00 13 	mov  %l3, %o1
   18ba8:	40 00 0c 2d 	call  1bc5c <__GI_strcat>
   18bac:	90 10 00 10 	mov  %l0, %o0
   18bb0:	c2 0c 00 00 	ldub  [ %l0 ], %g1
   18bb4:	80 a0 60 2f 	cmp  %g1, 0x2f
   18bb8:	12 bf ff cb 	bne  18ae4 <search_for_named_library+0x94>
   18bbc:	80 a4 a0 00 	cmp  %l2, 0
   18bc0:	94 10 00 10 	mov  %l0, %o2
   18bc4:	92 10 00 1b 	mov  %i3, %o1
   18bc8:	7f ff fc a2 	call  17e50 <_dl_load_elf_shared_library>
   18bcc:	90 10 00 19 	mov  %i1, %o0
   18bd0:	b0 92 20 00 	orcc  %o0, 0, %i0
   18bd4:	02 bf ff c4 	be  18ae4 <search_for_named_library+0x94>
   18bd8:	80 a4 a0 00 	cmp  %l2, 0
   18bdc:	81 c7 e0 08 	ret 
   18be0:	81 e8 00 00 	restore 
   18be4:	02 80 00 08 	be  18c04 <search_for_named_library+0x1b4>
   18be8:	13 00 00 81 	sethi  %hi(0x20400), %o1
   18bec:	94 10 00 1d 	mov  %i5, %o2
   18bf0:	92 10 00 1a 	mov  %i2, %o1
   18bf4:	7f ff e8 10 	call  12c34 <__GI_memcpy>
   18bf8:	90 10 00 10 	mov  %l0, %o0
   18bfc:	10 bf ff dc 	b  18b6c <search_for_named_library+0x11c>
   18c00:	c0 2c 00 1d 	clrb  [ %l0 + %i5 ]
   18c04:	90 10 00 10 	mov  %l0, %o0
   18c08:	92 1a 7d 24 	xor  %o1, -732, %o1
   18c0c:	40 00 0d de 	call  1c384 <__GI_strcpy>
   18c10:	92 05 c0 09 	add  %l7, %o1, %o1
   18c14:	30 bf ff d6 	b,a   18b6c <search_for_named_library+0x11c>

00018c18 <_dl_load_shared_library>:
   18c18:	9d e3 bf a0 	save  %sp, -96, %sp
   18c1c:	2f 00 00 9c 	sethi  %hi(0x27000), %l7
   18c20:	7f ff df 01 	call  10824 <__sparc_get_pc_thunk.l7>
   18c24:	ae 05 e2 ac 	add  %l7, 0x2ac, %l7	! 272ac <locale_mmap+0x6b4c>
   18c28:	3b 00 00 0b 	sethi  %hi(0x2c00), %i5
   18c2c:	90 10 00 1b 	mov  %i3, %o0
   18c30:	ba 1f 61 9c 	xor  %i5, 0x19c, %i5
   18c34:	ba 05 c0 1d 	add  %l7, %i5, %i5
   18c38:	7f ff ed 72 	call  14200 <__GI_strlen>
   18c3c:	c0 27 40 00 	clr  [ %i5 ]
   18c40:	80 a2 24 00 	cmp  %o0, 0x400
   18c44:	08 80 00 0b 	bleu  18c70 <_dl_load_shared_library+0x58>
   18c48:	92 10 20 2f 	mov  0x2f, %o1
   18c4c:	c4 07 40 00 	ld  [ %i5 ], %g2
   18c50:	03 00 00 0b 	sethi  %hi(0x2c00), %g1
   18c54:	80 a0 a0 00 	cmp  %g2, 0
   18c58:	82 18 61 a0 	xor  %g1, 0x1a0, %g1
   18c5c:	12 80 00 85 	bne  18e70 <_dl_load_shared_library+0x258>
   18c60:	ae 05 c0 01 	add  %l7, %g1, %l7
   18c64:	82 10 20 01 	mov  1, %g1
   18c68:	10 80 00 83 	b  18e74 <_dl_load_shared_library+0x25c>
   18c6c:	c2 25 c0 00 	st  %g1, [ %l7 ]
   18c70:	40 00 0d 7b 	call  1c25c <__GI_strrchr>
   18c74:	90 10 00 1b 	mov  %i3, %o0
   18c78:	80 a2 20 00 	cmp  %o0, 0
   18c7c:	02 80 00 06 	be  18c94 <_dl_load_shared_library+0x7c>
   18c80:	b8 02 20 01 	add  %o0, 1, %i4
   18c84:	80 a6 c0 1c 	cmp  %i3, %i4
   18c88:	12 80 00 37 	bne  18d64 <_dl_load_shared_library+0x14c>
   18c8c:	94 10 00 1b 	mov  %i3, %o2
   18c90:	b6 10 00 1c 	mov  %i4, %i3
   18c94:	80 a6 a0 00 	cmp  %i2, 0
   18c98:	32 80 00 3b 	bne,a   18d84 <_dl_load_shared_library+0x16c>
   18c9c:	c2 06 a0 a8 	ld  [ %i2 + 0xa8 ], %g1
   18ca0:	03 00 00 01 	sethi  %hi(0x400), %g1
   18ca4:	82 18 63 6c 	xor  %g1, 0x36c, %g1
   18ca8:	82 05 c0 01 	add  %l7, %g1, %g1
   18cac:	d4 00 40 00 	ld  [ %g1 ], %o2
   18cb0:	80 a2 a0 00 	cmp  %o2, 0
   18cb4:	12 80 00 42 	bne  18dbc <_dl_load_shared_library+0x1a4>
   18cb8:	98 10 20 00 	clr  %o4
   18cbc:	80 a6 a0 00 	cmp  %i2, 0
   18cc0:	32 80 00 48 	bne,a   18de0 <_dl_load_shared_library+0x1c8>
   18cc4:	c2 06 a0 e0 	ld  [ %i2 + 0xe0 ], %g1
   18cc8:	39 00 00 09 	sethi  %hi(0x2400), %i4
   18ccc:	b8 1f 23 a8 	xor  %i4, 0x3a8, %i4
   18cd0:	b8 05 c0 1c 	add  %l7, %i4, %i4
   18cd4:	c4 07 00 00 	ld  [ %i4 ], %g2
   18cd8:	c2 00 a0 a8 	ld  [ %g2 + 0xa8 ], %g1
   18cdc:	80 a0 60 00 	cmp  %g1, 0
   18ce0:	32 80 00 4e 	bne,a   18e18 <_dl_load_shared_library+0x200>
   18ce4:	d4 00 a0 80 	ld  [ %g2 + 0x80 ], %o2
   18ce8:	98 10 20 00 	clr  %o4
   18cec:	96 10 00 19 	mov  %i1, %o3
   18cf0:	15 00 00 81 	sethi  %hi(0x20400), %o2
   18cf4:	92 10 00 18 	mov  %i0, %o1
   18cf8:	94 1a bd 34 	xor  %o2, -716, %o2
   18cfc:	90 10 00 1b 	mov  %i3, %o0
   18d00:	7f ff ff 54 	call  18a50 <search_for_named_library>
   18d04:	94 05 c0 0a 	add  %l7, %o2, %o2
   18d08:	80 a2 20 00 	cmp  %o0, 0
   18d0c:	12 80 00 1c 	bne  18d7c <_dl_load_shared_library+0x164>
   18d10:	01 00 00 00 	nop 
   18d14:	c4 07 00 00 	ld  [ %i4 ], %g2
   18d18:	c2 00 a0 e0 	ld  [ %g2 + 0xe0 ], %g1
   18d1c:	80 a0 60 00 	cmp  %g1, 0
   18d20:	32 80 00 49 	bne,a   18e44 <_dl_load_shared_library+0x22c>
   18d24:	d4 00 a0 80 	ld  [ %g2 + 0x80 ], %o2
   18d28:	c2 00 a0 a8 	ld  [ %g2 + 0xa8 ], %g1
   18d2c:	80 a0 60 00 	cmp  %g1, 0
   18d30:	02 bf ff c7 	be  18c4c <_dl_load_shared_library+0x34>
   18d34:	98 10 20 00 	clr  %o4
   18d38:	d4 00 a0 80 	ld  [ %g2 + 0x80 ], %o2
   18d3c:	96 10 00 19 	mov  %i1, %o3
   18d40:	94 00 40 0a 	add  %g1, %o2, %o2
   18d44:	92 10 00 18 	mov  %i0, %o1
   18d48:	7f ff ff 42 	call  18a50 <search_for_named_library>
   18d4c:	90 10 00 1b 	mov  %i3, %o0
   18d50:	80 a2 20 00 	cmp  %o0, 0
   18d54:	12 80 00 0a 	bne  18d7c <_dl_load_shared_library+0x164>
   18d58:	01 00 00 00 	nop 
   18d5c:	10 bf ff bd 	b  18c50 <_dl_load_shared_library+0x38>
   18d60:	c4 07 40 00 	ld  [ %i5 ], %g2
   18d64:	92 10 00 19 	mov  %i1, %o1
   18d68:	7f ff fc 3a 	call  17e50 <_dl_load_elf_shared_library>
   18d6c:	90 10 00 18 	mov  %i0, %o0
   18d70:	80 a2 20 00 	cmp  %o0, 0
   18d74:	22 bf ff c8 	be,a   18c94 <_dl_load_shared_library+0x7c>
   18d78:	b6 10 00 1c 	mov  %i4, %i3
   18d7c:	81 c7 e0 08 	ret 
   18d80:	91 e8 00 08 	restore  %g0, %o0, %o0
   18d84:	80 a0 60 00 	cmp  %g1, 0
   18d88:	02 bf ff c6 	be  18ca0 <_dl_load_shared_library+0x88>
   18d8c:	96 10 00 19 	mov  %i1, %o3
   18d90:	d4 06 a0 80 	ld  [ %i2 + 0x80 ], %o2
   18d94:	d8 06 a0 04 	ld  [ %i2 + 4 ], %o4
   18d98:	94 00 40 0a 	add  %g1, %o2, %o2
   18d9c:	92 10 00 18 	mov  %i0, %o1
   18da0:	7f ff ff 2c 	call  18a50 <search_for_named_library>
   18da4:	90 10 00 1b 	mov  %i3, %o0
   18da8:	80 a2 20 00 	cmp  %o0, 0
   18dac:	12 bf ff f4 	bne  18d7c <_dl_load_shared_library+0x164>
   18db0:	01 00 00 00 	nop 
   18db4:	10 bf ff bc 	b  18ca4 <_dl_load_shared_library+0x8c>
   18db8:	03 00 00 01 	sethi  %hi(0x400), %g1
   18dbc:	96 10 00 19 	mov  %i1, %o3
   18dc0:	92 10 00 18 	mov  %i0, %o1
   18dc4:	7f ff ff 23 	call  18a50 <search_for_named_library>
   18dc8:	90 10 00 1b 	mov  %i3, %o0
   18dcc:	80 a2 20 00 	cmp  %o0, 0
   18dd0:	12 bf ff eb 	bne  18d7c <_dl_load_shared_library+0x164>
   18dd4:	01 00 00 00 	nop 
   18dd8:	10 bf ff ba 	b  18cc0 <_dl_load_shared_library+0xa8>
   18ddc:	80 a6 a0 00 	cmp  %i2, 0
   18de0:	80 a0 60 00 	cmp  %g1, 0
   18de4:	02 bf ff b9 	be  18cc8 <_dl_load_shared_library+0xb0>
   18de8:	98 10 20 00 	clr  %o4
   18dec:	d4 06 a0 80 	ld  [ %i2 + 0x80 ], %o2
   18df0:	96 10 00 19 	mov  %i1, %o3
   18df4:	94 00 40 0a 	add  %g1, %o2, %o2
   18df8:	92 10 00 18 	mov  %i0, %o1
   18dfc:	7f ff ff 15 	call  18a50 <search_for_named_library>
   18e00:	90 10 00 1b 	mov  %i3, %o0
   18e04:	80 a2 20 00 	cmp  %o0, 0
   18e08:	12 bf ff dd 	bne  18d7c <_dl_load_shared_library+0x164>
   18e0c:	01 00 00 00 	nop 
   18e10:	10 bf ff af 	b  18ccc <_dl_load_shared_library+0xb4>
   18e14:	39 00 00 09 	sethi  %hi(0x2400), %i4
   18e18:	98 10 20 00 	clr  %o4
   18e1c:	96 10 00 19 	mov  %i1, %o3
   18e20:	94 00 40 0a 	add  %g1, %o2, %o2
   18e24:	92 10 00 18 	mov  %i0, %o1
   18e28:	7f ff ff 0a 	call  18a50 <search_for_named_library>
   18e2c:	90 10 00 1b 	mov  %i3, %o0
   18e30:	80 a2 20 00 	cmp  %o0, 0
   18e34:	12 bf ff d2 	bne  18d7c <_dl_load_shared_library+0x164>
   18e38:	01 00 00 00 	nop 
   18e3c:	10 bf ff ac 	b  18cec <_dl_load_shared_library+0xd4>
   18e40:	98 10 20 00 	clr  %o4	! 0 <errno>
   18e44:	98 10 20 00 	clr  %o4
   18e48:	96 10 00 19 	mov  %i1, %o3
   18e4c:	94 00 40 0a 	add  %g1, %o2, %o2
   18e50:	92 10 00 18 	mov  %i0, %o1
   18e54:	7f ff fe ff 	call  18a50 <search_for_named_library>
   18e58:	90 10 00 1b 	mov  %i3, %o0
   18e5c:	80 a2 20 00 	cmp  %o0, 0
   18e60:	12 bf ff c7 	bne  18d7c <_dl_load_shared_library+0x164>
   18e64:	01 00 00 00 	nop 
   18e68:	10 bf ff b0 	b  18d28 <_dl_load_shared_library+0x110>
   18e6c:	c4 07 00 00 	ld  [ %i4 ], %g2
   18e70:	c4 25 c0 00 	st  %g2, [ %l7 ]
   18e74:	10 bf ff c2 	b  18d7c <_dl_load_shared_library+0x164>
   18e78:	90 10 20 00 	clr  %o0

00018e7c <do_dlopen>:
   18e7c:	9d e3 bf 98 	save  %sp, -104, %sp
   18e80:	c0 27 bf fc 	clr  [ %fp + -4 ]
   18e84:	2f 00 00 9c 	sethi  %hi(0x27000), %l7
   18e88:	7f ff de 67 	call  10824 <__sparc_get_pc_thunk.l7>
   18e8c:	ae 05 e0 44 	add  %l7, 0x44, %l7	! 27044 <locale_mmap+0x68e4>
   18e90:	80 8e 60 07 	btst  7, %i1
   18e94:	12 80 00 0a 	bne  18ebc <do_dlopen+0x40>
   18e98:	b8 10 00 18 	mov  %i0, %i4
   18e9c:	03 00 00 0b 	sethi  %hi(0x2c00), %g1
   18ea0:	84 10 20 0a 	mov  0xa, %g2
   18ea4:	82 18 61 a0 	xor  %g1, 0x1a0, %g1
   18ea8:	82 05 c0 01 	add  %l7, %g1, %g1
   18eac:	c4 20 40 00 	st  %g2, [ %g1 ]
   18eb0:	b0 10 20 00 	clr  %i0
   18eb4:	81 c7 e0 08 	ret 
   18eb8:	81 e8 00 00 	restore 
   18ebc:	03 00 00 01 	sethi  %hi(0x400), %g1
   18ec0:	82 18 63 54 	xor  %g1, 0x354, %g1
   18ec4:	82 05 c0 01 	add  %l7, %g1, %g1
   18ec8:	c4 08 40 00 	ldub  [ %g1 ], %g2
   18ecc:	80 a0 a0 00 	cmp  %g2, 0
   18ed0:	32 80 00 13 	bne,a   18f1c <do_dlopen+0xa0>
   18ed4:	03 00 00 01 	sethi  %hi(0x400), %g1
   18ed8:	84 10 20 01 	mov  1, %g2
   18edc:	c4 28 40 00 	stb  %g2, [ %g1 ]
   18ee0:	03 00 00 0b 	sethi  %hi(0x2c00), %g1
   18ee4:	05 00 00 ad 	sethi  %hi(0x2b400), %g2
   18ee8:	82 18 61 a8 	xor  %g1, 0x1a8, %g1
   18eec:	84 18 bf 70 	xor  %g2, -144, %g2
   18ef0:	82 05 c0 01 	add  %l7, %g1, %g1
   18ef4:	84 05 c0 02 	add  %l7, %g2, %g2
   18ef8:	c4 20 40 00 	st  %g2, [ %g1 ]
   18efc:	03 00 00 0b 	sethi  %hi(0x2c00), %g1
   18f00:	05 00 00 ad 	sethi  %hi(0x2b400), %g2
   18f04:	82 18 61 a4 	xor  %g1, 0x1a4, %g1
   18f08:	84 18 bc d0 	xor  %g2, -816, %g2
   18f0c:	82 05 c0 01 	add  %l7, %g1, %g1
   18f10:	84 05 c0 02 	add  %l7, %g2, %g2
   18f14:	c4 20 40 00 	st  %g2, [ %g1 ]
   18f18:	03 00 00 01 	sethi  %hi(0x400), %g1
   18f1c:	80 a7 20 00 	cmp  %i4, 0
   18f20:	82 18 63 60 	xor  %g1, 0x360, %g1
   18f24:	82 05 c0 01 	add  %l7, %g1, %g1
   18f28:	02 bf ff e3 	be  18eb4 <do_dlopen+0x38>
   18f2c:	f0 00 40 00 	ld  [ %g1 ], %i0
   18f30:	82 10 00 18 	mov  %i0, %g1
   18f34:	ba 10 20 00 	clr  %i5
   18f38:	80 a0 60 00 	cmp  %g1, 0
   18f3c:	32 80 00 48 	bne,a   1905c <do_dlopen+0x1e0>
   18f40:	c4 00 40 00 	ld  [ %g1 ], %g2
   18f44:	80 a6 20 00 	cmp  %i0, 0
   18f48:	12 80 00 54 	bne  19098 <do_dlopen+0x21c>
   18f4c:	f0 27 bf fc 	st  %i0, [ %fp + -4 ]
   18f50:	11 00 00 81 	sethi  %hi(0x20400), %o0
   18f54:	a0 10 00 18 	mov  %i0, %l0
   18f58:	90 1a 3d 54 	xor  %o0, -684, %o0
   18f5c:	a2 10 20 02 	mov  2, %l1
   18f60:	40 00 0f d5 	call  1ceb4 <__GI_getenv>
   18f64:	90 05 c0 08 	add  %l7, %o0, %o0
   18f68:	80 a2 20 00 	cmp  %o0, 0
   18f6c:	22 80 00 02 	be,a   18f74 <do_dlopen+0xf8>
   18f70:	a2 0e 60 02 	and  %i1, 2, %l1
   18f74:	11 00 00 81 	sethi  %hi(0x20400), %o0
   18f78:	90 1a 3d 64 	xor  %o0, -668, %o0
   18f7c:	40 00 0f ce 	call  1ceb4 <__GI_getenv>
   18f80:	90 05 c0 08 	add  %l7, %o0, %o0
   18f84:	03 00 00 01 	sethi  %hi(0x400), %g1
   18f88:	82 18 63 6c 	xor  %g1, 0x36c, %g1
   18f8c:	82 05 c0 01 	add  %l7, %g1, %g1
   18f90:	94 10 00 1d 	mov  %i5, %o2
   18f94:	d0 20 40 00 	st  %o0, [ %g1 ]
   18f98:	a6 07 bf fc 	add  %fp, -4, %l3
   18f9c:	35 00 00 04 	sethi  %hi(0x1000), %i2
   18fa0:	98 10 20 00 	clr  %o4
   18fa4:	90 16 a1 04 	or  %i2, 0x104, %o0
   18fa8:	96 10 00 1c 	mov  %i4, %o3
   18fac:	92 10 00 13 	mov  %l3, %o1
   18fb0:	7f ff ff 1a 	call  18c18 <_dl_load_shared_library>
   18fb4:	90 0e 40 08 	and  %i1, %o0, %o0
   18fb8:	ba 92 20 00 	orcc  %o0, 0, %i5
   18fbc:	02 bf ff be 	be  18eb4 <do_dlopen+0x38>
   18fc0:	b0 10 20 00 	clr  %i0
   18fc4:	7f ff ee 9e 	call  14a3c <malloc>
   18fc8:	90 10 20 18 	mov  0x18, %o0
   18fcc:	94 10 20 18 	mov  0x18, %o2
   18fd0:	b0 10 00 08 	mov  %o0, %i0
   18fd4:	7f ff eb 42 	call  13cdc <__GI_memset>
   18fd8:	92 10 20 00 	clr  %o1
   18fdc:	03 00 00 01 	sethi  %hi(0x400), %g1
   18fe0:	82 18 63 5c 	xor  %g1, 0x35c, %g1
   18fe4:	fa 26 00 00 	st  %i5, [ %i0 ]
   18fe8:	84 05 c0 01 	add  %l7, %g1, %g2
   18fec:	c2 00 80 00 	ld  [ %g2 ], %g1
   18ff0:	f0 20 80 00 	st  %i0, [ %g2 ]
   18ff4:	c2 26 20 04 	st  %g1, [ %i0 + 4 ]
   18ff8:	c4 17 60 4e 	lduh  [ %i5 + 0x4e ], %g2
   18ffc:	80 88 a0 10 	btst  0x10, %g2
   19000:	22 80 00 38 	be,a   190e0 <do_dlopen+0x264>
   19004:	9c 03 bf f0 	add  %sp, -16, %sp
   19008:	80 a0 60 00 	cmp  %g1, 0
   1900c:	02 bf ff aa 	be  18eb4 <do_dlopen+0x38>
   19010:	01 00 00 00 	nop 
   19014:	c4 00 40 00 	ld  [ %g1 ], %g2
   19018:	80 a0 80 1d 	cmp  %g2, %i5
   1901c:	32 bf ff fb 	bne,a   19008 <do_dlopen+0x18c>
   19020:	c2 00 60 04 	ld  [ %g1 + 4 ], %g1
   19024:	f8 00 60 08 	ld  [ %g1 + 8 ], %i4
   19028:	fa 00 60 0c 	ld  [ %g1 + 0xc ], %i5
   1902c:	05 00 00 04 	sethi  %hi(0x1000), %g2
   19030:	f8 26 20 08 	st  %i4, [ %i0 + 8 ]
   19034:	84 10 a1 00 	or  %g2, 0x100, %g2
   19038:	fa 26 20 0c 	st  %i5, [ %i0 + 0xc ]
   1903c:	86 10 20 00 	clr  %g3
   19040:	84 0e 40 02 	and  %i1, %g2, %g2
   19044:	80 a7 40 03 	cmp  %i5, %g3
   19048:	12 80 00 20 	bne  190c8 <do_dlopen+0x24c>
   1904c:	89 28 e0 02 	sll  %g3, 2, %g4
   19050:	c2 00 60 10 	ld  [ %g1 + 0x10 ], %g1
   19054:	10 bf ff 98 	b  18eb4 <do_dlopen+0x38>
   19058:	c2 26 20 10 	st  %g1, [ %i0 + 0x10 ]
   1905c:	c6 00 a0 38 	ld  [ %g2 + 0x38 ], %g3
   19060:	80 a0 c0 1a 	cmp  %g3, %i2
   19064:	3a 80 00 0a 	bcc,a   1908c <do_dlopen+0x210>
   19068:	84 10 00 1d 	mov  %i5, %g2
   1906c:	80 a7 60 00 	cmp  %i5, 0
   19070:	22 80 00 08 	be,a   19090 <do_dlopen+0x214>
   19074:	c2 00 60 10 	ld  [ %g1 + 0x10 ], %g1
   19078:	c8 07 60 38 	ld  [ %i5 + 0x38 ], %g4
   1907c:	80 a0 c0 04 	cmp  %g3, %g4
   19080:	38 80 00 04 	bgu,a   19090 <do_dlopen+0x214>
   19084:	c2 00 60 10 	ld  [ %g1 + 0x10 ], %g1
   19088:	84 10 00 1d 	mov  %i5, %g2
   1908c:	c2 00 60 10 	ld  [ %g1 + 0x10 ], %g1
   19090:	10 bf ff aa 	b  18f38 <do_dlopen+0xbc>
   19094:	ba 10 00 02 	mov  %g2, %i5
   19098:	82 10 00 18 	mov  %i0, %g1
   1909c:	84 10 20 00 	clr  %g2
   190a0:	b0 10 00 01 	mov  %g1, %i0
   190a4:	c2 00 60 10 	ld  [ %g1 + 0x10 ], %g1
   190a8:	80 a0 60 00 	cmp  %g1, 0
   190ac:	32 bf ff fd 	bne,a   190a0 <do_dlopen+0x224>
   190b0:	84 10 20 01 	mov  1, %g2
   190b4:	80 88 a0 01 	btst  1, %g2
   190b8:	32 bf ff a6 	bne,a   18f50 <do_dlopen+0xd4>
   190bc:	f0 27 bf fc 	st  %i0, [ %fp + -4 ]
   190c0:	10 bf ff a5 	b  18f54 <do_dlopen+0xd8>
   190c4:	11 00 00 81 	sethi  %hi(0x20400), %o0
   190c8:	86 00 e0 01 	inc  %g3
   190cc:	f6 07 00 04 	ld  [ %i4 + %g4 ], %i3
   190d0:	c8 06 e0 50 	ld  [ %i3 + 0x50 ], %g4
   190d4:	88 11 00 02 	or  %g4, %g2, %g4
   190d8:	10 bf ff db 	b  19044 <do_dlopen+0x1c8>
   190dc:	c8 26 e0 50 	st  %g4, [ %i3 + 0x50 ]
   190e0:	b4 16 a1 00 	or  %i2, 0x100, %i2
   190e4:	b8 03 a0 60 	add  %sp, 0x60, %i4
   190e8:	a8 10 00 18 	mov  %i0, %l4
   190ec:	aa 10 00 1c 	mov  %i4, %l5
   190f0:	a4 10 00 1c 	mov  %i4, %l2
   190f4:	b6 10 20 00 	clr  %i3
   190f8:	b2 0e 40 1a 	and  %i1, %i2, %i1
   190fc:	fa 27 20 04 	st  %i5, [ %i4 + 4 ]
   19100:	c0 27 00 00 	clr  [ %i4 ]
   19104:	c2 04 a0 04 	ld  [ %l2 + 4 ], %g1
   19108:	b4 10 00 1b 	mov  %i3, %i2
   1910c:	c0 20 60 5c 	clr  [ %g1 + 0x5c ]
   19110:	b6 06 e0 01 	inc  %i3
   19114:	ec 00 60 08 	ld  [ %g1 + 8 ], %l6
   19118:	c2 05 80 00 	ld  [ %l6 ], %g1
   1911c:	80 a0 60 00 	cmp  %g1, 0
   19120:	12 80 00 58 	bne  19280 <do_dlopen+0x404>
   19124:	80 a0 60 01 	cmp  %g1, 1
   19128:	e4 04 80 00 	ld  [ %l2 ], %l2
   1912c:	80 a4 a0 00 	cmp  %l2, 0
   19130:	32 bf ff f6 	bne,a   19108 <do_dlopen+0x28c>
   19134:	c2 04 a0 04 	ld  [ %l2 + 4 ], %g1
   19138:	a9 2e e0 02 	sll  %i3, 2, %l4
   1913c:	b2 10 00 1c 	mov  %i4, %i1
   19140:	7f ff ee 3f 	call  14a3c <malloc>
   19144:	90 10 00 14 	mov  %l4, %o0
   19148:	f6 26 20 0c 	st  %i3, [ %i0 + 0xc ]
   1914c:	ba 10 00 08 	mov  %o0, %i5
   19150:	d0 26 20 08 	st  %o0, [ %i0 + 8 ]
   19154:	a4 10 00 08 	mov  %o0, %l2
   19158:	aa 10 00 08 	mov  %o0, %l5
   1915c:	c2 06 60 04 	ld  [ %i1 + 4 ], %g1
   19160:	c2 25 40 00 	st  %g1, [ %l5 ]
   19164:	e6 00 60 5c 	ld  [ %g1 + 0x5c ], %l3
   19168:	80 a4 e0 00 	cmp  %l3, 0
   1916c:	32 80 00 75 	bne,a   19340 <do_dlopen+0x4c4>
   19170:	c2 04 e0 04 	ld  [ %l3 + 4 ], %g1
   19174:	f2 06 40 00 	ld  [ %i1 ], %i1
   19178:	80 a6 60 00 	cmp  %i1, 0
   1917c:	12 bf ff f8 	bne  1915c <do_dlopen+0x2e0>
   19180:	aa 05 60 04 	add  %l5, 4, %l5
   19184:	90 10 00 14 	mov  %l4, %o0
   19188:	7f ff ee 2d 	call  14a3c <malloc>
   1918c:	a8 10 20 00 	clr  %l4
   19190:	b2 10 00 08 	mov  %o0, %i1
   19194:	80 a5 00 1b 	cmp  %l4, %i3
   19198:	32 80 00 78 	bne,a   19378 <do_dlopen+0x4fc>
   1919c:	d2 04 80 00 	ld  [ %l2 ], %o1
   191a0:	7f ff ed 7f 	call  1479c <free>
   191a4:	90 10 00 19 	mov  %i1, %o0
   191a8:	9e 07 7f fc 	add  %i5, -4, %o7
   191ac:	c4 07 20 04 	ld  [ %i4 + 4 ], %g2
   191b0:	82 10 20 00 	clr  %g1
   191b4:	87 28 60 02 	sll  %g1, 2, %g3
   191b8:	88 10 00 01 	mov  %g1, %g4
   191bc:	c6 07 40 03 	ld  [ %i5 + %g3 ], %g3
   191c0:	80 a0 c0 02 	cmp  %g3, %g2
   191c4:	12 bf ff fc 	bne  191b4 <do_dlopen+0x338>
   191c8:	82 00 60 01 	inc  %g1
   191cc:	80 a0 40 1b 	cmp  %g1, %i3
   191d0:	0a 80 00 8d 	bcs  19404 <do_dlopen+0x588>
   191d4:	85 28 60 02 	sll  %g1, 2, %g2
   191d8:	f8 07 00 00 	ld  [ %i4 ], %i4
   191dc:	80 a7 20 00 	cmp  %i4, 0
   191e0:	32 bf ff f4 	bne,a   191b0 <do_dlopen+0x334>
   191e4:	c4 07 20 04 	ld  [ %i4 + 4 ], %g2
   191e8:	03 00 00 09 	sethi  %hi(0x2400), %g1
   191ec:	82 18 63 a8 	xor  %g1, 0x3a8, %g1
   191f0:	82 05 c0 01 	add  %l7, %g1, %g1
   191f4:	94 10 00 11 	mov  %l1, %o2
   191f8:	d2 00 40 00 	ld  [ %g1 ], %o1
   191fc:	90 10 00 18 	mov  %i0, %o0
   19200:	7f ff fa 1e 	call  17a78 <_dl_fixup>
   19204:	92 02 60 40 	add  %o1, 0x40, %o1
   19208:	80 a2 20 00 	cmp  %o0, 0
   1920c:	12 80 00 ec 	bne  195bc <do_dlopen+0x740>
   19210:	80 a4 20 00 	cmp  %l0, 0
   19214:	32 80 00 91 	bne,a   19458 <do_dlopen+0x5dc>
   19218:	c2 04 20 10 	ld  [ %l0 + 0x10 ], %g1
   1921c:	82 10 20 00 	clr  %g1
   19220:	b2 10 20 00 	clr  %i1
   19224:	80 a6 40 1b 	cmp  %i1, %i3
   19228:	32 80 00 99 	bne,a   1948c <do_dlopen+0x610>
   1922c:	85 2e 60 02 	sll  %i1, 2, %g2
   19230:	80 88 60 01 	btst  1, %g1
   19234:	02 80 00 b3 	be  19500 <do_dlopen+0x684>
   19238:	03 00 00 01 	sethi  %hi(0x400), %g1
   1923c:	03 00 00 0b 	sethi  %hi(0x2c00), %g1
   19240:	82 18 61 8c 	xor  %g1, 0x18c, %g1
   19244:	82 05 c0 01 	add  %l7, %g1, %g1
   19248:	c4 00 40 00 	ld  [ %g1 ], %g2
   1924c:	84 00 a0 01 	inc  %g2
   19250:	80 a0 a0 00 	cmp  %g2, 0
   19254:	12 80 00 aa 	bne  194fc <do_dlopen+0x680>
   19258:	c4 20 40 00 	st  %g2, [ %g1 ]
   1925c:	82 10 20 01 	mov  1, %g1
   19260:	90 10 20 1e 	mov  0x1e, %o0
   19264:	91 d0 20 10 	ta  0x10
   19268:	1a 80 00 03 	bcc  19274 <do_dlopen+0x3f8>
   1926c:	ba 10 00 08 	mov  %o0, %i5
   19270:	ba 20 00 08 	neg  %o0, %i5
   19274:	7f ff de 42 	call  10b7c <__errno_location>
   19278:	ba 20 00 1d 	neg  %i5
   1927c:	fa 22 00 00 	st  %i5, [ %o0 ]
   19280:	32 bf ff a6 	bne,a   19118 <do_dlopen+0x29c>
   19284:	ac 05 a0 08 	add  %l6, 8, %l6
   19288:	c2 05 a0 04 	ld  [ %l6 + 4 ], %g1
   1928c:	d4 04 a0 04 	ld  [ %l2 + 4 ], %o2
   19290:	98 10 20 00 	clr  %o4
   19294:	d6 02 a0 80 	ld  [ %o2 + 0x80 ], %o3
   19298:	92 10 00 13 	mov  %l3, %o1
   1929c:	96 02 c0 01 	add  %o3, %g1, %o3
   192a0:	7f ff fe 5e 	call  18c18 <_dl_load_shared_library>
   192a4:	90 10 00 19 	mov  %i1, %o0
   192a8:	ba 92 20 00 	orcc  %o0, 0, %i5
   192ac:	02 80 00 c5 	be  195c0 <do_dlopen+0x744>
   192b0:	92 10 20 00 	clr  %o1
   192b4:	7f ff ed e2 	call  14a3c <malloc>
   192b8:	90 10 20 18 	mov  0x18, %o0
   192bc:	94 10 20 18 	mov  0x18, %o2
   192c0:	d0 25 20 10 	st  %o0, [ %l4 + 0x10 ]
   192c4:	7f ff ea 86 	call  13cdc <__GI_memset>
   192c8:	92 10 20 00 	clr  %o1
   192cc:	e8 05 20 10 	ld  [ %l4 + 0x10 ], %l4
   192d0:	fa 25 00 00 	st  %i5, [ %l4 ]
   192d4:	9c 03 bf f0 	add  %sp, -16, %sp
   192d8:	82 03 a0 60 	add  %sp, 0x60, %g1
   192dc:	fa 23 a0 64 	st  %i5, [ %sp + 0x64 ]
   192e0:	c4 04 a0 04 	ld  [ %l2 + 4 ], %g2
   192e4:	c6 00 a0 5c 	ld  [ %g2 + 0x5c ], %g3
   192e8:	c6 23 a0 60 	st  %g3, [ %sp + 0x60 ]
   192ec:	c2 20 a0 5c 	st  %g1, [ %g2 + 0x5c ]
   192f0:	82 10 00 1c 	mov  %i4, %g1
   192f4:	c4 00 60 04 	ld  [ %g1 + 4 ], %g2
   192f8:	80 a0 80 1d 	cmp  %g2, %i5
   192fc:	32 80 00 07 	bne,a   19318 <do_dlopen+0x49c>
   19300:	c2 00 40 00 	ld  [ %g1 ], %g1
   19304:	c2 17 60 4c 	lduh  [ %i5 + 0x4c ], %g1
   19308:	82 00 7f ff 	add  %g1, -1, %g1
   1930c:	c2 37 60 4c 	sth  %g1, [ %i5 + 0x4c ]
   19310:	10 bf ff 82 	b  19118 <do_dlopen+0x29c>
   19314:	ac 05 a0 08 	add  %l6, 8, %l6
   19318:	80 a0 60 00 	cmp  %g1, 0
   1931c:	32 bf ff f7 	bne,a   192f8 <do_dlopen+0x47c>
   19320:	c4 00 60 04 	ld  [ %g1 + 4 ], %g2
   19324:	9c 03 bf f0 	add  %sp, -16, %sp
   19328:	82 03 a0 60 	add  %sp, 0x60, %g1
   1932c:	c2 25 40 00 	st  %g1, [ %l5 ]
   19330:	fa 23 a0 64 	st  %i5, [ %sp + 0x64 ]
   19334:	c0 23 a0 60 	clr  [ %sp + 0x60 ]
   19338:	10 bf ff f6 	b  19310 <do_dlopen+0x494>
   1933c:	aa 10 00 01 	mov  %g1, %l5
   19340:	c2 00 60 50 	ld  [ %g1 + 0x50 ], %g1
   19344:	80 88 61 00 	btst  0x100, %g1
   19348:	32 bf ff 88 	bne,a   19168 <do_dlopen+0x2ec>
   1934c:	e6 04 c0 00 	ld  [ %l3 ], %l3
   19350:	7f ff ed bb 	call  14a3c <malloc>
   19354:	90 10 20 08 	mov  8, %o0
   19358:	c2 04 e0 04 	ld  [ %l3 + 4 ], %g1
   1935c:	c2 22 20 04 	st  %g1, [ %o0 + 4 ]
   19360:	c2 06 60 04 	ld  [ %i1 + 4 ], %g1
   19364:	c4 00 60 60 	ld  [ %g1 + 0x60 ], %g2
   19368:	c4 22 00 00 	st  %g2, [ %o0 ]
   1936c:	d0 20 60 60 	st  %o0, [ %g1 + 0x60 ]
   19370:	10 bf ff 7e 	b  19168 <do_dlopen+0x2ec>
   19374:	e6 04 c0 00 	ld  [ %l3 ], %l3
   19378:	c2 02 60 44 	ld  [ %o1 + 0x44 ], %g1
   1937c:	80 a0 60 00 	cmp  %g1, 0
   19380:	02 80 00 05 	be  19394 <do_dlopen+0x518>
   19384:	01 00 00 00 	nop 
   19388:	a8 05 20 01 	inc  %l4
   1938c:	10 bf ff 82 	b  19194 <do_dlopen+0x318>
   19390:	a4 04 a0 04 	add  %l2, 4, %l2
   19394:	7f ff f5 5f 	call  16910 <_dl_build_local_scope>
   19398:	90 10 00 19 	mov  %i1, %o0
   1939c:	ec 04 80 00 	ld  [ %l2 ], %l6
   193a0:	a6 10 00 08 	mov  %o0, %l3
   193a4:	ab 2a 20 02 	sll  %o0, 2, %l5
   193a8:	7f ff ed a5 	call  14a3c <malloc>
   193ac:	90 10 00 15 	mov  %l5, %o0
   193b0:	c2 04 80 00 	ld  [ %l2 ], %g1
   193b4:	d0 25 a0 40 	st  %o0, [ %l6 + 0x40 ]
   193b8:	e6 20 60 44 	st  %l3, [ %g1 + 0x44 ]
   193bc:	94 10 00 15 	mov  %l5, %o2
   193c0:	92 10 00 19 	mov  %i1, %o1
   193c4:	7f ff e6 1c 	call  12c34 <__GI_memcpy>
   193c8:	d0 00 60 40 	ld  [ %g1 + 0x40 ], %o0
   193cc:	80 a6 e0 00 	cmp  %i3, 0
   193d0:	22 bf ff ef 	be,a   1938c <do_dlopen+0x510>
   193d4:	a8 05 20 01 	inc  %l4
   193d8:	82 10 20 00 	clr  %g1
   193dc:	85 28 60 02 	sll  %g1, 2, %g2
   193e0:	c6 07 40 02 	ld  [ %i5 + %g2 ], %g3
   193e4:	c4 10 e0 4e 	lduh  [ %g3 + 0x4e ], %g2
   193e8:	84 08 bf df 	and  %g2, -33, %g2
   193ec:	82 00 60 01 	inc  %g1
   193f0:	80 a6 c0 01 	cmp  %i3, %g1
   193f4:	12 bf ff fa 	bne  193dc <do_dlopen+0x560>
   193f8:	c4 30 e0 4e 	sth  %g2, [ %g3 + 0x4e ]
   193fc:	10 bf ff e4 	b  1938c <do_dlopen+0x510>
   19400:	a8 05 20 01 	inc  %l4
   19404:	f2 07 40 02 	ld  [ %i5 + %g2 ], %i1
   19408:	c6 06 60 5c 	ld  [ %i1 + 0x5c ], %g3
   1940c:	80 a0 e0 00 	cmp  %g3, 0
   19410:	22 bf ff 6f 	be,a   191cc <do_dlopen+0x350>
   19414:	82 00 60 01 	inc  %g1
   19418:	d8 00 e0 04 	ld  [ %g3 + 4 ], %o4
   1941c:	da 07 20 04 	ld  [ %i4 + 4 ], %o5
   19420:	80 a3 00 0d 	cmp  %o4, %o5
   19424:	32 bf ff fa 	bne,a   1940c <do_dlopen+0x590>
   19428:	c6 00 c0 00 	ld  [ %g3 ], %g3
   1942c:	87 29 20 02 	sll  %g4, 2, %g3
   19430:	80 a0 c0 02 	cmp  %g3, %g2
   19434:	32 80 00 06 	bne,a   1944c <do_dlopen+0x5d0>
   19438:	da 03 c0 02 	ld  [ %o7 + %g2 ], %o5
   1943c:	f2 27 40 03 	st  %i1, [ %i5 + %g3 ]
   19440:	88 01 20 01 	inc  %g4
   19444:	10 bf ff 62 	b  191cc <do_dlopen+0x350>
   19448:	82 00 60 01 	inc  %g1
   1944c:	da 27 40 02 	st  %o5, [ %i5 + %g2 ]
   19450:	10 bf ff f8 	b  19430 <do_dlopen+0x5b4>
   19454:	84 00 bf fc 	add  %g2, -4, %g2
   19458:	80 a0 60 00 	cmp  %g1, 0
   1945c:	02 bf ff 70 	be  1921c <do_dlopen+0x3a0>
   19460:	c2 27 bf fc 	st  %g1, [ %fp + -4 ]
   19464:	d0 00 40 00 	ld  [ %g1 ], %o0
   19468:	c2 02 21 14 	ld  [ %o0 + 0x114 ], %g1
   1946c:	80 a0 60 00 	cmp  %g1, 0
   19470:	22 80 00 05 	be,a   19484 <do_dlopen+0x608>
   19474:	c2 07 bf fc 	ld  [ %fp + -4 ], %g1
   19478:	7f ff f9 4e 	call  179b0 <_dl_protect_relro>
   1947c:	01 00 00 00 	nop 
   19480:	c2 07 bf fc 	ld  [ %fp + -4 ], %g1
   19484:	10 bf ff f5 	b  19458 <do_dlopen+0x5dc>
   19488:	c2 00 60 10 	ld  [ %g1 + 0x10 ], %g1
   1948c:	f8 07 40 02 	ld  [ %i5 + %g2 ], %i4
   19490:	c4 17 20 4e 	lduh  [ %i4 + 0x4e ], %g2
   19494:	80 88 a0 04 	btst  4, %g2
   19498:	32 bf ff 63 	bne,a   19224 <do_dlopen+0x3a8>
   1949c:	b2 06 60 01 	inc  %i1
   194a0:	c4 07 20 1c 	ld  [ %i4 + 0x1c ], %g2
   194a4:	80 a0 a0 00 	cmp  %g2, 0
   194a8:	22 bf ff 5f 	be,a   19224 <do_dlopen+0x3a8>
   194ac:	b2 06 60 01 	inc  %i1
   194b0:	40 00 10 05 	call  1d4c4 <_dl_add_to_slotinfo>
   194b4:	90 10 00 1c 	mov  %i4, %o0
   194b8:	c4 4f 20 30 	ldsb  [ %i4 + 0x30 ], %g2
   194bc:	80 a0 a0 00 	cmp  %g2, 0
   194c0:	06 80 00 05 	bl  194d4 <do_dlopen+0x658>
   194c4:	c2 0f 20 30 	ldub  [ %i4 + 0x30 ], %g1
   194c8:	82 10 20 01 	mov  1, %g1
   194cc:	10 bf ff 56 	b  19224 <do_dlopen+0x3a8>
   194d0:	b2 06 60 01 	inc  %i1
   194d4:	82 08 60 7f 	and  %g1, 0x7f, %g1
   194d8:	c2 2f 20 30 	stb  %g1, [ %i4 + 0x30 ]
   194dc:	03 00 00 00 	sethi  %hi(0), %g1
   194e0:	82 18 62 40 	xor  %g1, 0x240, %g1
   194e4:	82 05 c0 01 	add  %l7, %g1, %g1
   194e8:	c2 00 40 00 	ld  [ %g1 ], %g1
   194ec:	9f c0 40 00 	call  %g1
   194f0:	90 10 00 1c 	mov  %i4, %o0
   194f4:	10 bf ff f6 	b  194cc <do_dlopen+0x650>
   194f8:	82 10 20 01 	mov  1, %g1
   194fc:	03 00 00 01 	sethi  %hi(0x400), %g1
   19500:	82 18 63 64 	xor  %g1, 0x364, %g1
   19504:	ae 05 c0 01 	add  %l7, %g1, %l7
   19508:	c2 05 c0 00 	ld  [ %l7 ], %g1
   1950c:	80 a0 60 00 	cmp  %g1, 0
   19510:	02 80 00 0c 	be  19540 <do_dlopen+0x6c4>
   19514:	80 a6 bf ff 	cmp  %i2, -1
   19518:	f8 00 60 08 	ld  [ %g1 + 8 ], %i4
   1951c:	80 a7 20 00 	cmp  %i4, 0
   19520:	02 80 00 07 	be  1953c <do_dlopen+0x6c0>
   19524:	84 10 20 01 	mov  1, %g2
   19528:	9f c7 00 00 	call  %i4
   1952c:	c4 20 60 0c 	st  %g2, [ %g1 + 0xc ]
   19530:	c2 05 c0 00 	ld  [ %l7 ], %g1
   19534:	9f c7 00 00 	call  %i4
   19538:	c0 20 60 0c 	clr  [ %g1 + 0xc ]
   1953c:	80 a6 bf ff 	cmp  %i2, -1
   19540:	02 bf fe 5d 	be  18eb4 <do_dlopen+0x38>
   19544:	83 2e a0 02 	sll  %i2, 2, %g1
   19548:	f8 07 40 01 	ld  [ %i5 + %g1 ], %i4
   1954c:	c2 17 20 4e 	lduh  [ %i4 + 0x4e ], %g1
   19550:	80 88 60 04 	btst  4, %g1
   19554:	12 80 00 18 	bne  195b4 <do_dlopen+0x738>
   19558:	82 10 60 04 	or  %g1, 4, %g1
   1955c:	c2 37 20 4e 	sth  %g1, [ %i4 + 0x4e ]
   19560:	c2 07 20 9c 	ld  [ %i4 + 0x9c ], %g1
   19564:	80 a0 60 00 	cmp  %g1, 0
   19568:	22 80 00 09 	be,a   1958c <do_dlopen+0x710>
   1956c:	c2 07 20 d0 	ld  [ %i4 + 0xd0 ], %g1
   19570:	c4 07 00 00 	ld  [ %i4 ], %g2
   19574:	82 80 40 02 	addcc  %g1, %g2, %g1
   19578:	22 80 00 05 	be,a   1958c <do_dlopen+0x710>
   1957c:	c2 07 20 d0 	ld  [ %i4 + 0xd0 ], %g1
   19580:	9f c0 40 00 	call  %g1
   19584:	01 00 00 00 	nop 
   19588:	c2 07 20 d0 	ld  [ %i4 + 0xd0 ], %g1
   1958c:	80 a0 60 00 	cmp  %g1, 0
   19590:	22 bf ff eb 	be,a   1953c <do_dlopen+0x6c0>
   19594:	b4 06 bf ff 	add  %i2, -1, %i2
   19598:	c4 07 00 00 	ld  [ %i4 ], %g2
   1959c:	82 00 40 02 	add  %g1, %g2, %g1
   195a0:	80 a0 60 00 	cmp  %g1, 0
   195a4:	22 bf ff e6 	be,a   1953c <do_dlopen+0x6c0>
   195a8:	b4 06 bf ff 	add  %i2, -1, %i2
   195ac:	7f ff f5 5b 	call  16b18 <_dl_run_init_array>
   195b0:	90 10 00 1c 	mov  %i4, %o0
   195b4:	10 bf ff e2 	b  1953c <do_dlopen+0x6c0>
   195b8:	b4 06 bf ff 	add  %i2, -1, %i2
   195bc:	92 10 20 00 	clr  %o1
   195c0:	7f ff f5 87 	call  16bdc <do_dlclose>
   195c4:	90 10 00 18 	mov  %i0, %o0
   195c8:	10 bf fe 3b 	b  18eb4 <do_dlopen+0x38>
   195cc:	b0 10 20 00 	clr  %i0

000195d0 <dlopen>:
   195d0:	9d e3 bf 90 	save  %sp, -112, %sp
   195d4:	15 00 00 00 	sethi  %hi(0), %o2
   195d8:	94 1a a2 4c 	xor  %o2, 0x24c, %o2
   195dc:	2f 00 00 9a 	sethi  %hi(0x26800), %l7
   195e0:	7f ff dc 91 	call  10824 <__sparc_get_pc_thunk.l7>
   195e4:	ae 05 e0 ec 	add  %l7, 0xec, %l7	! 268ec <locale_mmap+0x618c>
   195e8:	b8 07 bf f0 	add  %fp, -16, %i4
   195ec:	ba 05 c0 0a 	add  %l7, %o2, %i5
   195f0:	90 10 00 1c 	mov  %i4, %o0
   195f4:	94 10 00 1d 	mov  %i5, %o2
   195f8:	13 00 00 a8 	sethi  %hi(0x2a000), %o1
   195fc:	92 1a 7c bc 	xor  %o1, -836, %o1
   19600:	7f ff f1 68 	call  15ba0 <_pthread_cleanup_push_defer>
   19604:	92 05 c0 09 	add  %l7, %o1, %o1
   19608:	7f ff f1 60 	call  15b88 <__pthread_mutex_lock>
   1960c:	90 10 00 1d 	mov  %i5, %o0
   19610:	92 10 00 19 	mov  %i1, %o1
   19614:	94 10 00 1f 	mov  %i7, %o2
   19618:	7f ff fe 19 	call  18e7c <do_dlopen>
   1961c:	90 10 00 18 	mov  %i0, %o0
   19620:	92 10 20 01 	mov  1, %o1
   19624:	b0 10 00 08 	mov  %o0, %i0
   19628:	7f ff f1 63 	call  15bb4 <_pthread_cleanup_pop_restore>
   1962c:	90 10 00 1c 	mov  %i4, %o0
   19630:	81 c7 e0 08 	ret 
   19634:	81 e8 00 00 	restore 

00019638 <dlsym>:
   19638:	9d e3 bf 88 	save  %sp, -120, %sp
   1963c:	15 00 00 00 	sethi  %hi(0), %o2
   19640:	94 1a a2 4c 	xor  %o2, 0x24c, %o2
   19644:	2f 00 00 9a 	sethi  %hi(0x26800), %l7
   19648:	7f ff dc 77 	call  10824 <__sparc_get_pc_thunk.l7>
   1964c:	ae 05 e0 84 	add  %l7, 0x84, %l7	! 26884 <locale_mmap+0x6124>
   19650:	b6 07 bf f0 	add  %fp, -16, %i3
   19654:	ba 05 c0 0a 	add  %l7, %o2, %i5
   19658:	90 10 00 1b 	mov  %i3, %o0
   1965c:	94 10 00 1d 	mov  %i5, %o2
   19660:	13 00 00 a8 	sethi  %hi(0x2a000), %o1
   19664:	92 1a 7c bc 	xor  %o1, -836, %o1
   19668:	7f ff f1 4e 	call  15ba0 <_pthread_cleanup_push_defer>
   1966c:	92 05 c0 09 	add  %l7, %o1, %o1
   19670:	7f ff f1 46 	call  15b88 <__pthread_mutex_lock>
   19674:	90 10 00 1d 	mov  %i5, %o0
   19678:	c0 27 bf e8 	clr  [ %fp + -24 ]
   1967c:	c0 27 bf ec 	clr  [ %fp + -20 ]
   19680:	b8 10 00 18 	mov  %i0, %i4
   19684:	03 00 00 01 	sethi  %hi(0x400), %g1
   19688:	b0 10 00 1f 	mov  %i7, %i0
   1968c:	82 18 63 60 	xor  %g1, 0x360, %g1
   19690:	80 a7 20 00 	cmp  %i4, 0
   19694:	82 05 c0 01 	add  %l7, %g1, %g1
   19698:	12 80 00 04 	bne  196a8 <dlsym+0x70>
   1969c:	fa 00 40 00 	ld  [ %g1 ], %i5
   196a0:	10 80 00 22 	b  19728 <dlsym+0xf0>
   196a4:	86 10 20 00 	clr  %g3
   196a8:	80 a7 3f ff 	cmp  %i4, -1
   196ac:	02 80 00 18 	be  1970c <dlsym+0xd4>
   196b0:	80 a7 00 1d 	cmp  %i4, %i5
   196b4:	02 bf ff fb 	be  196a0 <dlsym+0x68>
   196b8:	05 00 00 01 	sethi  %hi(0x400), %g2
   196bc:	84 18 a3 5c 	xor  %g2, 0x35c, %g2
   196c0:	84 05 c0 02 	add  %l7, %g2, %g2
   196c4:	f0 00 80 00 	ld  [ %g2 ], %i0
   196c8:	80 a6 20 00 	cmp  %i0, 0
   196cc:	12 80 00 0c 	bne  196fc <dlsym+0xc4>
   196d0:	80 a7 00 18 	cmp  %i4, %i0
   196d4:	03 00 00 0b 	sethi  %hi(0x2c00), %g1
   196d8:	84 10 20 0a 	mov  0xa, %g2
   196dc:	82 18 61 a0 	xor  %g1, 0x1a0, %g1
   196e0:	82 05 c0 01 	add  %l7, %g1, %g1
   196e4:	c4 20 40 00 	st  %g2, [ %g1 ]
   196e8:	92 10 20 01 	mov  1, %o1
   196ec:	7f ff f1 32 	call  15bb4 <_pthread_cleanup_pop_restore>
   196f0:	90 10 00 1b 	mov  %i3, %o0
   196f4:	81 c7 e0 08 	ret 
   196f8:	81 e8 00 00 	restore 
   196fc:	22 bf ff e9 	be,a   196a0 <dlsym+0x68>
   19700:	ba 10 00 1c 	mov  %i4, %i5
   19704:	10 bf ff f1 	b  196c8 <dlsym+0x90>
   19708:	f0 06 20 04 	ld  [ %i0 + 4 ], %i0
   1970c:	84 10 00 1d 	mov  %i5, %g2
   19710:	86 10 00 1f 	mov  %i7, %g3
   19714:	ba 10 3f ff 	mov  -1, %i5
   19718:	88 10 20 00 	clr  %g4
   1971c:	80 a0 a0 00 	cmp  %g2, 0
   19720:	32 80 00 20 	bne,a   197a0 <dlsym+0x168>
   19724:	f8 00 80 00 	ld  [ %g2 ], %i4
   19728:	c2 00 40 00 	ld  [ %g1 ], %g1
   1972c:	80 a0 40 1d 	cmp  %g1, %i5
   19730:	12 80 00 03 	bne  1973c <dlsym+0x104>
   19734:	b8 10 20 00 	clr  %i4
   19738:	f8 07 40 00 	ld  [ %i5 ], %i4
   1973c:	80 a0 00 03 	cmp  %g0, %g3
   19740:	b4 07 bf e8 	add  %fp, -24, %i2
   19744:	21 20 00 00 	sethi  %hi(0x80000000), %l0
   19748:	a2 40 20 00 	addx  %g0, 0, %l1
   1974c:	d2 07 40 00 	ld  [ %i5 ], %o1
   19750:	98 10 00 1a 	mov  %i2, %o4
   19754:	96 10 00 10 	mov  %l0, %o3
   19758:	94 10 00 1c 	mov  %i4, %o2
   1975c:	92 02 60 40 	add  %o1, 0x40, %o1
   19760:	7f ff f6 de 	call  172d8 <_dl_find_hash>
   19764:	90 10 00 19 	mov  %i1, %o0
   19768:	b0 92 20 00 	orcc  %o0, 0, %i0
   1976c:	12 bf ff df 	bne  196e8 <dlsym+0xb0>
   19770:	80 a4 60 00 	cmp  %l1, 0
   19774:	02 80 00 05 	be  19788 <dlsym+0x150>
   19778:	fa 07 60 10 	ld  [ %i5 + 0x10 ], %i5
   1977c:	80 a7 60 00 	cmp  %i5, 0
   19780:	32 bf ff f4 	bne,a   19750 <dlsym+0x118>
   19784:	d2 07 40 00 	ld  [ %i5 ], %o1
   19788:	03 00 00 0b 	sethi  %hi(0x2c00), %g1
   1978c:	82 18 61 a0 	xor  %g1, 0x1a0, %g1
   19790:	ae 05 c0 01 	add  %l7, %g1, %l7
   19794:	82 10 20 0b 	mov  0xb, %g1
   19798:	10 bf ff d4 	b  196e8 <dlsym+0xb0>
   1979c:	c2 25 c0 00 	st  %g1, [ %l7 ]
   197a0:	f4 07 20 38 	ld  [ %i4 + 0x38 ], %i2
   197a4:	80 a6 00 1a 	cmp  %i0, %i2
   197a8:	08 bf ff dd 	bleu  1971c <dlsym+0xe4>
   197ac:	c4 00 a0 10 	ld  [ %g2 + 0x10 ], %g2
   197b0:	80 a1 20 00 	cmp  %g4, 0
   197b4:	22 80 00 07 	be,a   197d0 <dlsym+0x198>
   197b8:	ba 10 00 02 	mov  %g2, %i5
   197bc:	de 01 20 38 	ld  [ %g4 + 0x38 ], %o7
   197c0:	80 a6 80 0f 	cmp  %i2, %o7
   197c4:	08 bf ff d7 	bleu  19720 <dlsym+0xe8>
   197c8:	80 a0 a0 00 	cmp  %g2, 0
   197cc:	ba 10 00 02 	mov  %g2, %i5
   197d0:	10 bf ff d3 	b  1971c <dlsym+0xe4>
   197d4:	88 10 00 1c 	mov  %i4, %g4

000197d8 <dlclose>:
   197d8:	9d e3 bf 90 	save  %sp, -112, %sp
   197dc:	15 00 00 00 	sethi  %hi(0), %o2
   197e0:	94 1a a2 4c 	xor  %o2, 0x24c, %o2
   197e4:	2f 00 00 99 	sethi  %hi(0x26400), %l7
   197e8:	7f ff dc 0f 	call  10824 <__sparc_get_pc_thunk.l7>
   197ec:	ae 05 e2 e4 	add  %l7, 0x2e4, %l7	! 266e4 <locale_mmap+0x5f84>
   197f0:	b8 07 bf f0 	add  %fp, -16, %i4
   197f4:	ba 05 c0 0a 	add  %l7, %o2, %i5
   197f8:	90 10 00 1c 	mov  %i4, %o0
   197fc:	94 10 00 1d 	mov  %i5, %o2
   19800:	13 00 00 a8 	sethi  %hi(0x2a000), %o1
   19804:	92 1a 7c bc 	xor  %o1, -836, %o1
   19808:	7f ff f0 e6 	call  15ba0 <_pthread_cleanup_push_defer>
   1980c:	92 05 c0 09 	add  %l7, %o1, %o1
   19810:	7f ff f0 de 	call  15b88 <__pthread_mutex_lock>
   19814:	90 10 00 1d 	mov  %i5, %o0
   19818:	92 10 20 01 	mov  1, %o1
   1981c:	7f ff f4 f0 	call  16bdc <do_dlclose>
   19820:	90 10 00 18 	mov  %i0, %o0
   19824:	92 10 20 01 	mov  1, %o1
   19828:	b0 10 00 08 	mov  %o0, %i0
   1982c:	7f ff f0 e2 	call  15bb4 <_pthread_cleanup_pop_restore>
   19830:	90 10 00 1c 	mov  %i4, %o0
   19834:	81 c7 e0 08 	ret 
   19838:	81 e8 00 00 	restore 

0001983c <dlerror>:
   1983c:	9d e3 bf a0 	save  %sp, -96, %sp
   19840:	2f 00 00 99 	sethi  %hi(0x26400), %l7
   19844:	7f ff db f8 	call  10824 <__sparc_get_pc_thunk.l7>
   19848:	ae 05 e2 88 	add  %l7, 0x288, %l7	! 26688 <locale_mmap+0x5f28>
   1984c:	03 00 00 0b 	sethi  %hi(0x2c00), %g1
   19850:	82 18 61 a0 	xor  %g1, 0x1a0, %g1
   19854:	82 05 c0 01 	add  %l7, %g1, %g1
   19858:	c4 00 40 00 	ld  [ %g1 ], %g2
   1985c:	80 a0 a0 00 	cmp  %g2, 0
   19860:	02 80 00 08 	be  19880 <dlerror+0x44>
   19864:	b0 10 20 00 	clr  %i0
   19868:	07 00 00 00 	sethi  %hi(0), %g3
   1986c:	85 28 a0 02 	sll  %g2, 2, %g2
   19870:	86 18 ff c0 	xor  %g3, -64, %g3
   19874:	c0 20 40 00 	clr  [ %g1 ]
   19878:	ae 05 c0 03 	add  %l7, %g3, %l7
   1987c:	f0 05 c0 02 	ld  [ %l7 + %g2 ], %i0
   19880:	81 c7 e0 08 	ret 
   19884:	81 e8 00 00 	restore 

00019888 <dladdr>:
   19888:	9d e3 bf 90 	save  %sp, -112, %sp
   1988c:	15 00 00 00 	sethi  %hi(0), %o2
   19890:	94 1a a2 4c 	xor  %o2, 0x24c, %o2
   19894:	2f 00 00 99 	sethi  %hi(0x26400), %l7
   19898:	7f ff db e3 	call  10824 <__sparc_get_pc_thunk.l7>
   1989c:	ae 05 e2 34 	add  %l7, 0x234, %l7	! 26634 <locale_mmap+0x5ed4>
   198a0:	a0 07 bf f0 	add  %fp, -16, %l0
   198a4:	ba 05 c0 0a 	add  %l7, %o2, %i5
   198a8:	90 10 00 10 	mov  %l0, %o0
   198ac:	94 10 00 1d 	mov  %i5, %o2
   198b0:	13 00 00 a8 	sethi  %hi(0x2a000), %o1
   198b4:	92 1a 7c bc 	xor  %o1, -836, %o1
   198b8:	7f ff f0 ba 	call  15ba0 <_pthread_cleanup_push_defer>
   198bc:	92 05 c0 09 	add  %l7, %o1, %o1
   198c0:	7f ff f0 b2 	call  15b88 <__pthread_mutex_lock>
   198c4:	90 10 00 1d 	mov  %i5, %o0
   198c8:	03 00 00 09 	sethi  %hi(0x2400), %g1
   198cc:	82 18 63 a8 	xor  %g1, 0x3a8, %g1
   198d0:	b8 10 00 18 	mov  %i0, %i4
   198d4:	ae 05 c0 01 	add  %l7, %g1, %l7
   198d8:	82 10 20 00 	clr  %g1
   198dc:	c6 05 c0 00 	ld  [ %l7 ], %g3
   198e0:	80 a0 e0 00 	cmp  %g3, 0
   198e4:	32 80 00 21 	bne,a   19968 <dladdr+0xe0>
   198e8:	c4 00 e0 38 	ld  [ %g3 + 0x38 ], %g2
   198ec:	80 a0 60 00 	cmp  %g1, 0
   198f0:	02 80 00 19 	be  19954 <dladdr+0xcc>
   198f4:	b0 10 20 00 	clr  %i0
   198f8:	c4 00 60 04 	ld  [ %g1 + 4 ], %g2
   198fc:	d6 00 60 84 	ld  [ %g1 + 0x84 ], %o3
   19900:	c4 26 40 00 	st  %g2, [ %i1 ]
   19904:	d8 00 60 54 	ld  [ %g1 + 0x54 ], %o4
   19908:	c4 00 60 38 	ld  [ %g1 + 0x38 ], %g2
   1990c:	b4 10 20 00 	clr  %i2
   19910:	c4 26 60 04 	st  %g2, [ %i1 + 4 ]
   19914:	94 10 20 00 	clr  %o2
   19918:	b6 10 20 00 	clr  %i3
   1991c:	80 a6 c0 0c 	cmp  %i3, %o4
   19920:	32 80 00 1e 	bne,a   19998 <dladdr+0x110>
   19924:	c8 00 60 58 	ld  [ %g1 + 0x58 ], %g4
   19928:	80 a2 a0 00 	cmp  %o2, 0
   1992c:	02 80 00 07 	be  19948 <dladdr+0xc0>
   19930:	84 10 20 00 	clr  %g2
   19934:	c4 00 60 80 	ld  [ %g1 + 0x80 ], %g2
   19938:	b1 2e 20 04 	sll  %i0, 4, %i0
   1993c:	86 10 00 1a 	mov  %i2, %g3
   19940:	c2 02 c0 18 	ld  [ %o3 + %i0 ], %g1
   19944:	84 00 80 01 	add  %g2, %g1, %g2
   19948:	c4 26 60 08 	st  %g2, [ %i1 + 8 ]
   1994c:	c6 26 60 0c 	st  %g3, [ %i1 + 0xc ]
   19950:	b0 10 20 01 	mov  1, %i0
   19954:	92 10 20 01 	mov  1, %o1
   19958:	7f ff f0 97 	call  15bb4 <_pthread_cleanup_pop_restore>
   1995c:	90 10 00 10 	mov  %l0, %o0
   19960:	81 c7 e0 08 	ret 
   19964:	81 e8 00 00 	restore 
   19968:	80 a7 00 02 	cmp  %i4, %g2
   1996c:	28 bf ff dd 	bleu,a   198e0 <dladdr+0x58>
   19970:	c6 00 e0 0c 	ld  [ %g3 + 0xc ], %g3
   19974:	80 a0 60 00 	cmp  %g1, 0
   19978:	22 80 00 06 	be,a   19990 <dladdr+0x108>
   1997c:	82 10 00 03 	mov  %g3, %g1
   19980:	c8 00 60 38 	ld  [ %g1 + 0x38 ], %g4
   19984:	80 a0 80 04 	cmp  %g2, %g4
   19988:	38 80 00 02 	bgu,a   19990 <dladdr+0x108>
   1998c:	82 10 00 03 	mov  %g3, %g1
   19990:	10 bf ff d4 	b  198e0 <dladdr+0x58>
   19994:	c6 00 e0 0c 	ld  [ %g3 + 0xc ], %g3
   19998:	85 2e e0 02 	sll  %i3, 2, %g2
   1999c:	c8 00 80 04 	ld  [ %g2 + %g4 ], %g4
   199a0:	80 a1 20 00 	cmp  %g4, 0
   199a4:	32 80 00 04 	bne,a   199b4 <dladdr+0x12c>
   199a8:	bb 29 20 04 	sll  %g4, 4, %i5
   199ac:	10 bf ff dc 	b  1991c <dladdr+0x94>
   199b0:	b6 06 e0 01 	inc  %i3
   199b4:	ba 02 c0 1d 	add  %o3, %i5, %i5
   199b8:	c4 07 60 04 	ld  [ %i5 + 4 ], %g2
   199bc:	80 a0 a0 00 	cmp  %g2, 0
   199c0:	12 80 00 06 	bne  199d8 <dladdr+0x150>
   199c4:	de 17 60 0e 	lduh  [ %i5 + 0xe ], %o7
   199c8:	9b 2b e0 10 	sll  %o7, 0x10, %o5
   199cc:	80 a3 60 00 	cmp  %o5, 0
   199d0:	22 80 00 1a 	be,a   19a38 <dladdr+0x1b0>
   199d4:	89 29 20 02 	sll  %g4, 2, %g4
   199d8:	da 0f 60 0c 	ldub  [ %i5 + 0xc ], %o5
   199dc:	9a 0b 60 0f 	and  %o5, 0xf, %o5
   199e0:	80 a3 60 06 	cmp  %o5, 6
   199e4:	22 80 00 15 	be,a   19a38 <dladdr+0x1b0>
   199e8:	89 29 20 02 	sll  %g4, 2, %g4
   199ec:	da 00 40 00 	ld  [ %g1 ], %o5
   199f0:	84 00 80 0d 	add  %g2, %o5, %g2
   199f4:	80 a0 80 1c 	cmp  %g2, %i4
   199f8:	38 80 00 10 	bgu,a   19a38 <dladdr+0x1b0>
   199fc:	89 29 20 02 	sll  %g4, 2, %g4
   19a00:	9f 2b e0 10 	sll  %o7, 0x10, %o7
   19a04:	80 a3 e0 00 	cmp  %o7, 0
   19a08:	02 80 00 0e 	be  19a40 <dladdr+0x1b8>
   19a0c:	80 a0 80 1c 	cmp  %g2, %i4
   19a10:	de 07 60 08 	ld  [ %i5 + 8 ], %o7
   19a14:	80 a3 e0 00 	cmp  %o7, 0
   19a18:	02 80 00 15 	be  19a6c <dladdr+0x1e4>
   19a1c:	80 a0 80 1c 	cmp  %g2, %i4
   19a20:	fa 07 60 08 	ld  [ %i5 + 8 ], %i5
   19a24:	ba 00 80 1d 	add  %g2, %i5, %i5
   19a28:	80 a7 00 1d 	cmp  %i4, %i5
   19a2c:	0a 80 00 08 	bcs  19a4c <dladdr+0x1c4>
   19a30:	80 a6 a0 00 	cmp  %i2, 0
   19a34:	89 29 20 02 	sll  %g4, 2, %g4
   19a38:	10 bf ff d9 	b  1999c <dladdr+0x114>
   19a3c:	c4 00 60 68 	ld  [ %g1 + 0x68 ], %g2
   19a40:	32 bf ff f9 	bne,a   19a24 <dladdr+0x19c>
   19a44:	fa 07 60 08 	ld  [ %i5 + 8 ], %i5
   19a48:	80 a6 a0 00 	cmp  %i2, 0
   19a4c:	02 80 00 04 	be  19a5c <dladdr+0x1d4>
   19a50:	80 a6 80 02 	cmp  %i2, %g2
   19a54:	3a bf ff f9 	bcc,a   19a38 <dladdr+0x1b0>
   19a58:	89 29 20 02 	sll  %g4, 2, %g4
   19a5c:	b4 10 00 02 	mov  %g2, %i2
   19a60:	b0 10 00 04 	mov  %g4, %i0
   19a64:	10 bf ff f4 	b  19a34 <dladdr+0x1ac>
   19a68:	94 10 20 01 	mov  1, %o2
   19a6c:	32 bf ff f3 	bne,a   19a38 <dladdr+0x1b0>
   19a70:	89 29 20 02 	sll  %g4, 2, %g4
   19a74:	10 bf ff f6 	b  19a4c <dladdr+0x1c4>
   19a78:	80 a6 a0 00 	cmp  %i2, 0
   19a7c:	01 00 00 00 	nop 

00019a80 <_dl_linux_resolve>:
   19a80:	92 10 00 0f 	mov  %o7, %o1
   19a84:	7f ff f6 b1 	call  17548 <_dl_linux_resolver>
   19a88:	90 10 00 01 	mov  %g1, %o0
   19a8c:	9f c2 00 00 	call  %o0
   19a90:	81 e8 00 00 	restore 
   19a94:	01 00 00 00 	nop 
   19a98:	01 00 00 00 	nop 
   19a9c:	01 00 00 00 	nop 

00019aa0 <__h_errno_location>:
   19aa0:	9d e3 bf a0 	save  %sp, -96, %sp
   19aa4:	03 00 00 00 	sethi  %hi(0), %g1
   19aa8:	82 18 7f fc 	xor  %g1, -4, %g1
   19aac:	2f 00 00 99 	sethi  %hi(0x26400), %l7
   19ab0:	7f ff db 5d 	call  10824 <__sparc_get_pc_thunk.l7>
   19ab4:	ae 05 e0 1c 	add  %l7, 0x1c, %l7	! 2641c <locale_mmap+0x5cbc>
   19ab8:	01 00 00 00 	nop 
   19abc:	90 01 c0 01 	add  %g7, %g1, %o0
   19ac0:	81 c7 e0 08 	ret 
   19ac4:	91 e8 00 08 	restore  %g0, %o0, %o0

00019ac8 <get_shm_name>:
   19ac8:	9d e3 bf 98 	save  %sp, -104, %sp
   19acc:	2f 00 00 98 	sethi  %hi(0x26000), %l7
   19ad0:	7f ff db 55 	call  10824 <__sparc_get_pc_thunk.l7>
   19ad4:	ae 05 e3 fc 	add  %l7, 0x3fc, %l7	! 263fc <locale_mmap+0x5c9c>
   19ad8:	c2 0e 00 00 	ldub  [ %i0 ], %g1
   19adc:	80 a0 60 2f 	cmp  %g1, 0x2f
   19ae0:	22 bf ff fe 	be,a   19ad8 <get_shm_name+0x10>
   19ae4:	b0 06 20 01 	inc  %i0
   19ae8:	94 10 00 18 	mov  %i0, %o2
   19aec:	13 00 00 81 	sethi  %hi(0x20400), %o1
   19af0:	90 07 bf fc 	add  %fp, -4, %o0
   19af4:	92 1a 7e 94 	xor  %o1, -364, %o1
   19af8:	b0 10 20 00 	clr  %i0
   19afc:	40 00 02 8a 	call  1a524 <__GI_asprintf>
   19b00:	92 05 c0 09 	add  %l7, %o1, %o1
   19b04:	80 a2 20 00 	cmp  %o0, 0
   19b08:	36 80 00 02 	bge,a   19b10 <get_shm_name+0x48>
   19b0c:	f0 07 bf fc 	ld  [ %fp + -4 ], %i0
   19b10:	81 c7 e0 08 	ret 
   19b14:	81 e8 00 00 	restore 

00019b18 <shm_open>:
   19b18:	9d e3 bf a0 	save  %sp, -96, %sp
   19b1c:	90 10 00 18 	mov  %i0, %o0
   19b20:	7f ff ff ea 	call  19ac8 <get_shm_name>
   19b24:	b0 10 3f ff 	mov  -1, %i0
   19b28:	80 a2 20 00 	cmp  %o0, 0
   19b2c:	02 80 00 12 	be  19b74 <shm_open+0x5c>
   19b30:	ba 10 00 08 	mov  %o0, %i5
   19b34:	94 10 00 1a 	mov  %i2, %o2
   19b38:	13 00 10 00 	sethi  %hi(0x400000), %o1
   19b3c:	7f ff db aa 	call  109e4 <__GI_open>
   19b40:	92 16 40 09 	or  %i1, %o1, %o1
   19b44:	b0 92 20 00 	orcc  %o0, 0, %i0
   19b48:	16 80 00 09 	bge  19b6c <shm_open+0x54>
   19b4c:	01 00 00 00 	nop 
   19b50:	7f ff dc 0b 	call  10b7c <__errno_location>
   19b54:	01 00 00 00 	nop 
   19b58:	c2 02 00 00 	ld  [ %o0 ], %g1
   19b5c:	80 a0 60 15 	cmp  %g1, 0x15
   19b60:	12 80 00 03 	bne  19b6c <shm_open+0x54>
   19b64:	82 10 20 16 	mov  0x16, %g1
   19b68:	c2 22 00 00 	st  %g1, [ %o0 ]
   19b6c:	7f ff eb 0c 	call  1479c <free>
   19b70:	90 10 00 1d 	mov  %i5, %o0
   19b74:	81 c7 e0 08 	ret 
   19b78:	81 e8 00 00 	restore 

00019b7c <shm_unlink>:
   19b7c:	9d e3 bf a0 	save  %sp, -96, %sp
   19b80:	90 10 00 18 	mov  %i0, %o0
   19b84:	7f ff ff d1 	call  19ac8 <get_shm_name>
   19b88:	b0 10 3f ff 	mov  -1, %i0
   19b8c:	80 a2 20 00 	cmp  %o0, 0
   19b90:	02 80 00 07 	be  19bac <shm_unlink+0x30>
   19b94:	ba 10 00 08 	mov  %o0, %i5
   19b98:	40 00 01 32 	call  1a060 <__GI_unlink>
   19b9c:	01 00 00 00 	nop 
   19ba0:	b0 10 00 08 	mov  %o0, %i0
   19ba4:	7f ff ea fe 	call  1479c <free>
   19ba8:	90 10 00 1d 	mov  %i5, %o0
   19bac:	81 c7 e0 08 	ret 
   19bb0:	81 e8 00 00 	restore 

00019bb4 <rt_sigaction>:
   19bb4:	9d e3 bf a0 	save  %sp, -96, %sp
   19bb8:	2f 00 00 98 	sethi  %hi(0x26000), %l7
   19bbc:	7f ff db 1a 	call  10824 <__sparc_get_pc_thunk.l7>
   19bc0:	ae 05 e3 10 	add  %l7, 0x310, %l7	! 26310 <locale_mmap+0x5bb0>
   19bc4:	82 10 20 66 	mov  0x66, %g1
   19bc8:	98 10 00 1c 	mov  %i4, %o4
   19bcc:	96 10 00 1b 	mov  %i3, %o3
   19bd0:	94 10 00 1a 	mov  %i2, %o2
   19bd4:	92 10 00 19 	mov  %i1, %o1
   19bd8:	90 10 00 18 	mov  %i0, %o0
   19bdc:	91 d0 20 10 	ta  0x10
   19be0:	1a 80 00 03 	bcc  19bec <rt_sigaction+0x38>
   19be4:	b0 10 00 08 	mov  %o0, %i0
   19be8:	b0 20 00 08 	neg  %o0, %i0
   19bec:	80 a6 30 00 	cmp  %i0, -4096
   19bf0:	08 80 00 07 	bleu  19c0c <rt_sigaction+0x58>
   19bf4:	03 00 00 00 	sethi  %hi(0), %g1
   19bf8:	b0 20 00 18 	neg  %i0
   19bfc:	82 18 7f f8 	xor  %g1, -8, %g1
   19c00:	ae 10 00 01 	mov  %g1, %l7
   19c04:	f0 21 c0 17 	st  %i0, [ %g7 + %l7 ]
   19c08:	b0 10 3f ff 	mov  -1, %i0
   19c0c:	81 c7 e0 08 	ret 
   19c10:	81 e8 00 00 	restore 

00019c14 <__libc_sigaction>:
   19c14:	9d e3 bf 78 	save  %sp, -136, %sp
   19c18:	2f 00 00 98 	sethi  %hi(0x26000), %l7
   19c1c:	7f ff db 02 	call  10824 <__sparc_get_pc_thunk.l7>
   19c20:	ae 05 e2 b0 	add  %l7, 0x2b0, %l7	! 262b0 <locale_mmap+0x5b50>
   19c24:	80 a6 60 00 	cmp  %i1, 0
   19c28:	02 80 00 11 	be  19c6c <__libc_sigaction+0x58>
   19c2c:	96 10 20 00 	clr  %o3
   19c30:	c2 06 40 00 	ld  [ %i1 ], %g1
   19c34:	94 10 20 08 	mov  8, %o2
   19c38:	c2 27 bf d8 	st  %g1, [ %fp + -40 ]
   19c3c:	92 06 60 0c 	add  %i1, 0xc, %o1
   19c40:	7f ff e3 fd 	call  12c34 <__GI_memcpy>
   19c44:	90 07 bf e4 	add  %fp, -28, %o0
   19c48:	c2 06 60 04 	ld  [ %i1 + 4 ], %g1
   19c4c:	80 88 62 00 	btst  0x200, %g1
   19c50:	02 80 00 20 	be  19cd0 <__libc_sigaction+0xbc>
   19c54:	c2 27 bf dc 	st  %g1, [ %fp + -36 ]
   19c58:	17 00 00 98 	sethi  %hi(0x26000), %o3
   19c5c:	96 1a fe 80 	xor  %o3, -384, %o3
   19c60:	96 05 c0 0b 	add  %l7, %o3, %o3
   19c64:	96 02 ff f8 	add  %o3, -8, %o3
   19c68:	c0 27 bf e0 	clr  [ %fp + -32 ]
   19c6c:	82 10 20 66 	mov  0x66, %g1
   19c70:	98 10 20 08 	mov  8, %o4
   19c74:	80 a6 a0 00 	cmp  %i2, 0
   19c78:	02 80 00 03 	be  19c84 <__libc_sigaction+0x70>
   19c7c:	94 10 20 00 	clr  %o2
   19c80:	94 07 bf ec 	add  %fp, -20, %o2
   19c84:	80 a6 60 00 	cmp  %i1, 0
   19c88:	02 80 00 03 	be  19c94 <__libc_sigaction+0x80>
   19c8c:	92 10 20 00 	clr  %o1
   19c90:	92 07 bf d8 	add  %fp, -40, %o1
   19c94:	90 10 00 18 	mov  %i0, %o0
   19c98:	91 d0 20 10 	ta  0x10
   19c9c:	1a 80 00 03 	bcc  19ca8 <__libc_sigaction+0x94>
   19ca0:	b0 10 00 08 	mov  %o0, %i0
   19ca4:	b0 20 00 08 	neg  %o0, %i0
   19ca8:	80 a6 30 00 	cmp  %i0, -4096
   19cac:	28 80 00 0d 	bleu,a   19ce0 <__libc_sigaction+0xcc>
   19cb0:	80 a6 a0 00 	cmp  %i2, 0
   19cb4:	b0 20 00 18 	neg  %i0
   19cb8:	03 00 00 00 	sethi  %hi(0), %g1
   19cbc:	82 18 7f f8 	xor  %g1, -8, %g1
   19cc0:	ae 10 00 01 	mov  %g1, %l7
   19cc4:	f0 21 c0 17 	st  %i0, [ %g7 + %l7 ]
   19cc8:	81 c7 e0 08 	ret 
   19ccc:	91 e8 3f ff 	restore  %g0, -1, %o0
   19cd0:	17 00 00 98 	sethi  %hi(0x26000), %o3
   19cd4:	96 1a fe 88 	xor  %o3, -376, %o3
   19cd8:	10 bf ff e3 	b  19c64 <__libc_sigaction+0x50>
   19cdc:	96 05 c0 0b 	add  %l7, %o3, %o3
   19ce0:	02 80 00 0d 	be  19d14 <__libc_sigaction+0x100>
   19ce4:	80 a6 20 00 	cmp  %i0, 0
   19ce8:	06 80 00 0b 	bl  19d14 <__libc_sigaction+0x100>
   19cec:	c2 07 bf ec 	ld  [ %fp + -20 ], %g1
   19cf0:	94 10 20 08 	mov  8, %o2
   19cf4:	c2 26 80 00 	st  %g1, [ %i2 ]
   19cf8:	92 07 bf f8 	add  %fp, -8, %o1
   19cfc:	7f ff e3 ce 	call  12c34 <__GI_memcpy>
   19d00:	90 06 a0 0c 	add  %i2, 0xc, %o0
   19d04:	c2 07 bf f0 	ld  [ %fp + -16 ], %g1
   19d08:	c2 26 a0 04 	st  %g1, [ %i2 + 4 ]
   19d0c:	c2 07 bf f4 	ld  [ %fp + -12 ], %g1
   19d10:	c2 26 a0 08 	st  %g1, [ %i2 + 8 ]
   19d14:	81 c7 e0 08 	ret 
   19d18:	81 e8 00 00 	restore 

00019d1c <_setjmp>:
   19d1c:	10 80 00 03 	b  19d28 <__sigsetjmp>
   19d20:	92 10 20 00 	clr  %o1

00019d24 <setjmp>:
   19d24:	92 10 20 01 	mov  1, %o1

00019d28 <__sigsetjmp>:
   19d28:	91 d0 20 03 	ta  3
   19d2c:	de 22 20 08 	st  %o7, [ %o0 + 8 ]
   19d30:	dc 22 20 00 	st  %sp, [ %o0 ]
   19d34:	fc 22 20 04 	st  %fp, [ %o0 + 4 ]
   19d38:	82 10 00 0f 	mov  %o7, %g1
   19d3c:	10 80 0b 7b 	b  1cb28 <__sigjmp_save>
   19d40:	9e 10 00 01 	mov  %g1, %o7
   19d44:	01 00 00 00 	nop 
   19d48:	01 00 00 00 	nop 

00019d4c <__rt_sigreturn_stub>:
   19d4c:	82 10 20 65 	mov  0x65, %g1	! 65 <__libc_h_errno+0x61>
   19d50:	91 d0 20 10 	ta  0x10

00019d54 <__sigreturn_stub>:
   19d54:	82 10 20 d8 	mov  0xd8, %g1
   19d58:	91 d0 20 10 	ta  0x10

00019d5c <__GI__exit>:
   19d5c:	9d e3 bf a0 	save  %sp, -96, %sp
   19d60:	2f 00 00 98 	sethi  %hi(0x26000), %l7
   19d64:	7f ff da b0 	call  10824 <__sparc_get_pc_thunk.l7>
   19d68:	ae 05 e1 68 	add  %l7, 0x168, %l7	! 26168 <locale_mmap+0x5a08>
   19d6c:	03 00 00 00 	sethi  %hi(0), %g1
   19d70:	82 18 7f f8 	xor  %g1, -8, %g1
   19d74:	ae 10 00 01 	mov  %g1, %l7
   19d78:	82 10 20 bc 	mov  0xbc, %g1
   19d7c:	90 10 00 18 	mov  %i0, %o0
   19d80:	91 d0 20 10 	ta  0x10
   19d84:	1a 80 00 03 	bcc  19d90 <__GI__exit+0x34>
   19d88:	82 10 00 08 	mov  %o0, %g1
   19d8c:	82 20 00 08 	neg  %o0, %g1
   19d90:	80 a0 70 00 	cmp  %g1, -4096
   19d94:	08 80 00 04 	bleu  19da4 <__GI__exit+0x48>
   19d98:	01 00 00 00 	nop 
   19d9c:	82 20 00 01 	neg  %g1
   19da0:	c2 21 c0 17 	st  %g1, [ %g7 + %l7 ]
   19da4:	00 00 0f 00 	unimp  0xf00
   19da8:	10 bf ff f5 	b  19d7c <__GI__exit+0x20>
   19dac:	82 10 20 bc 	mov  0xbc, %g1

00019db0 <__GI_getegid>:
   19db0:	9d e3 bf a0 	save  %sp, -96, %sp
   19db4:	82 10 20 46 	mov  0x46, %g1
   19db8:	91 d0 20 10 	ta  0x10
   19dbc:	1a 80 00 03 	bcc  19dc8 <__GI_getegid+0x18>
   19dc0:	b0 10 00 08 	mov  %o0, %i0
   19dc4:	b0 20 00 08 	neg  %o0, %i0
   19dc8:	81 c7 e0 08 	ret 
   19dcc:	81 e8 00 00 	restore 

00019dd0 <__GI_geteuid>:
   19dd0:	9d e3 bf a0 	save  %sp, -96, %sp
   19dd4:	82 10 20 45 	mov  0x45, %g1
   19dd8:	91 d0 20 10 	ta  0x10
   19ddc:	1a 80 00 03 	bcc  19de8 <__GI_geteuid+0x18>
   19de0:	b0 10 00 08 	mov  %o0, %i0
   19de4:	b0 20 00 08 	neg  %o0, %i0
   19de8:	81 c7 e0 08 	ret 
   19dec:	81 e8 00 00 	restore 

00019df0 <__GI_getgid>:
   19df0:	9d e3 bf a0 	save  %sp, -96, %sp
   19df4:	82 10 20 35 	mov  0x35, %g1
   19df8:	91 d0 20 10 	ta  0x10
   19dfc:	1a 80 00 03 	bcc  19e08 <__GI_getgid+0x18>
   19e00:	b0 10 00 08 	mov  %o0, %i0
   19e04:	b0 20 00 08 	neg  %o0, %i0
   19e08:	81 c7 e0 08 	ret 
   19e0c:	81 e8 00 00 	restore 

00019e10 <__GI_getpagesize>:
   19e10:	9d e3 bf a0 	save  %sp, -96, %sp
   19e14:	2f 00 00 98 	sethi  %hi(0x26000), %l7
   19e18:	7f ff da 83 	call  10824 <__sparc_get_pc_thunk.l7>
   19e1c:	ae 05 e0 b4 	add  %l7, 0xb4, %l7	! 260b4 <locale_mmap+0x5954>
   19e20:	03 00 00 01 	sethi  %hi(0x400), %g1
   19e24:	82 18 60 04 	xor  %g1, 4, %g1
   19e28:	ae 05 c0 01 	add  %l7, %g1, %l7
   19e2c:	f0 05 c0 00 	ld  [ %l7 ], %i0
   19e30:	81 c7 e0 08 	ret 
   19e34:	81 e8 00 00 	restore 

00019e38 <__GI_getuid>:
   19e38:	9d e3 bf a0 	save  %sp, -96, %sp
   19e3c:	82 10 20 2c 	mov  0x2c, %g1
   19e40:	91 d0 20 10 	ta  0x10
   19e44:	1a 80 00 03 	bcc  19e50 <__GI_getuid+0x18>
   19e48:	b0 10 00 08 	mov  %o0, %i0
   19e4c:	b0 20 00 08 	neg  %o0, %i0
   19e50:	81 c7 e0 08 	ret 
   19e54:	81 e8 00 00 	restore 

00019e58 <__GI_sbrk>:
   19e58:	9d e3 bf a0 	save  %sp, -96, %sp
   19e5c:	03 00 00 09 	sethi  %hi(0x2400), %g1
   19e60:	82 18 63 ac 	xor  %g1, 0x3ac, %g1
   19e64:	2f 00 00 98 	sethi  %hi(0x26000), %l7
   19e68:	7f ff da 6f 	call  10824 <__sparc_get_pc_thunk.l7>
   19e6c:	ae 05 e0 64 	add  %l7, 0x64, %l7	! 26064 <locale_mmap+0x5904>
   19e70:	ae 05 c0 01 	add  %l7, %g1, %l7
   19e74:	c2 05 c0 00 	ld  [ %l7 ], %g1
   19e78:	80 a0 60 00 	cmp  %g1, 0
   19e7c:	02 80 00 0b 	be  19ea8 <__GI_sbrk+0x50>
   19e80:	80 a6 20 00 	cmp  %i0, 0
   19e84:	02 80 00 0f 	be  19ec0 <__GI_sbrk+0x68>
   19e88:	fa 05 c0 00 	ld  [ %l7 ], %i5
   19e8c:	40 00 0d cb 	call  1d5b8 <__GI_brk>
   19e90:	90 07 40 18 	add  %i5, %i0, %o0
   19e94:	80 a2 20 00 	cmp  %o0, 0
   19e98:	16 80 00 0a 	bge  19ec0 <__GI_sbrk+0x68>
   19e9c:	01 00 00 00 	nop 
   19ea0:	10 80 00 08 	b  19ec0 <__GI_sbrk+0x68>
   19ea4:	ba 10 3f ff 	mov  -1, %i5	! ffffffff <_end+0xfffbc85f>
   19ea8:	40 00 0d c4 	call  1d5b8 <__GI_brk>
   19eac:	90 10 20 00 	clr  %o0
   19eb0:	80 a2 20 00 	cmp  %o0, 0
   19eb4:	16 bf ff f4 	bge  19e84 <__GI_sbrk+0x2c>
   19eb8:	80 a6 20 00 	cmp  %i0, 0
   19ebc:	ba 10 3f ff 	mov  -1, %i5
   19ec0:	81 c7 e0 08 	ret 
   19ec4:	91 e8 00 1d 	restore  %g0, %i5, %o0

00019ec8 <__GI_sigprocmask>:
   19ec8:	9d e3 bf 98 	save  %sp, -104, %sp
   19ecc:	2f 00 00 97 	sethi  %hi(0x25c00), %l7
   19ed0:	7f ff da 55 	call  10824 <__sparc_get_pc_thunk.l7>
   19ed4:	ae 05 e3 fc 	add  %l7, 0x3fc, %l7	! 25ffc <locale_mmap+0x589c>
   19ed8:	80 a6 60 00 	cmp  %i1, 0
   19edc:	02 80 00 11 	be  19f20 <__GI_sigprocmask+0x58>
   19ee0:	82 10 20 67 	mov  0x67, %g1
   19ee4:	c6 06 40 00 	ld  [ %i1 ], %g3
   19ee8:	80 a0 e0 00 	cmp  %g3, 0
   19eec:	06 80 00 06 	bl  19f04 <__GI_sigprocmask+0x3c>
   19ef0:	c2 06 60 04 	ld  [ %i1 + 4 ], %g1
   19ef4:	80 88 60 01 	btst  1, %g1
   19ef8:	02 80 00 0a 	be  19f20 <__GI_sigprocmask+0x58>
   19efc:	82 10 20 67 	mov  0x67, %g1
   19f00:	c2 06 60 04 	ld  [ %i1 + 4 ], %g1
   19f04:	05 20 00 00 	sethi  %hi(0x80000000), %g2
   19f08:	82 08 7f fe 	and  %g1, -2, %g1
   19f0c:	84 28 c0 02 	andn  %g3, %g2, %g2
   19f10:	c2 27 bf fc 	st  %g1, [ %fp + -4 ]
   19f14:	c4 27 bf f8 	st  %g2, [ %fp + -8 ]
   19f18:	b2 07 bf f8 	add  %fp, -8, %i1
   19f1c:	82 10 20 67 	mov  0x67, %g1
   19f20:	96 10 20 08 	mov  8, %o3
   19f24:	94 10 00 1a 	mov  %i2, %o2
   19f28:	92 10 00 19 	mov  %i1, %o1
   19f2c:	90 10 00 18 	mov  %i0, %o0
   19f30:	91 d0 20 10 	ta  0x10
   19f34:	1a 80 00 03 	bcc  19f40 <__GI_sigprocmask+0x78>
   19f38:	b0 10 00 08 	mov  %o0, %i0
   19f3c:	b0 20 00 08 	neg  %o0, %i0
   19f40:	80 a6 30 00 	cmp  %i0, -4096
   19f44:	08 80 00 07 	bleu  19f60 <__GI_sigprocmask+0x98>
   19f48:	03 00 00 00 	sethi  %hi(0), %g1
   19f4c:	b0 20 00 18 	neg  %i0
   19f50:	82 18 7f f8 	xor  %g1, -8, %g1
   19f54:	ae 10 00 01 	mov  %g1, %l7
   19f58:	f0 21 c0 17 	st  %i0, [ %g7 + %l7 ]
   19f5c:	b0 10 3f ff 	mov  -1, %i0
   19f60:	81 c7 e0 08 	ret 
   19f64:	81 e8 00 00 	restore 

00019f68 <__fcntl_nocancel>:
   19f68:	9d e3 bf a0 	save  %sp, -96, %sp
   19f6c:	2f 00 00 97 	sethi  %hi(0x25c00), %l7
   19f70:	7f ff da 2d 	call  10824 <__sparc_get_pc_thunk.l7>
   19f74:	ae 05 e3 5c 	add  %l7, 0x35c, %l7	! 25f5c <locale_mmap+0x57fc>
   19f78:	82 06 7f f4 	add  %i1, -12, %g1
   19f7c:	90 10 00 18 	mov  %i0, %o0
   19f80:	92 10 00 19 	mov  %i1, %o1
   19f84:	80 a0 60 02 	cmp  %g1, 2
   19f88:	18 80 00 11 	bgu  19fcc <__fcntl_nocancel+0x64>
   19f8c:	94 10 00 1a 	mov  %i2, %o2
   19f90:	82 10 20 9b 	mov  0x9b, %g1
   19f94:	91 d0 20 10 	ta  0x10
   19f98:	1a 80 00 03 	bcc  19fa4 <__fcntl_nocancel+0x3c>
   19f9c:	82 10 00 08 	mov  %o0, %g1
   19fa0:	82 20 00 08 	neg  %o0, %g1
   19fa4:	80 a0 70 00 	cmp  %g1, -4096
   19fa8:	08 80 00 0b 	bleu  19fd4 <__fcntl_nocancel+0x6c>
   19fac:	b0 10 00 01 	mov  %g1, %i0
   19fb0:	82 20 00 01 	neg  %g1
   19fb4:	05 00 00 00 	sethi  %hi(0), %g2
   19fb8:	84 18 bf f8 	xor  %g2, -8, %g2
   19fbc:	ae 10 00 02 	mov  %g2, %l7
   19fc0:	c2 21 c0 17 	st  %g1, [ %g7 + %l7 ]
   19fc4:	81 c7 e0 08 	ret 
   19fc8:	91 e8 3f ff 	restore  %g0, -1, %o0
   19fcc:	10 bf ff f2 	b  19f94 <__fcntl_nocancel+0x2c>
   19fd0:	82 10 20 5c 	mov  0x5c, %g1
   19fd4:	81 c7 e0 08 	ret 
   19fd8:	81 e8 00 00 	restore 

00019fdc <__GI_fcntl>:
   19fdc:	9d e3 bf 98 	save  %sp, -104, %sp
   19fe0:	82 07 a0 4c 	add  %fp, 0x4c, %g1
   19fe4:	f4 27 a0 4c 	st  %i2, [ %fp + 0x4c ]
   19fe8:	f6 27 a0 50 	st  %i3, [ %fp + 0x50 ]
   19fec:	f8 27 a0 54 	st  %i4, [ %fp + 0x54 ]
   19ff0:	fa 27 a0 58 	st  %i5, [ %fp + 0x58 ]
   19ff4:	c2 27 bf fc 	st  %g1, [ %fp + -4 ]
   19ff8:	c2 01 e0 0c 	ld  [ %g7 + 0xc ], %g1
   19ffc:	80 a0 60 00 	cmp  %g1, 0
   1a000:	02 80 00 07 	be  1a01c <__GI_fcntl+0x40>
   1a004:	94 10 00 1a 	mov  %i2, %o2
   1a008:	80 a6 60 09 	cmp  %i1, 9
   1a00c:	02 80 00 09 	be  1a030 <__GI_fcntl+0x54>
   1a010:	80 a6 60 0e 	cmp  %i1, 0xe
   1a014:	02 80 00 07 	be  1a030 <__GI_fcntl+0x54>
   1a018:	01 00 00 00 	nop 
   1a01c:	92 10 00 19 	mov  %i1, %o1
   1a020:	7f ff ff d2 	call  19f68 <__fcntl_nocancel>
   1a024:	90 10 00 18 	mov  %i0, %o0
   1a028:	81 c7 e0 08 	ret 
   1a02c:	91 e8 00 08 	restore  %g0, %o0, %o0
   1a030:	7f ff f0 d2 	call  16378 <__libc_enable_asynccancel>
   1a034:	01 00 00 00 	nop 
   1a038:	94 10 00 1a 	mov  %i2, %o2
   1a03c:	ba 10 00 08 	mov  %o0, %i5
   1a040:	92 10 00 19 	mov  %i1, %o1
   1a044:	7f ff ff c9 	call  19f68 <__fcntl_nocancel>
   1a048:	90 10 00 18 	mov  %i0, %o0
   1a04c:	b0 10 00 08 	mov  %o0, %i0
   1a050:	7f ff f1 07 	call  1646c <__libc_disable_asynccancel>
   1a054:	90 10 00 1d 	mov  %i5, %o0
   1a058:	81 c7 e0 08 	ret 
   1a05c:	81 e8 00 00 	restore 

0001a060 <__GI_unlink>:
   1a060:	9d e3 bf a0 	save  %sp, -96, %sp
   1a064:	2f 00 00 97 	sethi  %hi(0x25c00), %l7
   1a068:	7f ff d9 ef 	call  10824 <__sparc_get_pc_thunk.l7>
   1a06c:	ae 05 e2 64 	add  %l7, 0x264, %l7	! 25e64 <locale_mmap+0x5704>
   1a070:	82 10 20 0a 	mov  0xa, %g1
   1a074:	90 10 00 18 	mov  %i0, %o0
   1a078:	91 d0 20 10 	ta  0x10
   1a07c:	1a 80 00 03 	bcc  1a088 <__GI_unlink+0x28>
   1a080:	b0 10 00 08 	mov  %o0, %i0
   1a084:	b0 20 00 08 	neg  %o0, %i0
   1a088:	80 a6 30 00 	cmp  %i0, -4096
   1a08c:	08 80 00 07 	bleu  1a0a8 <__GI_unlink+0x48>
   1a090:	03 00 00 00 	sethi  %hi(0), %g1
   1a094:	b0 20 00 18 	neg  %i0
   1a098:	82 18 7f f8 	xor  %g1, -8, %g1
   1a09c:	ae 10 00 01 	mov  %g1, %l7
   1a0a0:	f0 21 c0 17 	st  %i0, [ %g7 + %l7 ]
   1a0a4:	b0 10 3f ff 	mov  -1, %i0
   1a0a8:	81 c7 e0 08 	ret 
   1a0ac:	81 e8 00 00 	restore 

0001a0b0 <__GI___ctype_b_loc>:
   1a0b0:	9d e3 bf a0 	save  %sp, -96, %sp
   1a0b4:	40 00 00 0f 	call  1a0f0 <__GI___curlocale>
   1a0b8:	01 00 00 00 	nop 
   1a0bc:	81 c7 e0 08 	ret 
   1a0c0:	91 e8 00 08 	restore  %g0, %o0, %o0

0001a0c4 <__GI_isspace_l>:
   1a0c4:	9d e3 bf a0 	save  %sp, -96, %sp
   1a0c8:	84 06 20 01 	add  %i0, 1, %g2
   1a0cc:	80 a0 a1 00 	cmp  %g2, 0x100
   1a0d0:	18 80 00 06 	bgu  1a0e8 <__GI_isspace_l+0x24>
   1a0d4:	82 10 20 00 	clr  %g1
   1a0d8:	c2 06 40 00 	ld  [ %i1 ], %g1
   1a0dc:	b0 06 00 18 	add  %i0, %i0, %i0
   1a0e0:	c2 10 40 18 	lduh  [ %g1 + %i0 ], %g1
   1a0e4:	82 08 60 20 	and  %g1, 0x20, %g1
   1a0e8:	81 c7 e0 08 	ret 
   1a0ec:	91 e8 00 01 	restore  %g0, %g1, %o0

0001a0f0 <__GI___curlocale>:
   1a0f0:	9d e3 bf a0 	save  %sp, -96, %sp
   1a0f4:	2f 00 00 97 	sethi  %hi(0x25c00), %l7
   1a0f8:	7f ff d9 cb 	call  10824 <__sparc_get_pc_thunk.l7>
   1a0fc:	ae 05 e1 d4 	add  %l7, 0x1d4, %l7	! 25dd4 <locale_mmap+0x5674>
   1a100:	03 00 00 00 	sethi  %hi(0), %g1
   1a104:	82 18 63 74 	xor  %g1, 0x374, %g1
   1a108:	ae 05 c0 01 	add  %l7, %g1, %l7
   1a10c:	f0 05 c0 00 	ld  [ %l7 ], %i0
   1a110:	81 c7 e0 08 	ret 
   1a114:	81 e8 00 00 	restore 

0001a118 <__GI___curlocale_set>:
   1a118:	9d e3 bf a0 	save  %sp, -96, %sp
   1a11c:	03 00 00 00 	sethi  %hi(0), %g1
   1a120:	82 18 63 74 	xor  %g1, 0x374, %g1
   1a124:	2f 00 00 97 	sethi  %hi(0x25c00), %l7
   1a128:	7f ff d9 bf 	call  10824 <__sparc_get_pc_thunk.l7>
   1a12c:	ae 05 e1 a4 	add  %l7, 0x1a4, %l7	! 25da4 <locale_mmap+0x5644>
   1a130:	ae 05 c0 01 	add  %l7, %g1, %l7
   1a134:	c2 05 c0 00 	ld  [ %l7 ], %g1
   1a138:	f0 25 c0 00 	st  %i0, [ %l7 ]
   1a13c:	81 c7 e0 08 	ret 
   1a140:	91 e8 00 01 	restore  %g0, %g1, %o0

0001a144 <__GI_wcrtomb>:
   1a144:	9d e3 bf 88 	save  %sp, -120, %sp
   1a148:	80 a6 20 00 	cmp  %i0, 0
   1a14c:	12 80 00 04 	bne  1a15c <__GI_wcrtomb+0x18>
   1a150:	82 07 bf e8 	add  %fp, -24, %g1
   1a154:	b2 10 20 00 	clr  %i1
   1a158:	b0 07 bf f0 	add  %fp, -16, %i0
   1a15c:	90 10 00 18 	mov  %i0, %o0
   1a160:	c2 27 bf ec 	st  %g1, [ %fp + -20 ]
   1a164:	f2 27 bf e8 	st  %i1, [ %fp + -24 ]
   1a168:	98 10 00 1a 	mov  %i2, %o4
   1a16c:	96 10 20 10 	mov  0x10, %o3
   1a170:	94 10 20 01 	mov  1, %o2
   1a174:	40 00 00 84 	call  1a384 <__GI_wcsnrtombs>
   1a178:	92 07 bf ec 	add  %fp, -20, %o1
   1a17c:	b0 92 20 00 	orcc  %o0, 0, %i0
   1a180:	22 80 00 02 	be,a   1a188 <__GI_wcrtomb+0x44>
   1a184:	b0 10 20 01 	mov  1, %i0
   1a188:	81 c7 e0 08 	ret 
   1a18c:	81 e8 00 00 	restore 

0001a190 <__GI_mbsrtowcs>:
   1a190:	9d e3 bf a0 	save  %sp, -96, %sp
   1a194:	2f 00 00 97 	sethi  %hi(0x25c00), %l7
   1a198:	7f ff d9 a3 	call  10824 <__sparc_get_pc_thunk.l7>
   1a19c:	ae 05 e1 34 	add  %l7, 0x134, %l7	! 25d34 <locale_mmap+0x55d4>
   1a1a0:	b8 96 e0 00 	orcc  %i3, 0, %i4
   1a1a4:	12 80 00 05 	bne  1a1b8 <__GI_mbsrtowcs+0x28>
   1a1a8:	b6 10 00 1a 	mov  %i2, %i3
   1a1ac:	39 00 00 01 	sethi  %hi(0x400), %i4
   1a1b0:	b8 1f 23 70 	xor  %i4, 0x370, %i4
   1a1b4:	b8 05 c0 1c 	add  %l7, %i4, %i4
   1a1b8:	10 80 00 07 	b  1a1d4 <__GI_mbsnrtowcs>
   1a1bc:	95 e8 3f ff 	restore  %g0, -1, %o2

0001a1c0 <__GI_wcsrtombs>:
   1a1c0:	9d e3 bf a0 	save  %sp, -96, %sp
   1a1c4:	b8 10 00 1b 	mov  %i3, %i4
   1a1c8:	b6 10 00 1a 	mov  %i2, %i3
   1a1cc:	10 80 00 6e 	b  1a384 <__GI_wcsnrtombs>
   1a1d0:	95 e8 3f ff 	restore  %g0, -1, %o2

0001a1d4 <__GI_mbsnrtowcs>:
   1a1d4:	9d e3 bf 98 	save  %sp, -104, %sp
   1a1d8:	2f 00 00 97 	sethi  %hi(0x25c00), %l7
   1a1dc:	7f ff d9 92 	call  10824 <__sparc_get_pc_thunk.l7>
   1a1e0:	ae 05 e0 f0 	add  %l7, 0xf0, %l7	! 25cf0 <locale_mmap+0x5590>
   1a1e4:	80 a7 20 00 	cmp  %i4, 0
   1a1e8:	12 80 00 05 	bne  1a1fc <__GI_mbsnrtowcs+0x28>
   1a1ec:	01 00 00 00 	nop 
   1a1f0:	39 00 00 01 	sethi  %hi(0x400), %i4
   1a1f4:	b8 1f 23 78 	xor  %i4, 0x378, %i4
   1a1f8:	b8 05 c0 1c 	add  %l7, %i4, %i4
   1a1fc:	7f ff ff bd 	call  1a0f0 <__GI___curlocale>
   1a200:	01 00 00 00 	nop 
   1a204:	c6 0a 29 2c 	ldub  [ %o0 + 0x92c ], %g3
   1a208:	80 a0 e0 01 	cmp  %g3, 1
   1a20c:	12 80 00 0e 	bne  1a244 <__GI_mbsnrtowcs+0x70>
   1a210:	80 a6 20 00 	cmp  %i0, 0
   1a214:	90 10 00 18 	mov  %i0, %o0
   1a218:	9a 10 20 01 	mov  1, %o5
   1a21c:	98 10 00 1c 	mov  %i4, %o4
   1a220:	96 10 00 1a 	mov  %i2, %o3
   1a224:	94 10 00 19 	mov  %i1, %o2
   1a228:	40 00 0f 95 	call  1e07c <_wchar_utf8sntowcs>
   1a22c:	92 10 00 1b 	mov  %i3, %o1
   1a230:	80 a2 3f fe 	cmp  %o0, -2
   1a234:	12 80 00 3a 	bne  1a31c <__GI_mbsnrtowcs+0x148>
   1a238:	b0 10 00 08 	mov  %o0, %i0
   1a23c:	81 c7 e0 08 	ret 
   1a240:	91 e8 20 00 	restore  %g0, 0, %o0
   1a244:	02 80 00 04 	be  1a254 <__GI_mbsnrtowcs+0x80>
   1a248:	80 a7 00 18 	cmp  %i4, %i0
   1a24c:	12 80 00 06 	bne  1a264 <__GI_mbsnrtowcs+0x90>
   1a250:	84 10 20 01 	mov  1, %g2
   1a254:	80 a6 20 00 	cmp  %i0, 0
   1a258:	84 10 20 00 	clr  %g2
   1a25c:	02 80 00 0c 	be  1a28c <__GI_mbsnrtowcs+0xb8>
   1a260:	b0 07 bf fc 	add  %fp, -4, %i0
   1a264:	80 a6 c0 1a 	cmp  %i3, %i2
   1a268:	38 80 00 02 	bgu,a   1a270 <__GI_mbsnrtowcs+0x9c>
   1a26c:	b6 10 00 1a 	mov  %i2, %i3
   1a270:	89 28 a0 02 	sll  %g2, 2, %g4
   1a274:	c2 06 40 00 	ld  [ %i1 ], %g1
   1a278:	80 a0 e0 02 	cmp  %g3, 2
   1a27c:	12 80 00 36 	bne  1a354 <__GI_mbsnrtowcs+0x180>
   1a280:	84 10 00 1b 	mov  %i3, %g2
   1a284:	10 80 00 1e 	b  1a2fc <__GI_mbsnrtowcs+0x128>
   1a288:	ba 10 00 1b 	mov  %i3, %i5
   1a28c:	10 bf ff f6 	b  1a264 <__GI_mbsnrtowcs+0x90>
   1a290:	b6 10 3f ff 	mov  -1, %i3
   1a294:	80 a0 a0 7f 	cmp  %g2, 0x7f
   1a298:	04 80 00 23 	ble  1a324 <__GI_mbsnrtowcs+0x150>
   1a29c:	80 a0 a0 00 	cmp  %g2, 0
   1a2a0:	84 00 bf 80 	add  %g2, -128, %g2
   1a2a4:	f8 02 29 48 	ld  [ %o0 + 0x948 ], %i4
   1a2a8:	87 38 a0 03 	sra  %g2, 3, %g3
   1a2ac:	c6 0f 00 03 	ldub  [ %i4 + %g3 ], %g3
   1a2b0:	87 28 e0 03 	sll  %g3, 3, %g3
   1a2b4:	84 08 a0 07 	and  %g2, 7, %g2
   1a2b8:	84 00 c0 02 	add  %g3, %g2, %g2
   1a2bc:	c6 02 29 4c 	ld  [ %o0 + 0x94c ], %g3
   1a2c0:	84 00 80 02 	add  %g2, %g2, %g2
   1a2c4:	c4 10 c0 02 	lduh  [ %g3 + %g2 ], %g2
   1a2c8:	80 a0 a0 00 	cmp  %g2, 0
   1a2cc:	32 80 00 09 	bne,a   1a2f0 <__GI_mbsnrtowcs+0x11c>
   1a2d0:	c4 26 00 00 	st  %g2, [ %i0 ]
   1a2d4:	84 10 20 7a 	mov  0x7a, %g2
   1a2d8:	03 00 00 00 	sethi  %hi(0), %g1
   1a2dc:	82 18 7f f8 	xor  %g1, -8, %g1
   1a2e0:	01 00 00 00 	nop 
   1a2e4:	c4 21 c0 01 	st  %g2, [ %g7 + %g1 ]
   1a2e8:	81 c7 e0 08 	ret 
   1a2ec:	91 e8 3f ff 	restore  %g0, -1, %o0
   1a2f0:	b0 06 00 04 	add  %i0, %g4, %i0
   1a2f4:	82 00 60 01 	inc  %g1
   1a2f8:	ba 07 7f ff 	add  %i5, -1, %i5
   1a2fc:	80 a7 60 00 	cmp  %i5, 0
   1a300:	32 bf ff e5 	bne,a   1a294 <__GI_mbsnrtowcs+0xc0>
   1a304:	c4 08 40 00 	ldub  [ %g1 ], %g2
   1a308:	84 07 bf fc 	add  %fp, -4, %g2
   1a30c:	80 a6 00 02 	cmp  %i0, %g2
   1a310:	32 80 00 02 	bne,a   1a318 <__GI_mbsnrtowcs+0x144>
   1a314:	c2 26 40 00 	st  %g1, [ %i1 ]
   1a318:	b0 26 c0 1d 	sub  %i3, %i5, %i0
   1a31c:	81 c7 e0 08 	ret 
   1a320:	81 e8 00 00 	restore 
   1a324:	12 bf ff f3 	bne  1a2f0 <__GI_mbsnrtowcs+0x11c>
   1a328:	c4 26 00 00 	st  %g2, [ %i0 ]
   1a32c:	10 bf ff f7 	b  1a308 <__GI_mbsnrtowcs+0x134>
   1a330:	82 10 20 00 	clr  %g1
   1a334:	80 a0 e0 00 	cmp  %g3, 0
   1a338:	02 80 00 11 	be  1a37c <__GI_mbsnrtowcs+0x1a8>
   1a33c:	c6 26 00 00 	st  %g3, [ %i0 ]
   1a340:	80 a0 e0 7f 	cmp  %g3, 0x7f
   1a344:	14 bf ff e4 	bg  1a2d4 <__GI_mbsnrtowcs+0x100>
   1a348:	82 00 60 01 	inc  %g1
   1a34c:	b0 06 00 04 	add  %i0, %g4, %i0
   1a350:	84 00 bf ff 	add  %g2, -1, %g2
   1a354:	80 a0 a0 00 	cmp  %g2, 0
   1a358:	32 bf ff f7 	bne,a   1a334 <__GI_mbsnrtowcs+0x160>
   1a35c:	c6 08 40 00 	ldub  [ %g1 ], %g3
   1a360:	86 07 bf fc 	add  %fp, -4, %g3
   1a364:	80 a6 00 03 	cmp  %i0, %g3
   1a368:	32 80 00 02 	bne,a   1a370 <__GI_mbsnrtowcs+0x19c>
   1a36c:	c2 26 40 00 	st  %g1, [ %i1 ]
   1a370:	b0 26 c0 02 	sub  %i3, %g2, %i0
   1a374:	81 c7 e0 08 	ret 
   1a378:	81 e8 00 00 	restore 
   1a37c:	10 bf ff f9 	b  1a360 <__GI_mbsnrtowcs+0x18c>
   1a380:	82 10 20 00 	clr  %g1

0001a384 <__GI_wcsnrtombs>:
   1a384:	9d e3 bf 90 	save  %sp, -112, %sp
   1a388:	7f ff ff 5a 	call  1a0f0 <__GI___curlocale>
   1a38c:	ba 10 00 19 	mov  %i1, %i5
   1a390:	c4 0a 29 2c 	ldub  [ %o0 + 0x92c ], %g2
   1a394:	2f 00 00 96 	sethi  %hi(0x25800), %l7
   1a398:	7f ff d9 23 	call  10824 <__sparc_get_pc_thunk.l7>
   1a39c:	ae 05 e3 34 	add  %l7, 0x334, %l7	! 25b34 <locale_mmap+0x53d4>
   1a3a0:	80 a0 a0 01 	cmp  %g2, 1
   1a3a4:	12 80 00 05 	bne  1a3b8 <__GI_wcsnrtombs+0x34>
   1a3a8:	b2 10 00 1b 	mov  %i3, %i1
   1a3ac:	b6 10 00 1a 	mov  %i2, %i3
   1a3b0:	10 80 0f b2 	b  1e278 <_wchar_wcsntoutf8s>
   1a3b4:	95 e8 00 1d 	restore  %g0, %i5, %o2
   1a3b8:	80 a6 20 00 	cmp  %i0, 0
   1a3bc:	02 80 00 04 	be  1a3cc <__GI_wcsnrtombs+0x48>
   1a3c0:	80 a6 00 1d 	cmp  %i0, %i5
   1a3c4:	12 80 00 06 	bne  1a3dc <__GI_wcsnrtombs+0x58>
   1a3c8:	9e 10 20 01 	mov  1, %o7
   1a3cc:	80 a6 20 00 	cmp  %i0, 0
   1a3d0:	9e 10 20 00 	clr  %o7
   1a3d4:	02 80 00 14 	be  1a424 <__GI_wcsnrtombs+0xa0>
   1a3d8:	b0 07 bf f0 	add  %fp, -16, %i0
   1a3dc:	80 a6 40 1a 	cmp  %i1, %i2
   1a3e0:	08 80 00 03 	bleu  1a3ec <__GI_wcsnrtombs+0x68>
   1a3e4:	b6 10 00 19 	mov  %i1, %i3
   1a3e8:	b6 10 00 1a 	mov  %i2, %i3
   1a3ec:	80 a0 a0 02 	cmp  %g2, 2
   1a3f0:	02 80 00 3e 	be  1a4e8 <__GI_wcsnrtombs+0x164>
   1a3f4:	c2 07 40 00 	ld  [ %i5 ], %g1
   1a3f8:	84 10 00 1b 	mov  %i3, %g2
   1a3fc:	80 a0 a0 00 	cmp  %g2, 0
   1a400:	32 80 00 3e 	bne,a   1a4f8 <__GI_wcsnrtombs+0x174>
   1a404:	c6 00 40 00 	ld  [ %g1 ], %g3
   1a408:	86 07 bf f0 	add  %fp, -16, %g3
   1a40c:	80 a6 00 03 	cmp  %i0, %g3
   1a410:	32 80 00 02 	bne,a   1a418 <__GI_wcsnrtombs+0x94>
   1a414:	c2 27 40 00 	st  %g1, [ %i5 ]
   1a418:	b0 26 c0 02 	sub  %i3, %g2, %i0
   1a41c:	81 c7 e0 08 	ret 
   1a420:	81 e8 00 00 	restore 
   1a424:	10 bf ff ee 	b  1a3dc <__GI_wcsnrtombs+0x58>
   1a428:	b2 10 3f ff 	mov  -1, %i1
   1a42c:	80 a0 a0 7f 	cmp  %g2, 0x7f
   1a430:	18 80 00 07 	bgu  1a44c <__GI_wcsnrtombs+0xc8>
   1a434:	80 a0 80 1a 	cmp  %g2, %i2
   1a438:	80 88 a0 ff 	btst  0xff, %g2
   1a43c:	12 80 00 1e 	bne  1a4b4 <__GI_wcsnrtombs+0x130>
   1a440:	c4 2e 00 00 	stb  %g2, [ %i0 ]
   1a444:	10 80 00 22 	b  1a4cc <__GI_wcsnrtombs+0x148>
   1a448:	82 10 20 00 	clr  %g1
   1a44c:	28 80 00 09 	bleu,a   1a470 <__GI_wcsnrtombs+0xec>
   1a450:	f2 02 29 50 	ld  [ %o0 + 0x950 ], %i1
   1a454:	84 10 20 7a 	mov  0x7a, %g2
   1a458:	03 00 00 00 	sethi  %hi(0), %g1
   1a45c:	82 18 7f f8 	xor  %g1, -8, %g1
   1a460:	01 00 00 00 	nop 
   1a464:	c4 21 c0 01 	st  %g2, [ %g7 + %g1 ]
   1a468:	81 c7 e0 08 	ret 
   1a46c:	91 e8 3f ff 	restore  %g0, -1, %o0
   1a470:	89 30 a0 08 	srl  %g2, 8, %g4
   1a474:	c8 0e 40 04 	ldub  [ %i1 + %g4 ], %g4
   1a478:	b3 30 a0 04 	srl  %g2, 4, %i1
   1a47c:	84 08 a0 0f 	and  %g2, 0xf, %g2
   1a480:	c6 02 29 54 	ld  [ %o0 + 0x954 ], %g3
   1a484:	89 29 20 04 	sll  %g4, 4, %g4
   1a488:	b2 0e 60 0f 	and  %i1, 0xf, %i1
   1a48c:	88 00 c0 04 	add  %g3, %g4, %g4
   1a490:	86 00 c0 02 	add  %g3, %g2, %g3
   1a494:	c8 09 00 19 	ldub  [ %g4 + %i1 ], %g4
   1a498:	89 29 20 04 	sll  %g4, 4, %g4
   1a49c:	86 00 c0 04 	add  %g3, %g4, %g3
   1a4a0:	c4 08 e0 20 	ldub  [ %g3 + 0x20 ], %g2
   1a4a4:	80 88 a0 ff 	btst  0xff, %g2
   1a4a8:	22 bf ff ec 	be,a   1a458 <__GI_wcsnrtombs+0xd4>
   1a4ac:	84 10 20 7a 	mov  0x7a, %g2
   1a4b0:	c4 2e 00 00 	stb  %g2, [ %i0 ]
   1a4b4:	82 00 60 04 	add  %g1, 4, %g1
   1a4b8:	b0 06 00 0f 	add  %i0, %o7, %i0
   1a4bc:	b8 07 3f ff 	add  %i4, -1, %i4
   1a4c0:	80 a7 20 00 	cmp  %i4, 0
   1a4c4:	32 bf ff da 	bne,a   1a42c <__GI_wcsnrtombs+0xa8>
   1a4c8:	c4 00 40 00 	ld  [ %g1 ], %g2
   1a4cc:	84 07 bf f0 	add  %fp, -16, %g2
   1a4d0:	80 a6 00 02 	cmp  %i0, %g2
   1a4d4:	32 80 00 02 	bne,a   1a4dc <__GI_wcsnrtombs+0x158>
   1a4d8:	c2 27 40 00 	st  %g1, [ %i5 ]
   1a4dc:	b0 26 c0 1c 	sub  %i3, %i4, %i0
   1a4e0:	81 c7 e0 08 	ret 
   1a4e4:	81 e8 00 00 	restore 
   1a4e8:	35 00 00 09 	sethi  %hi(0x2400), %i2
   1a4ec:	b8 10 00 1b 	mov  %i3, %i4
   1a4f0:	10 bf ff f4 	b  1a4c0 <__GI_wcsnrtombs+0x13c>
   1a4f4:	b4 16 a1 ff 	or  %i2, 0x1ff, %i2
   1a4f8:	80 a0 e0 7f 	cmp  %g3, 0x7f
   1a4fc:	18 bf ff d6 	bgu  1a454 <__GI_wcsnrtombs+0xd0>
   1a500:	80 88 e0 ff 	btst  0xff, %g3
   1a504:	02 80 00 06 	be  1a51c <__GI_wcsnrtombs+0x198>
   1a508:	c6 2e 00 00 	stb  %g3, [ %i0 ]
   1a50c:	82 00 60 04 	add  %g1, 4, %g1
   1a510:	b0 06 00 0f 	add  %i0, %o7, %i0
   1a514:	10 bf ff ba 	b  1a3fc <__GI_wcsnrtombs+0x78>
   1a518:	84 00 bf ff 	add  %g2, -1, %g2
   1a51c:	10 bf ff bb 	b  1a408 <__GI_wcsnrtombs+0x84>
   1a520:	82 10 20 00 	clr  %g1

0001a524 <__GI_asprintf>:
   1a524:	9d e3 bf 98 	save  %sp, -104, %sp
   1a528:	94 07 a0 4c 	add  %fp, 0x4c, %o2
   1a52c:	f4 27 a0 4c 	st  %i2, [ %fp + 0x4c ]
   1a530:	f6 27 a0 50 	st  %i3, [ %fp + 0x50 ]
   1a534:	f8 27 a0 54 	st  %i4, [ %fp + 0x54 ]
   1a538:	fa 27 a0 58 	st  %i5, [ %fp + 0x58 ]
   1a53c:	d4 27 bf fc 	st  %o2, [ %fp + -4 ]
   1a540:	92 10 00 19 	mov  %i1, %o1
   1a544:	40 00 00 04 	call  1a554 <__GI_vasprintf>
   1a548:	90 10 00 18 	mov  %i0, %o0
   1a54c:	81 c7 e0 08 	ret 
   1a550:	91 e8 00 08 	restore  %g0, %o0, %o0

0001a554 <__GI_vasprintf>:
   1a554:	9d e3 bf 98 	save  %sp, -104, %sp
   1a558:	c0 26 00 00 	clr  [ %i0 ]
   1a55c:	90 10 00 18 	mov  %i0, %o0
   1a560:	ba 10 00 18 	mov  %i0, %i5
   1a564:	92 07 bf fc 	add  %fp, -4, %o1
   1a568:	40 00 04 99 	call  1b7cc <__GI_open_memstream>
   1a56c:	b0 10 3f ff 	mov  -1, %i0
   1a570:	80 a2 20 00 	cmp  %o0, 0
   1a574:	02 80 00 0e 	be  1a5ac <__GI_vasprintf+0x58>
   1a578:	b8 10 00 08 	mov  %o0, %i4
   1a57c:	94 10 00 1a 	mov  %i2, %o2
   1a580:	40 00 04 c0 	call  1b880 <__GI_vfprintf>
   1a584:	92 10 00 19 	mov  %i1, %o1
   1a588:	b0 10 00 08 	mov  %o0, %i0
   1a58c:	40 00 0f 91 	call  1e3d0 <__GI_fclose>
   1a590:	90 10 00 1c 	mov  %i4, %o0
   1a594:	80 a6 20 00 	cmp  %i0, 0
   1a598:	16 80 00 07 	bge  1a5b4 <__GI_vasprintf+0x60>
   1a59c:	92 06 20 01 	add  %i0, 1, %o1
   1a5a0:	7f ff e8 7f 	call  1479c <free>
   1a5a4:	d0 07 40 00 	ld  [ %i5 ], %o0
   1a5a8:	c0 27 40 00 	clr  [ %i5 ]
   1a5ac:	81 c7 e0 08 	ret 
   1a5b0:	81 e8 00 00 	restore 
   1a5b4:	40 00 09 6a 	call  1cb5c <realloc>
   1a5b8:	d0 07 40 00 	ld  [ %i5 ], %o0
   1a5bc:	d0 27 40 00 	st  %o0, [ %i5 ]
   1a5c0:	81 c7 e0 08 	ret 
   1a5c4:	81 e8 00 00 	restore 

0001a5c8 <__stdio_fwrite>:
   1a5c8:	9d e3 bf a0 	save  %sp, -96, %sp
   1a5cc:	c2 16 80 00 	lduh  [ %i2 ], %g1
   1a5d0:	80 88 62 00 	btst  0x200, %g1
   1a5d4:	02 80 00 06 	be  1a5ec <__stdio_fwrite+0x24>
   1a5d8:	ba 10 00 1a 	mov  %i2, %i5
   1a5dc:	b4 10 00 19 	mov  %i1, %i2
   1a5e0:	b2 10 00 18 	mov  %i0, %i1
   1a5e4:	10 80 11 08 	b  1ea04 <__stdio_WRITE>
   1a5e8:	91 e8 00 1d 	restore  %g0, %i5, %o0
   1a5ec:	d0 06 a0 10 	ld  [ %i2 + 0x10 ], %o0
   1a5f0:	c2 06 a0 0c 	ld  [ %i2 + 0xc ], %g1
   1a5f4:	c4 06 a0 04 	ld  [ %i2 + 4 ], %g2
   1a5f8:	80 a0 bf fd 	cmp  %g2, -3
   1a5fc:	12 80 00 0e 	bne  1a634 <__stdio_fwrite+0x6c>
   1a600:	82 20 40 08 	sub  %g1, %o0, %g1
   1a604:	80 a6 40 01 	cmp  %i1, %g1
   1a608:	08 80 00 03 	bleu  1a614 <__stdio_fwrite+0x4c>
   1a60c:	b8 10 00 19 	mov  %i1, %i4
   1a610:	b8 10 00 01 	mov  %g1, %i4
   1a614:	94 10 00 1c 	mov  %i4, %o2
   1a618:	7f ff e1 87 	call  12c34 <__GI_memcpy>
   1a61c:	92 10 00 18 	mov  %i0, %o1
   1a620:	c2 07 60 10 	ld  [ %i5 + 0x10 ], %g1
   1a624:	82 00 40 1c 	add  %g1, %i4, %g1
   1a628:	c2 27 60 10 	st  %g1, [ %i5 + 0x10 ]
   1a62c:	81 c7 e0 08 	ret 
   1a630:	91 e8 00 19 	restore  %g0, %i1, %o0
   1a634:	80 a6 40 01 	cmp  %i1, %g1
   1a638:	38 80 00 27 	bgu,a   1a6d4 <__stdio_fwrite+0x10c>
   1a63c:	c2 06 a0 08 	ld  [ %i2 + 8 ], %g1
   1a640:	94 10 00 19 	mov  %i1, %o2
   1a644:	7f ff e1 7c 	call  12c34 <__GI_memcpy>
   1a648:	92 10 00 18 	mov  %i0, %o1
   1a64c:	c2 06 a0 10 	ld  [ %i2 + 0x10 ], %g1
   1a650:	82 00 40 19 	add  %g1, %i1, %g1
   1a654:	c2 26 a0 10 	st  %g1, [ %i2 + 0x10 ]
   1a658:	c2 16 80 00 	lduh  [ %i2 ], %g1
   1a65c:	80 88 61 00 	btst  0x100, %g1
   1a660:	02 bf ff f3 	be  1a62c <__stdio_fwrite+0x64>
   1a664:	94 10 00 19 	mov  %i1, %o2
   1a668:	92 10 20 0a 	mov  0xa, %o1
   1a66c:	40 00 08 ba 	call  1c954 <__GI_memrchr>
   1a670:	90 10 00 18 	mov  %i0, %o0
   1a674:	80 a2 20 00 	cmp  %o0, 0
   1a678:	02 bf ff ed 	be  1a62c <__stdio_fwrite+0x64>
   1a67c:	01 00 00 00 	nop 
   1a680:	40 00 00 d9 	call  1a9e4 <__stdio_wcommit>
   1a684:	90 10 00 1a 	mov  %i2, %o0
   1a688:	80 a2 20 00 	cmp  %o0, 0
   1a68c:	02 bf ff e8 	be  1a62c <__stdio_fwrite+0x64>
   1a690:	80 a6 40 08 	cmp  %i1, %o0
   1a694:	08 80 00 03 	bleu  1a6a0 <__stdio_fwrite+0xd8>
   1a698:	94 10 00 19 	mov  %i1, %o2
   1a69c:	94 10 00 08 	mov  %o0, %o2
   1a6a0:	90 26 40 0a 	sub  %i1, %o2, %o0
   1a6a4:	92 10 20 0a 	mov  0xa, %o1
   1a6a8:	40 00 04 f2 	call  1ba70 <__GI_memchr>
   1a6ac:	90 06 00 08 	add  %i0, %o0, %o0
   1a6b0:	80 a2 20 00 	cmp  %o0, 0
   1a6b4:	02 bf ff de 	be  1a62c <__stdio_fwrite+0x64>
   1a6b8:	01 00 00 00 	nop 
   1a6bc:	b0 06 00 19 	add  %i0, %i1, %i0
   1a6c0:	c2 07 60 10 	ld  [ %i5 + 0x10 ], %g1
   1a6c4:	90 26 00 08 	sub  %i0, %o0, %o0
   1a6c8:	b2 26 40 08 	sub  %i1, %o0, %i1
   1a6cc:	10 bf ff d7 	b  1a628 <__stdio_fwrite+0x60>
   1a6d0:	82 20 40 08 	sub  %g1, %o0, %g1
   1a6d4:	80 a0 40 08 	cmp  %g1, %o0
   1a6d8:	22 bf ff c2 	be,a   1a5e0 <__stdio_fwrite+0x18>
   1a6dc:	b4 10 00 19 	mov  %i1, %i2
   1a6e0:	40 00 00 c1 	call  1a9e4 <__stdio_wcommit>
   1a6e4:	90 10 00 1a 	mov  %i2, %o0
   1a6e8:	80 a2 20 00 	cmp  %o0, 0
   1a6ec:	22 bf ff bd 	be,a   1a5e0 <__stdio_fwrite+0x18>
   1a6f0:	b4 10 00 19 	mov  %i1, %i2
   1a6f4:	10 bf ff ce 	b  1a62c <__stdio_fwrite+0x64>
   1a6f8:	b2 10 20 00 	clr  %i1

0001a6fc <_stdio_term>:
   1a6fc:	9d e3 bf a0 	save  %sp, -96, %sp
   1a700:	2f 00 00 95 	sethi  %hi(0x25400), %l7
   1a704:	7f ff d8 48 	call  10824 <__sparc_get_pc_thunk.l7>
   1a708:	ae 05 e3 c8 	add  %l7, 0x3c8, %l7	! 257c8 <locale_mmap+0x5068>
   1a70c:	03 00 00 01 	sethi  %hi(0x400), %g1
   1a710:	82 18 63 98 	xor  %g1, 0x398, %g1
   1a714:	82 05 c0 01 	add  %l7, %g1, %g1
   1a718:	c0 20 40 00 	clr  [ %g1 ]
   1a71c:	c0 20 60 04 	clr  [ %g1 + 4 ]
   1a720:	c0 20 60 08 	clr  [ %g1 + 8 ]
   1a724:	03 00 00 01 	sethi  %hi(0x400), %g1
   1a728:	82 18 63 8c 	xor  %g1, 0x38c, %g1
   1a72c:	82 05 c0 01 	add  %l7, %g1, %g1
   1a730:	c0 20 40 00 	clr  [ %g1 ]
   1a734:	c0 20 60 04 	clr  [ %g1 + 4 ]
   1a738:	c0 20 60 08 	clr  [ %g1 + 8 ]
   1a73c:	03 00 00 00 	sethi  %hi(0), %g1
   1a740:	82 18 62 6c 	xor  %g1, 0x26c, %g1
   1a744:	b6 10 00 07 	mov  %g7, %i3
   1a748:	88 05 c0 01 	add  %l7, %g1, %g4
   1a74c:	b4 10 20 30 	mov  0x30, %i2
   1a750:	c2 01 00 00 	ld  [ %g4 ], %g1
   1a754:	ba 10 20 01 	mov  1, %i5
   1a758:	80 a0 60 00 	cmp  %g1, 0
   1a75c:	32 80 00 08 	bne,a   1a77c <_stdio_term+0x80>
   1a760:	c4 00 60 44 	ld  [ %g1 + 0x44 ], %g2
   1a764:	fa 01 00 00 	ld  [ %g4 ], %i5
   1a768:	80 a7 60 00 	cmp  %i5, 0
   1a76c:	32 80 00 27 	bne,a   1a808 <_stdio_term+0x10c>
   1a770:	c2 17 40 00 	lduh  [ %i5 ], %g1
   1a774:	81 c7 e0 08 	ret 
   1a778:	81 e8 00 00 	restore 
   1a77c:	80 a0 80 1b 	cmp  %g2, %i3
   1a780:	22 80 00 1d 	be,a   1a7f4 <_stdio_term+0xf8>
   1a784:	fa 20 60 38 	st  %i5, [ %g1 + 0x38 ]
   1a788:	86 00 60 3c 	add  %g1, 0x3c, %g3
   1a78c:	85 38 e0 02 	sra  %g3, 2, %g2
   1a790:	87 38 e0 0c 	sra  %g3, 0xc, %g3
   1a794:	84 18 80 03 	xor  %g2, %g3, %g2
   1a798:	84 08 a0 3f 	and  %g2, 0x3f, %g2
   1a79c:	07 00 00 00 	sethi  %hi(0), %g3
   1a7a0:	86 18 e3 ac 	xor  %g3, 0x3ac, %g3
   1a7a4:	86 05 c0 03 	add  %l7, %g3, %g3
   1a7a8:	f8 68 c0 02 	ldstub  [ %g3 + %g2 ], %i4
   1a7ac:	80 a7 20 00 	cmp  %i4, 0
   1a7b0:	32 bf ff fc 	bne,a   1a7a0 <_stdio_term+0xa4>
   1a7b4:	07 00 00 00 	sethi  %hi(0), %g3
   1a7b8:	f8 00 60 3c 	ld  [ %g1 + 0x3c ], %i4
   1a7bc:	80 a7 20 00 	cmp  %i4, 0
   1a7c0:	22 80 00 02 	be,a   1a7c8 <_stdio_term+0xcc>
   1a7c4:	fa 20 60 3c 	st  %i5, [ %g1 + 0x3c ]
   1a7c8:	c0 28 c0 02 	clrb  [ %g3 + %g2 ]
   1a7cc:	80 a7 20 00 	cmp  %i4, 0
   1a7d0:	22 80 00 09 	be,a   1a7f4 <_stdio_term+0xf8>
   1a7d4:	fa 20 60 38 	st  %i5, [ %g1 + 0x38 ]
   1a7d8:	c4 00 60 08 	ld  [ %g1 + 8 ], %g2
   1a7dc:	f4 30 40 00 	sth  %i2, [ %g1 ]
   1a7e0:	c4 20 60 18 	st  %g2, [ %g1 + 0x18 ]
   1a7e4:	c4 20 60 1c 	st  %g2, [ %g1 + 0x1c ]
   1a7e8:	c4 20 60 10 	st  %g2, [ %g1 + 0x10 ]
   1a7ec:	c4 20 60 14 	st  %g2, [ %g1 + 0x14 ]
   1a7f0:	fa 20 60 38 	st  %i5, [ %g1 + 0x38 ]
   1a7f4:	c0 20 60 3c 	clr  [ %g1 + 0x3c ]
   1a7f8:	c0 20 60 40 	clr  [ %g1 + 0x40 ]
   1a7fc:	c0 20 60 44 	clr  [ %g1 + 0x44 ]
   1a800:	10 bf ff d6 	b  1a758 <_stdio_term+0x5c>
   1a804:	c2 00 60 20 	ld  [ %g1 + 0x20 ], %g1
   1a808:	80 88 60 40 	btst  0x40, %g1
   1a80c:	22 80 00 05 	be,a   1a820 <_stdio_term+0x124>
   1a810:	c2 07 60 04 	ld  [ %i5 + 4 ], %g1
   1a814:	40 00 00 74 	call  1a9e4 <__stdio_wcommit>
   1a818:	90 10 00 1d 	mov  %i5, %o0
   1a81c:	c2 07 60 04 	ld  [ %i5 + 4 ], %g1
   1a820:	80 a0 7f fe 	cmp  %g1, -2
   1a824:	32 bf ff d1 	bne,a   1a768 <_stdio_term+0x6c>
   1a828:	fa 07 60 20 	ld  [ %i5 + 0x20 ], %i5
   1a82c:	c2 07 60 58 	ld  [ %i5 + 0x58 ], %g1
   1a830:	80 a0 60 00 	cmp  %g1, 0
   1a834:	22 bf ff cd 	be,a   1a768 <_stdio_term+0x6c>
   1a838:	fa 07 60 20 	ld  [ %i5 + 0x20 ], %i5
   1a83c:	9f c0 40 00 	call  %g1
   1a840:	d0 07 60 48 	ld  [ %i5 + 0x48 ], %o0
   1a844:	10 bf ff c9 	b  1a768 <_stdio_term+0x6c>
   1a848:	fa 07 60 20 	ld  [ %i5 + 0x20 ], %i5

0001a84c <_stdio_init>:
   1a84c:	9d e3 bf a0 	save  %sp, -96, %sp
   1a850:	2f 00 00 95 	sethi  %hi(0x25400), %l7
   1a854:	7f ff d7 f4 	call  10824 <__sparc_get_pc_thunk.l7>
   1a858:	ae 05 e2 78 	add  %l7, 0x278, %l7	! 25678 <locale_mmap+0x4f18>
   1a85c:	3b 00 00 00 	sethi  %hi(0), %i5
   1a860:	82 1f 7f f8 	xor  %i5, -8, %g1
   1a864:	01 00 00 00 	nop 
   1a868:	90 10 20 00 	clr  %o0	! 0 <errno>
   1a86c:	40 00 08 8c 	call  1ca9c <__GI_isatty>
   1a870:	f8 01 c0 01 	ld  [ %g7 + %g1 ], %i4
   1a874:	80 a2 20 00 	cmp  %o0, 0
   1a878:	12 80 00 07 	bne  1a894 <_stdio_init+0x48>
   1a87c:	03 00 00 00 	sethi  %hi(0), %g1
   1a880:	82 18 62 84 	xor  %g1, 0x284, %g1
   1a884:	82 05 c0 01 	add  %l7, %g1, %g1
   1a888:	c4 10 40 00 	lduh  [ %g1 ], %g2
   1a88c:	84 18 a1 00 	xor  %g2, 0x100, %g2
   1a890:	c4 30 40 00 	sth  %g2, [ %g1 ]
   1a894:	40 00 08 82 	call  1ca9c <__GI_isatty>
   1a898:	90 10 20 01 	mov  1, %o0
   1a89c:	80 a2 20 00 	cmp  %o0, 0
   1a8a0:	12 80 00 08 	bne  1a8c0 <_stdio_init+0x74>
   1a8a4:	ba 1f 7f f8 	xor  %i5, -8, %i5
   1a8a8:	03 00 00 00 	sethi  %hi(0), %g1
   1a8ac:	82 18 62 84 	xor  %g1, 0x284, %g1
   1a8b0:	82 05 c0 01 	add  %l7, %g1, %g1
   1a8b4:	c4 10 60 48 	lduh  [ %g1 + 0x48 ], %g2
   1a8b8:	84 18 a1 00 	xor  %g2, 0x100, %g2
   1a8bc:	c4 30 60 48 	sth  %g2, [ %g1 + 0x48 ]
   1a8c0:	ae 10 00 1d 	mov  %i5, %l7
   1a8c4:	f8 21 c0 17 	st  %i4, [ %g7 + %l7 ]
   1a8c8:	81 c7 e0 08 	ret 
   1a8cc:	81 e8 00 00 	restore 

0001a8d0 <__stdio_trans2w_o>:
   1a8d0:	9d e3 bf a0 	save  %sp, -96, %sp
   1a8d4:	2f 00 00 95 	sethi  %hi(0x25400), %l7
   1a8d8:	7f ff d7 d3 	call  10824 <__sparc_get_pc_thunk.l7>
   1a8dc:	ae 05 e1 f4 	add  %l7, 0x1f4, %l7	! 255f4 <locale_mmap+0x4e94>
   1a8e0:	c2 16 00 00 	lduh  [ %i0 ], %g1
   1a8e4:	80 88 40 19 	btst  %g1, %i1
   1a8e8:	12 80 00 13 	bne  1a934 <__stdio_trans2w_o+0x64>
   1a8ec:	80 88 60 20 	btst  0x20, %g1
   1a8f0:	84 08 68 80 	and  %g1, 0x880, %g2
   1a8f4:	80 a0 a0 00 	cmp  %g2, 0
   1a8f8:	22 80 00 0c 	be,a   1a928 <__stdio_trans2w_o+0x58>
   1a8fc:	b2 16 40 01 	or  %i1, %g1, %i1
   1a900:	03 00 00 00 	sethi  %hi(0), %g1
   1a904:	82 18 7f f8 	xor  %g1, -8, %g1
   1a908:	ae 10 00 01 	mov  %g1, %l7
   1a90c:	82 10 20 09 	mov  9, %g1
   1a910:	c2 21 c0 17 	st  %g1, [ %g7 + %l7 ]
   1a914:	c2 16 00 00 	lduh  [ %i0 ], %g1
   1a918:	82 10 60 08 	or  %g1, 8, %g1
   1a91c:	c2 36 00 00 	sth  %g1, [ %i0 ]
   1a920:	81 c7 e0 08 	ret 
   1a924:	91 e8 3f ff 	restore  %g0, -1, %o0
   1a928:	f2 36 00 00 	sth  %i1, [ %i0 ]
   1a92c:	c2 16 00 00 	lduh  [ %i0 ], %g1
   1a930:	80 88 60 20 	btst  0x20, %g1
   1a934:	12 bf ff f3 	bne  1a900 <__stdio_trans2w_o+0x30>
   1a938:	80 88 60 03 	btst  3, %g1
   1a93c:	22 80 00 0d 	be,a   1a970 <__stdio_trans2w_o+0xa0>
   1a940:	c2 16 00 00 	lduh  [ %i0 ], %g1
   1a944:	80 88 60 04 	btst  4, %g1
   1a948:	22 80 00 11 	be,a   1a98c <__stdio_trans2w_o+0xbc>
   1a94c:	c6 06 20 14 	ld  [ %i0 + 0x14 ], %g3
   1a950:	c2 16 00 00 	lduh  [ %i0 ], %g1
   1a954:	82 08 7f fc 	and  %g1, -4, %g1
   1a958:	c2 36 00 00 	sth  %g1, [ %i0 ]
   1a95c:	c2 06 20 08 	ld  [ %i0 + 8 ], %g1
   1a960:	c2 26 20 18 	st  %g1, [ %i0 + 0x18 ]
   1a964:	c2 26 20 10 	st  %g1, [ %i0 + 0x10 ]
   1a968:	c2 26 20 14 	st  %g1, [ %i0 + 0x14 ]
   1a96c:	c2 16 00 00 	lduh  [ %i0 ], %g1
   1a970:	84 10 60 40 	or  %g1, 0x40, %g2
   1a974:	82 08 6b 00 	and  %g1, 0xb00, %g1
   1a978:	80 a0 60 00 	cmp  %g1, 0
   1a97c:	02 80 00 17 	be  1a9d8 <__stdio_trans2w_o+0x108>
   1a980:	c4 36 00 00 	sth  %g2, [ %i0 ]
   1a984:	81 c7 e0 08 	ret 
   1a988:	91 e8 20 00 	restore  %g0, 0, %o0
   1a98c:	c4 06 20 10 	ld  [ %i0 + 0x10 ], %g2
   1a990:	80 a0 c0 02 	cmp  %g3, %g2
   1a994:	32 80 00 06 	bne,a   1a9ac <__stdio_trans2w_o+0xdc>
   1a998:	82 08 64 00 	and  %g1, 0x400, %g1
   1a99c:	80 88 60 02 	btst  2, %g1
   1a9a0:	22 bf ff ed 	be,a   1a954 <__stdio_trans2w_o+0x84>
   1a9a4:	c2 16 00 00 	lduh  [ %i0 ], %g1
   1a9a8:	82 08 64 00 	and  %g1, 0x400, %g1
   1a9ac:	80 a0 00 01 	cmp  %g0, %g1
   1a9b0:	92 10 20 00 	clr  %o1
   1a9b4:	94 40 20 00 	addx  %g0, 0, %o2
   1a9b8:	90 10 00 18 	mov  %i0, %o0
   1a9bc:	40 00 0f 79 	call  1e7a0 <__GI_fseek>
   1a9c0:	94 02 a0 01 	inc  %o2
   1a9c4:	80 a2 20 00 	cmp  %o0, 0
   1a9c8:	02 bf ff e3 	be  1a954 <__stdio_trans2w_o+0x84>
   1a9cc:	c2 16 00 00 	lduh  [ %i0 ], %g1
   1a9d0:	10 bf ff d3 	b  1a91c <__stdio_trans2w_o+0x4c>
   1a9d4:	82 10 60 08 	or  %g1, 8, %g1
   1a9d8:	c2 06 20 0c 	ld  [ %i0 + 0xc ], %g1
   1a9dc:	10 bf ff ea 	b  1a984 <__stdio_trans2w_o+0xb4>
   1a9e0:	c2 26 20 1c 	st  %g1, [ %i0 + 0x1c ]

0001a9e4 <__stdio_wcommit>:
   1a9e4:	9d e3 bf a0 	save  %sp, -96, %sp
   1a9e8:	d2 06 20 08 	ld  [ %i0 + 8 ], %o1
   1a9ec:	d4 06 20 10 	ld  [ %i0 + 0x10 ], %o2
   1a9f0:	94 a2 80 09 	subcc  %o2, %o1, %o2
   1a9f4:	22 80 00 06 	be,a   1aa0c <__stdio_wcommit+0x28>
   1a9f8:	c4 06 20 10 	ld  [ %i0 + 0x10 ], %g2
   1a9fc:	d2 26 20 10 	st  %o1, [ %i0 + 0x10 ]
   1aa00:	40 00 10 01 	call  1ea04 <__stdio_WRITE>
   1aa04:	90 10 00 18 	mov  %i0, %o0
   1aa08:	c4 06 20 10 	ld  [ %i0 + 0x10 ], %g2
   1aa0c:	f0 06 20 08 	ld  [ %i0 + 8 ], %i0
   1aa10:	b0 20 80 18 	sub  %g2, %i0, %i0
   1aa14:	81 c7 e0 08 	ret 
   1aa18:	81 e8 00 00 	restore 

0001aa1c <_load_inttype>:
   1aa1c:	9d e3 bf a0 	save  %sp, -96, %sp
   1aa20:	80 a6 a0 00 	cmp  %i2, 0
   1aa24:	06 80 00 13 	bl  1aa70 <_load_inttype+0x54>
   1aa28:	82 0e 28 00 	and  %i0, 0x800, %g1
   1aa2c:	80 a0 60 00 	cmp  %g1, 0
   1aa30:	02 80 00 05 	be  1aa44 <_load_inttype+0x28>
   1aa34:	80 a6 21 00 	cmp  %i0, 0x100
   1aa38:	f0 1e 40 00 	ldd  [ %i1 ], %i0
   1aa3c:	81 c7 e0 08 	ret 
   1aa40:	81 e8 00 00 	restore 
   1aa44:	12 80 00 05 	bne  1aa58 <_load_inttype+0x3c>
   1aa48:	f2 06 40 00 	ld  [ %i1 ], %i1
   1aa4c:	b2 0e 60 ff 	and  %i1, 0xff, %i1
   1aa50:	81 c7 e0 08 	ret 
   1aa54:	91 e8 20 00 	restore  %g0, 0, %o0
   1aa58:	80 a6 22 00 	cmp  %i0, 0x200
   1aa5c:	12 bf ff fd 	bne  1aa50 <_load_inttype+0x34>
   1aa60:	03 00 00 3f 	sethi  %hi(0xfc00), %g1
   1aa64:	82 10 63 ff 	or  %g1, 0x3ff, %g1	! ffff <__libc_h_errno+0xfffb>
   1aa68:	10 bf ff fa 	b  1aa50 <_load_inttype+0x34>
   1aa6c:	b2 0e 40 01 	and  %i1, %g1, %i1
   1aa70:	80 a0 60 00 	cmp  %g1, 0
   1aa74:	32 bf ff f2 	bne,a   1aa3c <_load_inttype+0x20>
   1aa78:	f0 1e 40 00 	ldd  [ %i1 ], %i0
   1aa7c:	80 a6 21 00 	cmp  %i0, 0x100
   1aa80:	12 80 00 07 	bne  1aa9c <_load_inttype+0x80>
   1aa84:	f2 06 40 00 	ld  [ %i1 ], %i1
   1aa88:	b3 2e 60 18 	sll  %i1, 0x18, %i1
   1aa8c:	b3 3e 60 18 	sra  %i1, 0x18, %i1
   1aa90:	b1 3e 60 1f 	sra  %i1, 0x1f, %i0
   1aa94:	81 c7 e0 08 	ret 
   1aa98:	81 e8 00 00 	restore 
   1aa9c:	80 a6 22 00 	cmp  %i0, 0x200
   1aaa0:	32 bf ff e7 	bne,a   1aa3c <_load_inttype+0x20>
   1aaa4:	b1 3e 60 1f 	sra  %i1, 0x1f, %i0
   1aaa8:	b3 2e 60 10 	sll  %i1, 0x10, %i1
   1aaac:	10 bf ff f9 	b  1aa90 <_load_inttype+0x74>
   1aab0:	b3 3e 60 10 	sra  %i1, 0x10, %i1

0001aab4 <_store_inttype>:
   1aab4:	9d e3 bf a0 	save  %sp, -96, %sp
   1aab8:	80 a6 61 00 	cmp  %i1, 0x100
   1aabc:	32 80 00 05 	bne,a   1aad0 <_store_inttype+0x1c>
   1aac0:	80 a6 68 00 	cmp  %i1, 0x800
   1aac4:	f6 2e 00 00 	stb  %i3, [ %i0 ]
   1aac8:	81 c7 e0 08 	ret 
   1aacc:	81 e8 00 00 	restore 
   1aad0:	32 80 00 05 	bne,a   1aae4 <_store_inttype+0x30>
   1aad4:	80 a6 62 00 	cmp  %i1, 0x200
   1aad8:	f4 3e 00 00 	std  %i2, [ %i0 ]
   1aadc:	81 c7 e0 08 	ret 
   1aae0:	81 e8 00 00 	restore 
   1aae4:	32 bf ff f9 	bne,a   1aac8 <_store_inttype+0x14>
   1aae8:	f6 26 00 00 	st  %i3, [ %i0 ]
   1aaec:	f6 36 00 00 	sth  %i3, [ %i0 ]
   1aaf0:	81 c7 e0 08 	ret 
   1aaf4:	81 e8 00 00 	restore 
   1aaf8:	81 c7 e0 08 	ret 
   1aafc:	81 e8 00 00 	restore 

0001ab00 <_uintmaxtostr>:
   1ab00:	9d e3 bf 98 	save  %sp, -104, %sp
   1ab04:	f2 27 bf f8 	st  %i1, [ %fp + -8 ]
   1ab08:	f4 27 bf fc 	st  %i2, [ %fp + -4 ]
   1ab0c:	80 a6 e0 00 	cmp  %i3, 0
   1ab10:	16 80 00 0b 	bge  1ab3c <_uintmaxtostr+0x3c>
   1ab14:	b2 10 20 00 	clr  %i1
   1ab18:	c2 07 bf f8 	ld  [ %fp + -8 ], %g1
   1ab1c:	80 a0 60 00 	cmp  %g1, 0
   1ab20:	16 80 00 07 	bge  1ab3c <_uintmaxtostr+0x3c>
   1ab24:	b6 20 00 1b 	neg  %i3
   1ab28:	e0 1f bf f8 	ldd  [ %fp + -8 ], %l0
   1ab2c:	b2 10 20 01 	mov  1, %i1
   1ab30:	86 a0 00 11 	subcc  %g0, %l1, %g3
   1ab34:	84 60 00 10 	subx  %g0, %l0, %g2
   1ab38:	c4 3f bf f8 	std  %g2, [ %fp + -8 ]
   1ab3c:	a4 0f 20 80 	and  %i4, 0x80, %l2
   1ab40:	b8 0f 3f 7f 	and  %i4, -129, %i4
   1ab44:	80 a7 20 2c 	cmp  %i4, 0x2c
   1ab48:	12 80 00 09 	bne  1ab6c <_uintmaxtostr+0x6c>
   1ab4c:	ac 10 3f ff 	mov  -1, %l6
   1ab50:	7f ff fd 68 	call  1a0f0 <__GI___curlocale>
   1ab54:	01 00 00 00 	nop 
   1ab58:	e6 02 29 ac 	ld  [ %o0 + 0x9ac ], %l3
   1ab5c:	c2 0c c0 00 	ldub  [ %l3 ], %g1
   1ab60:	80 a0 60 00 	cmp  %g1, 0
   1ab64:	32 80 00 02 	bne,a   1ab6c <_uintmaxtostr+0x6c>
   1ab68:	ac 10 00 01 	mov  %g1, %l6
   1ab6c:	a8 10 3f ff 	mov  -1, %l4
   1ab70:	81 80 20 00 	wr  %g0, %y
   1ab74:	01 00 00 00 	nop 
   1ab78:	01 00 00 00 	nop 
   1ab7c:	01 00 00 00 	nop 
   1ab80:	a8 75 00 1b 	udiv  %l4, %i3, %l4
   1ab84:	aa 5d 00 1b 	smul  %l4, %i3, %l5
   1ab88:	aa 20 00 15 	neg  %l5
   1ab8c:	80 a6 c0 15 	cmp  %i3, %l5
   1ab90:	12 80 00 04 	bne  1aba0 <_uintmaxtostr+0xa0>
   1ab94:	c0 2e 00 00 	clrb  [ %i0 ]
   1ab98:	a8 05 20 01 	inc  %l4
   1ab9c:	aa 10 20 00 	clr  %l5
   1aba0:	e0 1f bf f8 	ldd  [ %fp + -8 ], %l0
   1aba4:	81 80 20 00 	wr  %g0, %y
   1aba8:	01 00 00 00 	nop 
   1abac:	01 00 00 00 	nop 
   1abb0:	01 00 00 00 	nop 
   1abb4:	82 74 40 1b 	udiv  %l1, %i3, %g1
   1abb8:	ac 05 bf ff 	add  %l6, -1, %l6
   1abbc:	ba 58 40 1b 	smul  %g1, %i3, %i5
   1abc0:	80 a4 20 00 	cmp  %l0, 0
   1abc4:	ba 24 40 1d 	sub  %l1, %i5, %i5
   1abc8:	02 80 00 16 	be  1ac20 <_uintmaxtostr+0x120>
   1abcc:	a2 10 00 01 	mov  %g1, %l1
   1abd0:	81 80 20 00 	wr  %g0, %y
   1abd4:	01 00 00 00 	nop 
   1abd8:	01 00 00 00 	nop 
   1abdc:	01 00 00 00 	nop 
   1abe0:	84 74 00 1b 	udiv  %l0, %i3, %g2
   1abe4:	82 58 80 1b 	smul  %g2, %i3, %g1
   1abe8:	82 24 00 01 	sub  %l0, %g1, %g1
   1abec:	a0 10 00 02 	mov  %g2, %l0
   1abf0:	84 5d 40 01 	smul  %l5, %g1, %g2
   1abf4:	82 5d 00 01 	smul  %l4, %g1, %g1
   1abf8:	ba 00 80 1d 	add  %g2, %i5, %i5
   1abfc:	82 00 40 11 	add  %g1, %l1, %g1
   1ac00:	81 80 20 00 	wr  %g0, %y
   1ac04:	01 00 00 00 	nop 
   1ac08:	01 00 00 00 	nop 
   1ac0c:	01 00 00 00 	nop 
   1ac10:	84 77 40 1b 	udiv  %i5, %i3, %g2
   1ac14:	a2 00 40 02 	add  %g1, %g2, %l1
   1ac18:	84 58 80 1b 	smul  %g2, %i3, %g2
   1ac1c:	ba 27 40 02 	sub  %i5, %g2, %i5
   1ac20:	80 a4 a0 00 	cmp  %l2, 0
   1ac24:	02 80 00 26 	be  1acbc <_uintmaxtostr+0x1bc>
   1ac28:	80 a7 60 09 	cmp  %i5, 9
   1ac2c:	7f ff fd 31 	call  1a0f0 <__GI___curlocale>
   1ac30:	01 00 00 00 	nop 
   1ac34:	82 02 00 1d 	add  %o0, %i5, %g1
   1ac38:	bb 2f 60 02 	sll  %i5, 2, %i5
   1ac3c:	90 02 00 1d 	add  %o0, %i5, %o0
   1ac40:	d4 08 69 2e 	ldub  [ %g1 + 0x92e ], %o2
   1ac44:	d2 02 29 78 	ld  [ %o0 + 0x978 ], %o1
   1ac48:	b4 26 00 0a 	sub  %i0, %o2, %i2
   1ac4c:	7f ff df fa 	call  12c34 <__GI_memcpy>
   1ac50:	90 10 00 1a 	mov  %i2, %o0
   1ac54:	80 94 00 11 	orcc  %l0, %l1, %g0
   1ac58:	12 80 00 09 	bne  1ac7c <_uintmaxtostr+0x17c>
   1ac5c:	80 a5 a0 00 	cmp  %l6, 0
   1ac60:	80 a6 60 00 	cmp  %i1, 0
   1ac64:	02 80 00 04 	be  1ac74 <_uintmaxtostr+0x174>
   1ac68:	82 10 20 2d 	mov  0x2d, %g1
   1ac6c:	b4 06 bf ff 	add  %i2, -1, %i2
   1ac70:	c2 2e 80 00 	stb  %g1, [ %i2 ]
   1ac74:	81 c7 e0 08 	ret 
   1ac78:	91 e8 00 1a 	restore  %g0, %i2, %o0
   1ac7c:	12 bf ff ca 	bne  1aba4 <_uintmaxtostr+0xa4>
   1ac80:	b0 10 00 1a 	mov  %i2, %i0
   1ac84:	7f ff fd 1b 	call  1a0f0 <__GI___curlocale>
   1ac88:	01 00 00 00 	nop 
   1ac8c:	d4 02 29 74 	ld  [ %o0 + 0x974 ], %o2
   1ac90:	d2 02 29 a8 	ld  [ %o0 + 0x9a8 ], %o1
   1ac94:	b4 26 80 0a 	sub  %i2, %o2, %i2
   1ac98:	7f ff df e7 	call  12c34 <__GI_memcpy>
   1ac9c:	90 10 00 1a 	mov  %i2, %o0
   1aca0:	c2 0c e0 01 	ldub  [ %l3 + 1 ], %g1
   1aca4:	80 a0 60 00 	cmp  %g1, 0
   1aca8:	32 80 00 02 	bne,a   1acb0 <_uintmaxtostr+0x1b0>
   1acac:	a6 04 e0 01 	inc  %l3
   1acb0:	ec 0c c0 00 	ldub  [ %l3 ], %l6
   1acb4:	10 bf ff bc 	b  1aba4 <_uintmaxtostr+0xa4>
   1acb8:	b0 10 00 1a 	mov  %i2, %i0
   1acbc:	18 80 00 03 	bgu  1acc8 <_uintmaxtostr+0x1c8>
   1acc0:	82 07 40 1c 	add  %i5, %i4, %g1
   1acc4:	82 07 60 30 	add  %i5, 0x30, %g1
   1acc8:	b4 06 3f ff 	add  %i0, -1, %i2
   1accc:	10 bf ff e2 	b  1ac54 <_uintmaxtostr+0x154>
   1acd0:	c2 2e 3f ff 	stb  %g1, [ %i0 + -1 ]

0001acd4 <_fpmaxtostr>:
   1acd4:	9d e3 bf 00 	save  %sp, -256, %sp
   1acd8:	82 10 20 65 	mov  0x65, %g1
   1acdc:	f2 27 bf 68 	st  %i1, [ %fp + -152 ]
   1ace0:	f4 27 bf 6c 	st  %i2, [ %fp + -148 ]
   1ace4:	c2 2f bf 78 	stb  %g1, [ %fp + -136 ]
   1ace8:	c4 06 e0 08 	ld  [ %i3 + 8 ], %g2
   1acec:	2f 00 00 94 	sethi  %hi(0x25000), %l7
   1acf0:	7f ff d6 cd 	call  10824 <__sparc_get_pc_thunk.l7>
   1acf4:	ae 05 e1 dc 	add  %l7, 0x1dc, %l7	! 251dc <locale_mmap+0x4a7c>
   1acf8:	86 10 a0 20 	or  %g2, 0x20, %g3
   1acfc:	d1 1f bf 68 	ldd  [ %fp + -152 ], %f8
   1ad00:	86 08 e0 ff 	and  %g3, 0xff, %g3
   1ad04:	e6 06 e0 04 	ld  [ %i3 + 4 ], %l3
   1ad08:	e4 06 c0 00 	ld  [ %i3 ], %l2
   1ad0c:	80 a0 e0 61 	cmp  %g3, 0x61
   1ad10:	12 80 00 6a 	bne  1aeb8 <_fpmaxtostr+0x1e4>
   1ad14:	a2 10 00 02 	mov  %g2, %l1
   1ad18:	82 10 20 70 	mov  0x70, %g1
   1ad1c:	80 a4 a0 00 	cmp  %l2, 0
   1ad20:	06 80 00 6b 	bl  1aecc <_fpmaxtostr+0x1f8>
   1ad24:	c2 2f bf 78 	stb  %g1, [ %fp + -136 ]
   1ad28:	a8 10 20 00 	clr  %l4
   1ad2c:	c0 2f bf 70 	clrb  [ %fp + -144 ]
   1ad30:	c2 06 e0 0c 	ld  [ %i3 + 0xc ], %g1
   1ad34:	80 88 60 02 	btst  2, %g1
   1ad38:	02 80 00 68 	be  1aed8 <_fpmaxtostr+0x204>
   1ad3c:	80 88 60 01 	btst  1, %g1
   1ad40:	82 10 20 2b 	mov  0x2b, %g1
   1ad44:	c2 2f bf 70 	stb  %g1, [ %fp + -144 ]
   1ad48:	c0 2f bf 71 	clrb  [ %fp + -143 ]
   1ad4c:	81 aa 0a 48 	fcmpd  %f8, %f8
   1ad50:	01 00 00 00 	nop 
   1ad54:	13 80 00 65 	fbe  1aee8 <_fpmaxtostr+0x214>
   1ad58:	c0 27 bf b4 	clr  [ %fp + -76 ]
   1ad5c:	82 10 20 08 	mov  8, %g1
   1ad60:	c2 27 bf b4 	st  %g1, [ %fp + -76 ]
   1ad64:	82 10 20 20 	mov  0x20, %g1
   1ad68:	c2 26 e0 10 	st  %g1, [ %i3 + 0x10 ]
   1ad6c:	82 10 20 70 	mov  0x70, %g1
   1ad70:	c2 27 bf ac 	st  %g1, [ %fp + -84 ]
   1ad74:	82 10 20 03 	mov  3, %g1
   1ad78:	c2 27 bf b0 	st  %g1, [ %fp + -80 ]
   1ad7c:	82 08 a0 ff 	and  %g2, 0xff, %g1
   1ad80:	80 a0 60 60 	cmp  %g1, 0x60
   1ad84:	18 80 00 06 	bgu  1ad9c <_fpmaxtostr+0xc8>
   1ad88:	c6 07 bf b4 	ld  [ %fp + -76 ], %g3
   1ad8c:	c2 07 bf b4 	ld  [ %fp + -76 ], %g1
   1ad90:	82 00 60 04 	add  %g1, 4, %g1
   1ad94:	c2 27 bf b4 	st  %g1, [ %fp + -76 ]
   1ad98:	c6 07 bf b4 	ld  [ %fp + -76 ], %g3
   1ad9c:	03 00 00 80 	sethi  %hi(0x20000), %g1
   1ada0:	a2 10 00 02 	mov  %g2, %l1
   1ada4:	82 18 7c e4 	xor  %g1, -796, %g1
   1ada8:	ba 07 bf b8 	add  %fp, -72, %i5
   1adac:	82 05 c0 01 	add  %l7, %g1, %g1
   1adb0:	82 00 c0 01 	add  %g3, %g1, %g1
   1adb4:	c2 27 bf b4 	st  %g1, [ %fp + -76 ]
   1adb8:	82 07 bf b0 	add  %fp, -80, %g1
   1adbc:	c4 00 40 00 	ld  [ %g1 ], %g2
   1adc0:	82 00 60 0c 	add  %g1, 0xc, %g1
   1adc4:	80 a7 40 01 	cmp  %i5, %g1
   1adc8:	18 bf ff fd 	bgu  1adbc <_fpmaxtostr+0xe8>
   1adcc:	a6 24 c0 02 	sub  %l3, %g2, %l3
   1add0:	82 10 20 a0 	mov  0xa0, %g1
   1add4:	c2 27 bf a0 	st  %g1, [ %fp + -96 ]
   1add8:	c2 0f bf 70 	ldub  [ %fp + -144 ], %g1
   1addc:	84 07 bf 70 	add  %fp, -144, %g2
   1ade0:	80 a0 00 01 	cmp  %g0, %g1
   1ade4:	c4 27 bf a8 	st  %g2, [ %fp + -88 ]
   1ade8:	82 40 20 00 	addx  %g0, 0, %g1
   1adec:	a2 14 60 20 	or  %l1, 0x20, %l1
   1adf0:	a2 0c 60 ff 	and  %l1, 0xff, %l1
   1adf4:	80 a4 60 61 	cmp  %l1, 0x61
   1adf8:	12 80 00 0f 	bne  1ae34 <_fpmaxtostr+0x160>
   1adfc:	c2 27 bf a4 	st  %g1, [ %fp + -92 ]
   1ae00:	c6 07 bf ac 	ld  [ %fp + -84 ], %g3
   1ae04:	80 a0 e0 0f 	cmp  %g3, 0xf
   1ae08:	24 80 00 0c 	ble,a   1ae38 <_fpmaxtostr+0x164>
   1ae0c:	a6 24 c0 01 	sub  %l3, %g1, %l3
   1ae10:	88 10 20 30 	mov  0x30, %g4
   1ae14:	c8 28 80 01 	stb  %g4, [ %g2 + %g1 ]
   1ae18:	86 00 80 01 	add  %g2, %g1, %g3
   1ae1c:	c4 0f bf 78 	ldub  [ %fp + -136 ], %g2
   1ae20:	82 00 60 02 	add  %g1, 2, %g1
   1ae24:	84 00 a0 08 	add  %g2, 8, %g2
   1ae28:	c0 28 e0 02 	clrb  [ %g3 + 2 ]
   1ae2c:	c4 28 e0 01 	stb  %g2, [ %g3 + 1 ]
   1ae30:	c2 27 bf a4 	st  %g1, [ %fp + -92 ]
   1ae34:	a6 24 c0 01 	sub  %l3, %g1, %l3
   1ae38:	80 a4 e0 00 	cmp  %l3, 0
   1ae3c:	24 80 00 10 	ble,a   1ae7c <_fpmaxtostr+0x1a8>
   1ae40:	b6 07 bf a0 	add  %fp, -96, %i3
   1ae44:	c2 06 e0 0c 	ld  [ %i3 + 0xc ], %g1
   1ae48:	80 88 60 08 	btst  8, %g1
   1ae4c:	22 80 01 e4 	be,a   1b5dc <_fpmaxtostr+0x908>
   1ae50:	c4 06 e0 10 	ld  [ %i3 + 0x10 ], %g2
   1ae54:	82 10 20 a0 	mov  0xa0, %g1
   1ae58:	e6 27 60 04 	st  %l3, [ %i5 + 4 ]
   1ae5c:	c2 27 40 00 	st  %g1, [ %i5 ]
   1ae60:	03 00 00 80 	sethi  %hi(0x20000), %g1
   1ae64:	ba 07 60 0c 	add  %i5, 0xc, %i5
   1ae68:	82 18 7c e4 	xor  %g1, -796, %g1
   1ae6c:	ae 05 c0 01 	add  %l7, %g1, %l7
   1ae70:	ae 05 e0 03 	add  %l7, 3, %l7
   1ae74:	ee 27 7f fc 	st  %l7, [ %i5 + -4 ]
   1ae78:	b6 07 bf a0 	add  %fp, -96, %i3
   1ae7c:	b4 10 20 00 	clr  %i2
   1ae80:	f2 06 e0 04 	ld  [ %i3 + 4 ], %i1
   1ae84:	d6 06 e0 08 	ld  [ %i3 + 8 ], %o3
   1ae88:	94 10 00 19 	mov  %i1, %o2
   1ae8c:	d2 06 c0 00 	ld  [ %i3 ], %o1
   1ae90:	9f c7 00 00 	call  %i4
   1ae94:	90 10 00 18 	mov  %i0, %o0
   1ae98:	80 a2 00 19 	cmp  %o0, %i1
   1ae9c:	12 80 01 da 	bne  1b604 <_fpmaxtostr+0x930>
   1aea0:	b6 06 e0 0c 	add  %i3, 0xc, %i3
   1aea4:	80 a7 40 1b 	cmp  %i5, %i3
   1aea8:	18 bf ff f6 	bgu  1ae80 <_fpmaxtostr+0x1ac>
   1aeac:	b4 06 80 08 	add  %i2, %o0, %i2
   1aeb0:	81 c7 e0 08 	ret 
   1aeb4:	91 e8 00 1a 	restore  %g0, %i2, %o0
   1aeb8:	80 a4 a0 00 	cmp  %l2, 0
   1aebc:	16 bf ff 9c 	bge  1ad2c <_fpmaxtostr+0x58>
   1aec0:	a8 10 20 00 	clr  %l4
   1aec4:	10 bf ff 9a 	b  1ad2c <_fpmaxtostr+0x58>
   1aec8:	a4 10 20 06 	mov  6, %l2
   1aecc:	a8 10 20 01 	mov  1, %l4
   1aed0:	10 bf ff 97 	b  1ad2c <_fpmaxtostr+0x58>
   1aed4:	a4 10 20 0e 	mov  0xe, %l2
   1aed8:	22 bf ff 9d 	be,a   1ad4c <_fpmaxtostr+0x78>
   1aedc:	c0 2f bf 71 	clrb  [ %fp + -143 ]
   1aee0:	10 bf ff 99 	b  1ad44 <_fpmaxtostr+0x70>
   1aee4:	82 10 20 20 	mov  0x20, %g1
   1aee8:	03 00 00 82 	sethi  %hi(0x20800), %g1
   1aeec:	82 18 7e 84 	xor  %g1, -380, %g1
   1aef0:	82 05 c0 01 	add  %l7, %g1, %g1
   1aef4:	d5 18 40 00 	ldd  [ %g1 ], %f10
   1aef8:	81 aa 0a 4a 	fcmpd  %f8, %f10
   1aefc:	01 00 00 00 	nop 
   1af00:	23 80 00 90 	fbne,a   1b140 <_fpmaxtostr+0x46c>
   1af04:	81 aa 0a ca 	fcmped  %f8, %f10
   1af08:	d1 27 bf 68 	st  %f8, [ %fp + -152 ]
   1af0c:	c6 07 bf 68 	ld  [ %fp + -152 ], %g3
   1af10:	d3 27 bf 68 	st  %f9, [ %fp + -152 ]
   1af14:	c2 07 bf 68 	ld  [ %fp + -152 ], %g1
   1af18:	80 a0 40 03 	cmp  %g1, %g3
   1af1c:	02 80 00 03 	be  1af28 <_fpmaxtostr+0x254>
   1af20:	82 10 20 2d 	mov  0x2d, %g1
   1af24:	c2 2f bf 70 	stb  %g1, [ %fp + -144 ]
   1af28:	03 00 00 82 	sethi  %hi(0x20800), %g1
   1af2c:	95 a0 00 28 	fmovs  %f8, %f10
   1af30:	82 18 7e 74 	xor  %g1, -396, %g1
   1af34:	97 a0 00 29 	fmovs  %f9, %f11
   1af38:	82 05 c0 01 	add  %l7, %g1, %g1
   1af3c:	a0 10 3f ff 	mov  -1, %l0
   1af40:	b4 10 20 11 	mov  0x11, %i2
   1af44:	88 10 20 09 	mov  9, %g4
   1af48:	b2 10 20 0a 	mov  0xa, %i1
   1af4c:	dd 18 40 00 	ldd  [ %g1 ], %f14
   1af50:	86 07 bf 8a 	add  %fp, -118, %g3
   1af54:	9a 10 20 02 	mov  2, %o5
   1af58:	ba 10 00 03 	mov  %g3, %i5
   1af5c:	17 20 00 00 	sethi  %hi(0x80000000), %o3
   1af60:	03 00 00 82 	sethi  %hi(0x20800), %g1
   1af64:	82 18 7e 6c 	xor  %g1, -404, %g1
   1af68:	82 05 c0 01 	add  %l7, %g1, %g1
   1af6c:	d1 18 40 00 	ldd  [ %g1 ], %f8
   1af70:	81 aa 8a c8 	fcmped  %f10, %f8
   1af74:	01 00 00 00 	nop 
   1af78:	37 80 00 c5 	fbge,a   1b28c <_fpmaxtostr+0x5b8>
   1af7c:	91 a2 88 c8 	fsubd  %f10, %f8, %f8
   1af80:	91 a0 1a 4a 	fdtoi  %f10, %f8
   1af84:	d1 27 bf 68 	st  %f8, [ %fp + -152 ]
   1af88:	c2 07 bf 68 	ld  [ %fp + -152 ], %g1
   1af8c:	c2 27 bf 68 	st  %g1, [ %fp + -152 ]
   1af90:	80 a0 60 00 	cmp  %g1, 0
   1af94:	d1 07 bf 68 	ld  [ %fp + -152 ], %f8
   1af98:	16 80 00 07 	bge  1afb4 <_fpmaxtostr+0x2e0>
   1af9c:	91 a0 19 08 	fitod  %f8, %f8
   1afa0:	1f 00 00 82 	sethi  %hi(0x20800), %o7
   1afa4:	9e 1b fe 64 	xor  %o7, -412, %o7
   1afa8:	9e 05 c0 0f 	add  %l7, %o7, %o7
   1afac:	d9 1b c0 00 	ldd  [ %o7 ], %f12
   1afb0:	91 a2 08 4c 	faddd  %f8, %f12, %f8
   1afb4:	95 a2 88 c8 	fsubd  %f10, %f8, %f10
   1afb8:	86 00 c0 04 	add  %g3, %g4, %g3
   1afbc:	95 a2 89 4e 	fmuld  %f10, %f14, %f10
   1afc0:	9e 10 20 00 	clr  %o7
   1afc4:	81 80 20 00 	wr  %g0, %y
   1afc8:	01 00 00 00 	nop 
   1afcc:	01 00 00 00 	nop 
   1afd0:	01 00 00 00 	nop 
   1afd4:	98 70 40 19 	udiv  %g1, %i1, %o4
   1afd8:	9e 03 e0 01 	inc  %o7
   1afdc:	92 5b 00 19 	smul  %o4, %i1, %o1
   1afe0:	94 20 00 0f 	neg  %o7, %o2
   1afe4:	82 20 40 09 	sub  %g1, %o1, %g1
   1afe8:	82 00 60 30 	add  %g1, 0x30, %g1
   1afec:	c2 28 c0 0a 	stb  %g1, [ %g3 + %o2 ]
   1aff0:	80 a1 00 0f 	cmp  %g4, %o7
   1aff4:	12 bf ff f4 	bne  1afc4 <_fpmaxtostr+0x2f0>
   1aff8:	82 10 00 0c 	mov  %o4, %g1
   1affc:	80 a3 60 01 	cmp  %o5, 1
   1b000:	32 bf ff d8 	bne,a   1af60 <_fpmaxtostr+0x28c>
   1b004:	9a 10 20 01 	mov  1, %o5
   1b008:	82 08 a0 ff 	and  %g2, 0xff, %g1
   1b00c:	80 a0 60 60 	cmp  %g1, 0x60
   1b010:	18 80 00 07 	bgu  1b02c <_fpmaxtostr+0x358>
   1b014:	aa 0c 60 ff 	and  %l1, 0xff, %l5
   1b018:	c2 0f bf 78 	ldub  [ %fp + -136 ], %g1
   1b01c:	a2 00 a0 20 	add  %g2, 0x20, %l1
   1b020:	82 00 7f e0 	add  %g1, -32, %g1
   1b024:	c2 2f bf 78 	stb  %g1, [ %fp + -136 ]
   1b028:	aa 0c 60 ff 	and  %l1, 0xff, %l5
   1b02c:	80 a5 60 67 	cmp  %l5, 0x67
   1b030:	12 80 00 9c 	bne  1b2a0 <_fpmaxtostr+0x5cc>
   1b034:	80 a4 a0 00 	cmp  %l2, 0
   1b038:	04 80 00 9b 	ble  1b2a4 <_fpmaxtostr+0x5d0>
   1b03c:	80 a5 60 66 	cmp  %l5, 0x66
   1b040:	a4 04 bf ff 	add  %l2, -1, %l2
   1b044:	84 10 00 12 	mov  %l2, %g2
   1b048:	82 10 20 30 	mov  0x30, %g1
   1b04c:	c2 37 bf 88 	sth  %g1, [ %fp + -120 ]
   1b050:	80 a6 80 02 	cmp  %i2, %g2
   1b054:	14 80 00 a1 	bg  1b2d8 <_fpmaxtostr+0x604>
   1b058:	88 07 bf 89 	add  %fp, -119, %g4
   1b05c:	b4 06 a0 01 	inc  %i2
   1b060:	9e 10 20 00 	clr  %o7
   1b064:	b4 01 00 1a 	add  %g4, %i2, %i2
   1b068:	82 06 60 2f 	add  %i1, 0x2f, %g1
   1b06c:	c6 0e bf ff 	ldub  [ %i2 + -1 ], %g3
   1b070:	86 03 c0 03 	add  %o7, %g3, %g3
   1b074:	c6 2e bf ff 	stb  %g3, [ %i2 + -1 ]
   1b078:	86 08 e0 ff 	and  %g3, 0xff, %g3
   1b07c:	80 a0 e0 30 	cmp  %g3, 0x30
   1b080:	02 bf ff fb 	be  1b06c <_fpmaxtostr+0x398>
   1b084:	b4 06 bf ff 	add  %i2, -1, %i2
   1b088:	80 a0 c0 01 	cmp  %g3, %g1
   1b08c:	38 bf ff f9 	bgu,a   1b070 <_fpmaxtostr+0x39c>
   1b090:	c6 0e bf ff 	ldub  [ %i2 + -1 ], %g3
   1b094:	82 14 60 20 	or  %l1, 0x20, %g1
   1b098:	82 08 60 ff 	and  %g1, 0xff, %g1
   1b09c:	80 a0 60 61 	cmp  %g1, 0x61
   1b0a0:	12 80 00 9e 	bne  1b318 <_fpmaxtostr+0x644>
   1b0a4:	80 a6 80 04 	cmp  %i2, %g4
   1b0a8:	f2 0f bf 78 	ldub  [ %fp + -136 ], %i1
   1b0ac:	86 10 00 1a 	mov  %i2, %g3
   1b0b0:	b2 06 7f b7 	add  %i1, -73, %i1
   1b0b4:	c2 08 c0 00 	ldub  [ %g3 ], %g1
   1b0b8:	9e 88 60 ff 	andcc  %g1, 0xff, %o7
   1b0bc:	12 80 00 8f 	bne  1b2f8 <_fpmaxtostr+0x624>
   1b0c0:	80 a3 e0 39 	cmp  %o7, 0x39
   1b0c4:	80 a6 80 04 	cmp  %i2, %g4
   1b0c8:	38 80 00 92 	bgu,a   1b310 <_fpmaxtostr+0x63c>
   1b0cc:	a1 2c 20 02 	sll  %l0, 2, %l0
   1b0d0:	a0 04 20 01 	inc  %l0
   1b0d4:	b4 10 00 04 	mov  %g4, %i2
   1b0d8:	82 10 00 04 	mov  %g4, %g1
   1b0dc:	80 a5 60 67 	cmp  %l5, 0x67
   1b0e0:	12 80 00 92 	bne  1b328 <_fpmaxtostr+0x654>
   1b0e4:	c0 2e a0 01 	clrb  [ %i2 + 1 ]
   1b0e8:	80 a4 3f fc 	cmp  %l0, -4
   1b0ec:	16 80 00 03 	bge  1b0f8 <_fpmaxtostr+0x424>
   1b0f0:	86 10 20 01 	mov  1, %g3
   1b0f4:	86 10 20 00 	clr  %g3
   1b0f8:	80 88 e0 01 	btst  1, %g3
   1b0fc:	02 80 00 8e 	be  1b334 <_fpmaxtostr+0x660>
   1b100:	80 a0 80 10 	cmp  %g2, %l0
   1b104:	16 80 00 03 	bge  1b110 <_fpmaxtostr+0x43c>
   1b108:	86 10 20 01 	mov  1, %g3
   1b10c:	86 10 20 00 	clr  %g3
   1b110:	80 88 e0 01 	btst  1, %g3
   1b114:	22 80 00 89 	be,a   1b338 <_fpmaxtostr+0x664>
   1b118:	b2 10 20 00 	clr  %i1
   1b11c:	a4 20 80 10 	sub  %g2, %l0, %l2
   1b120:	80 a4 20 00 	cmp  %l0, 0
   1b124:	16 80 00 05 	bge  1b138 <_fpmaxtostr+0x464>
   1b128:	b2 10 00 10 	mov  %l0, %i1
   1b12c:	84 10 20 30 	mov  0x30, %g2
   1b130:	82 00 7f ff 	add  %g1, -1, %g1
   1b134:	c4 28 40 00 	stb  %g2, [ %g1 ]
   1b138:	10 80 00 80 	b  1b338 <_fpmaxtostr+0x664>
   1b13c:	a2 10 20 66 	mov  0x66, %l1
   1b140:	01 00 00 00 	nop 
   1b144:	19 80 00 05 	fbuge  1b158 <_fpmaxtostr+0x484>
   1b148:	01 00 00 00 	nop 
   1b14c:	82 10 20 2d 	mov  0x2d, %g1	! 2d <__libc_h_errno+0x29>
   1b150:	91 a0 00 a8 	fnegs  %f8, %f8
   1b154:	c2 2f bf 70 	stb  %g1, [ %fp + -144 ]
   1b158:	03 00 00 82 	sethi  %hi(0x20800), %g1
   1b15c:	82 18 7e 8c 	xor  %g1, -372, %g1
   1b160:	82 05 c0 01 	add  %l7, %g1, %g1
   1b164:	d5 18 40 00 	ldd  [ %g1 ], %f10
   1b168:	95 a2 09 4a 	fmuld  %f8, %f10, %f10
   1b16c:	81 aa 8a 48 	fcmpd  %f10, %f8
   1b170:	01 00 00 00 	nop 
   1b174:	13 bf fe fc 	fbe  1ad64 <_fpmaxtostr+0x90>
   1b178:	80 a0 e0 61 	cmp  %g3, 0x61
   1b17c:	12 80 00 2d 	bne  1b230 <_fpmaxtostr+0x55c>
   1b180:	07 00 00 82 	sethi  %hi(0x20800), %g3
   1b184:	07 00 00 82 	sethi  %hi(0x20800), %g3
   1b188:	86 18 fe 64 	xor  %g3, -412, %g3
   1b18c:	86 05 c0 03 	add  %l7, %g3, %g3
   1b190:	03 00 00 80 	sethi  %hi(0x20000), %g1
   1b194:	dd 18 c0 00 	ldd  [ %g3 ], %f14
   1b198:	82 18 7c 54 	xor  %g1, -940, %g1
   1b19c:	07 00 00 82 	sethi  %hi(0x20800), %g3
   1b1a0:	a0 10 20 07 	mov  7, %l0
   1b1a4:	86 18 fe 6c 	xor  %g3, -404, %g3
   1b1a8:	b4 10 20 0e 	mov  0xe, %i2
   1b1ac:	88 10 20 08 	mov  8, %g4
   1b1b0:	82 05 c0 01 	add  %l7, %g1, %g1
   1b1b4:	b2 10 20 10 	mov  0x10, %i1
   1b1b8:	86 05 c0 03 	add  %l7, %g3, %g3
   1b1bc:	e1 18 c0 00 	ldd  [ %g3 ], %f16
   1b1c0:	95 a0 00 28 	fmovs  %f8, %f10
   1b1c4:	86 00 60 40 	add  %g1, 0x40, %g3
   1b1c8:	97 a0 00 29 	fmovs  %f9, %f11
   1b1cc:	ba 10 21 00 	mov  0x100, %i5
   1b1d0:	81 aa 0a d0 	fcmped  %f8, %f16
   1b1d4:	01 00 00 00 	nop 
   1b1d8:	19 80 00 26 	fbuge  1b270 <_fpmaxtostr+0x59c>
   1b1dc:	d9 18 c0 00 	ldd  [ %g3 ], %f12
   1b1e0:	99 a2 89 4c 	fmuld  %f10, %f12, %f12
   1b1e4:	81 ab 0a ce 	fcmped  %f12, %f14
   1b1e8:	01 00 00 00 	nop 
   1b1ec:	19 80 00 05 	fbuge  1b200 <_fpmaxtostr+0x52c>
   1b1f0:	01 00 00 00 	nop 
   1b1f4:	a0 24 00 1d 	sub  %l0, %i5, %l0
   1b1f8:	95 a0 00 2c 	fmovs  %f12, %f10
   1b1fc:	97 a0 00 2d 	fmovs  %f13, %f11
   1b200:	bb 3f 60 01 	sra  %i5, 1, %i5
   1b204:	80 a0 40 03 	cmp  %g1, %g3
   1b208:	12 80 00 18 	bne  1b268 <_fpmaxtostr+0x594>
   1b20c:	9e 00 ff f8 	add  %g3, -8, %o7
   1b210:	81 aa 8a ce 	fcmped  %f10, %f14
   1b214:	01 00 00 00 	nop 
   1b218:	07 bf ff 4e 	fbul  1af50 <_fpmaxtostr+0x27c>
   1b21c:	01 00 00 00 	nop 
   1b220:	d1 18 40 00 	ldd  [ %g1 ], %f8
   1b224:	a0 04 20 01 	inc  %l0
   1b228:	10 bf ff 4a 	b  1af50 <_fpmaxtostr+0x27c>
   1b22c:	95 a2 89 c8 	fdivd  %f10, %f8, %f10
   1b230:	86 18 fe 74 	xor  %g3, -396, %g3
   1b234:	86 05 c0 03 	add  %l7, %g3, %g3
   1b238:	03 00 00 80 	sethi  %hi(0x20000), %g1
   1b23c:	dd 18 c0 00 	ldd  [ %g3 ], %f14
   1b240:	82 18 7c 9c 	xor  %g1, -868, %g1
   1b244:	07 00 00 82 	sethi  %hi(0x20800), %g3
   1b248:	a0 10 20 08 	mov  8, %l0
   1b24c:	86 18 fe 7c 	xor  %g3, -388, %g3
   1b250:	b4 10 20 11 	mov  0x11, %i2
   1b254:	88 10 20 09 	mov  9, %g4
   1b258:	82 05 c0 01 	add  %l7, %g1, %g1
   1b25c:	b2 10 20 0a 	mov  0xa, %i1
   1b260:	10 bf ff d7 	b  1b1bc <_fpmaxtostr+0x4e8>
   1b264:	86 05 c0 03 	add  %l7, %g3, %g3
   1b268:	10 bf ff da 	b  1b1d0 <_fpmaxtostr+0x4fc>
   1b26c:	86 10 00 0f 	mov  %o7, %g3
   1b270:	99 a2 89 cc 	fdivd  %f10, %f12, %f12
   1b274:	81 ab 0a d0 	fcmped  %f12, %f16
   1b278:	01 00 00 00 	nop 
   1b27c:	07 bf ff e1 	fbul  1b200 <_fpmaxtostr+0x52c>
   1b280:	01 00 00 00 	nop 
   1b284:	10 bf ff dd 	b  1b1f8 <_fpmaxtostr+0x524>
   1b288:	a0 04 00 1d 	add  %l0, %i5, %l0
   1b28c:	91 a0 1a 48 	fdtoi  %f8, %f8
   1b290:	d1 27 bf 68 	st  %f8, [ %fp + -152 ]
   1b294:	c2 07 bf 68 	ld  [ %fp + -152 ], %g1
   1b298:	10 bf ff 3d 	b  1af8c <_fpmaxtostr+0x2b8>
   1b29c:	82 18 40 0b 	xor  %g1, %o3, %g1
   1b2a0:	80 a5 60 66 	cmp  %l5, 0x66
   1b2a4:	12 bf ff 69 	bne  1b048 <_fpmaxtostr+0x374>
   1b2a8:	84 10 00 12 	mov  %l2, %g2
   1b2ac:	84 04 00 12 	add  %l0, %l2, %g2
   1b2b0:	80 a0 bf ff 	cmp  %g2, -1
   1b2b4:	16 bf ff 66 	bge  1b04c <_fpmaxtostr+0x378>
   1b2b8:	82 10 20 30 	mov  0x30, %g1
   1b2bc:	94 10 20 11 	mov  0x11, %o2
   1b2c0:	92 10 20 30 	mov  0x30, %o1
   1b2c4:	7f ff e2 86 	call  13cdc <__GI_memset>
   1b2c8:	90 07 bf 88 	add  %fp, -120, %o0
   1b2cc:	a0 10 3f ff 	mov  -1, %l0
   1b2d0:	10 bf ff 5e 	b  1b048 <_fpmaxtostr+0x374>
   1b2d4:	84 10 3f ff 	mov  -1, %g2
   1b2d8:	82 00 a0 02 	add  %g2, 2, %g1
   1b2dc:	c6 09 00 01 	ldub  [ %g4 + %g1 ], %g3
   1b2e0:	b4 01 00 01 	add  %g4, %g1, %i2
   1b2e4:	83 36 60 01 	srl  %i1, 1, %g1
   1b2e8:	82 00 60 30 	add  %g1, 0x30, %g1
   1b2ec:	80 a0 c0 01 	cmp  %g3, %g1
   1b2f0:	10 bf ff 5e 	b  1b068 <_fpmaxtostr+0x394>
   1b2f4:	9e 60 3f ff 	subx  %g0, -1, %o7
   1b2f8:	28 bf ff 6f 	bleu,a   1b0b4 <_fpmaxtostr+0x3e0>
   1b2fc:	86 00 ff ff 	add  %g3, -1, %g3
   1b300:	82 00 40 19 	add  %g1, %i1, %g1
   1b304:	c2 28 c0 00 	stb  %g1, [ %g3 ]
   1b308:	10 bf ff 6b 	b  1b0b4 <_fpmaxtostr+0x3e0>
   1b30c:	86 00 ff ff 	add  %g3, -1, %g3
   1b310:	10 bf ff 73 	b  1b0dc <_fpmaxtostr+0x408>
   1b314:	82 10 00 1d 	mov  %i5, %g1
   1b318:	18 bf ff 71 	bgu  1b0dc <_fpmaxtostr+0x408>
   1b31c:	82 10 00 1d 	mov  %i5, %g1
   1b320:	10 bf ff 6d 	b  1b0d4 <_fpmaxtostr+0x400>
   1b324:	a0 04 20 01 	inc  %l0
   1b328:	80 a5 60 66 	cmp  %l5, 0x66
   1b32c:	02 bf ff 7e 	be  1b124 <_fpmaxtostr+0x450>
   1b330:	80 a4 20 00 	cmp  %l0, 0
   1b334:	b2 10 20 00 	clr  %i1
   1b338:	86 10 20 01 	mov  1, %g3
   1b33c:	c6 27 bf b0 	st  %g3, [ %fp + -80 ]
   1b340:	86 07 bf 74 	add  %fp, -140, %g3
   1b344:	84 10 20 b0 	mov  0xb0, %g2
   1b348:	c6 27 bf b4 	st  %g3, [ %fp + -76 ]
   1b34c:	c4 27 bf ac 	st  %g2, [ %fp + -84 ]
   1b350:	c6 08 40 00 	ldub  [ %g1 ], %g3
   1b354:	c0 2f bf 75 	clrb  [ %fp + -139 ]
   1b358:	c6 2f bf 74 	stb  %g3, [ %fp + -140 ]
   1b35c:	ac 00 60 01 	add  %g1, 1, %l6
   1b360:	b4 26 80 01 	sub  %i2, %g1, %i2
   1b364:	80 a6 60 00 	cmp  %i1, 0
   1b368:	06 80 00 15 	bl  1b3bc <_fpmaxtostr+0x6e8>
   1b36c:	ba 07 bf b8 	add  %fp, -72, %i5
   1b370:	82 10 20 70 	mov  0x70, %g1
   1b374:	ec 27 bf c0 	st  %l6, [ %fp + -64 ]
   1b378:	80 a6 40 1a 	cmp  %i1, %i2
   1b37c:	06 80 00 84 	bl  1b58c <_fpmaxtostr+0x8b8>
   1b380:	c2 27 bf b8 	st  %g1, [ %fp + -72 ]
   1b384:	f4 27 bf bc 	st  %i2, [ %fp + -68 ]
   1b388:	b4 a6 40 1a 	subcc  %i1, %i2, %i2
   1b38c:	02 80 00 0b 	be  1b3b8 <_fpmaxtostr+0x6e4>
   1b390:	ba 07 bf c4 	add  %fp, -60, %i5
   1b394:	f4 27 bf c8 	st  %i2, [ %fp + -56 ]
   1b398:	03 00 00 80 	sethi  %hi(0x20000), %g1
   1b39c:	c4 27 bf c4 	st  %g2, [ %fp + -60 ]
   1b3a0:	82 18 7c e4 	xor  %g1, -796, %g1
   1b3a4:	b4 10 20 00 	clr  %i2
   1b3a8:	82 05 c0 01 	add  %l7, %g1, %g1
   1b3ac:	ba 07 bf d0 	add  %fp, -48, %i5
   1b3b0:	82 00 60 03 	add  %g1, 3, %g1
   1b3b4:	c2 27 bf cc 	st  %g1, [ %fp + -52 ]
   1b3b8:	b2 10 3f ff 	mov  -1, %i1
   1b3bc:	c2 06 e0 0c 	ld  [ %i3 + 0xc ], %g1
   1b3c0:	88 08 60 10 	and  %g1, 0x10, %g4
   1b3c4:	80 a0 00 04 	cmp  %g0, %g4
   1b3c8:	84 1d 60 67 	xor  %l5, 0x67, %g2
   1b3cc:	86 40 20 00 	addx  %g0, 0, %g3
   1b3d0:	80 a0 00 02 	cmp  %g0, %g2
   1b3d4:	84 40 20 00 	addx  %g0, 0, %g2
   1b3d8:	80 91 00 1a 	orcc  %g4, %i2, %g0
   1b3dc:	12 80 00 0b 	bne  1b408 <_fpmaxtostr+0x734>
   1b3e0:	88 10 20 70 	mov  0x70, %g4
   1b3e4:	88 1d 60 61 	xor  %l5, 0x61, %g4
   1b3e8:	80 a0 00 04 	cmp  %g0, %g4
   1b3ec:	88 40 20 00 	addx  %g0, 0, %g4
   1b3f0:	80 88 80 04 	btst  %g2, %g4
   1b3f4:	02 80 00 10 	be  1b434 <_fpmaxtostr+0x760>
   1b3f8:	80 a4 a0 00 	cmp  %l2, 0
   1b3fc:	02 80 00 0f 	be  1b438 <_fpmaxtostr+0x764>
   1b400:	88 86 60 01 	addcc  %i1, 1, %g4
   1b404:	88 10 20 70 	mov  0x70, %g4
   1b408:	80 88 60 80 	btst  0x80, %g1
   1b40c:	02 80 00 68 	be  1b5ac <_fpmaxtostr+0x8d8>
   1b410:	c8 27 40 00 	st  %g4, [ %i5 ]
   1b414:	82 10 20 01 	mov  1, %g1
   1b418:	c2 27 60 04 	st  %g1, [ %i5 + 4 ]
   1b41c:	03 00 00 80 	sethi  %hi(0x20000), %g1
   1b420:	82 18 7c e4 	xor  %g1, -796, %g1
   1b424:	82 05 c0 01 	add  %l7, %g1, %g1
   1b428:	82 00 60 10 	add  %g1, 0x10, %g1
   1b42c:	c2 27 60 08 	st  %g1, [ %i5 + 8 ]
   1b430:	ba 07 60 0c 	add  %i5, 0xc, %i5
   1b434:	88 86 60 01 	addcc  %i1, 1, %g4
   1b438:	02 80 00 0c 	be  1b468 <_fpmaxtostr+0x794>
   1b43c:	80 a6 a0 00 	cmp  %i2, 0
   1b440:	82 10 20 b0 	mov  0xb0, %g1
   1b444:	b2 38 00 19 	xnor  %g0, %i1, %i1
   1b448:	c2 27 40 00 	st  %g1, [ %i5 ]
   1b44c:	f2 27 60 04 	st  %i1, [ %i5 + 4 ]
   1b450:	03 00 00 80 	sethi  %hi(0x20000), %g1
   1b454:	ba 07 60 0c 	add  %i5, 0xc, %i5
   1b458:	82 18 7c e4 	xor  %g1, -796, %g1
   1b45c:	82 05 c0 01 	add  %l7, %g1, %g1
   1b460:	82 00 60 03 	add  %g1, 3, %g1
   1b464:	c2 27 7f fc 	st  %g1, [ %i5 + -4 ]
   1b468:	02 80 00 07 	be  1b484 <_fpmaxtostr+0x7b0>
   1b46c:	80 a0 e0 00 	cmp  %g3, 0
   1b470:	82 10 20 70 	mov  0x70, %g1
   1b474:	f4 27 60 04 	st  %i2, [ %i5 + 4 ]
   1b478:	c2 27 40 00 	st  %g1, [ %i5 ]
   1b47c:	ec 27 60 08 	st  %l6, [ %i5 + 8 ]
   1b480:	ba 07 60 0c 	add  %i5, 0xc, %i5
   1b484:	12 80 00 04 	bne  1b494 <_fpmaxtostr+0x7c0>
   1b488:	80 a0 a0 00 	cmp  %g2, 0
   1b48c:	02 80 00 14 	be  1b4dc <_fpmaxtostr+0x808>
   1b490:	82 0c 60 ff 	and  %l1, 0xff, %g1
   1b494:	80 a5 20 00 	cmp  %l4, 0
   1b498:	12 80 00 11 	bne  1b4dc <_fpmaxtostr+0x808>
   1b49c:	82 0c 60 ff 	and  %l1, 0xff, %g1
   1b4a0:	82 26 80 04 	sub  %i2, %g4, %g1
   1b4a4:	80 a4 80 01 	cmp  %l2, %g1
   1b4a8:	24 80 00 0d 	ble,a   1b4dc <_fpmaxtostr+0x808>
   1b4ac:	82 0c 60 ff 	and  %l1, 0xff, %g1
   1b4b0:	b4 24 80 01 	sub  %l2, %g1, %i2
   1b4b4:	84 10 20 b0 	mov  0xb0, %g2
   1b4b8:	f4 27 60 04 	st  %i2, [ %i5 + 4 ]
   1b4bc:	c4 27 40 00 	st  %g2, [ %i5 ]
   1b4c0:	03 00 00 80 	sethi  %hi(0x20000), %g1
   1b4c4:	ba 07 60 0c 	add  %i5, 0xc, %i5
   1b4c8:	82 18 7c e4 	xor  %g1, -796, %g1
   1b4cc:	82 05 c0 01 	add  %l7, %g1, %g1
   1b4d0:	82 00 60 03 	add  %g1, 3, %g1
   1b4d4:	c2 27 7f fc 	st  %g1, [ %i5 + -4 ]
   1b4d8:	82 0c 60 ff 	and  %l1, 0xff, %g1
   1b4dc:	80 a0 60 66 	cmp  %g1, 0x66
   1b4e0:	02 bf fe 36 	be  1adb8 <_fpmaxtostr+0xe4>
   1b4e4:	da 0f bf 78 	ldub  [ %fp + -136 ], %o5
   1b4e8:	80 a5 60 61 	cmp  %l5, 0x61
   1b4ec:	02 80 00 03 	be  1b4f8 <_fpmaxtostr+0x824>
   1b4f0:	9e 10 20 03 	mov  3, %o7
   1b4f4:	9e 10 20 04 	mov  4, %o7
   1b4f8:	80 a4 20 00 	cmp  %l0, 0
   1b4fc:	16 80 00 04 	bge  1b50c <_fpmaxtostr+0x838>
   1b500:	b2 10 20 2b 	mov  0x2b, %i1
   1b504:	a0 20 00 10 	neg  %l0
   1b508:	b2 10 20 2d 	mov  0x2d, %i1
   1b50c:	c0 2f bf 87 	clrb  [ %fp + -121 ]
   1b510:	86 10 20 02 	mov  2, %g3
   1b514:	84 07 bf 87 	add  %fp, -121, %g2
   1b518:	83 3c 20 1f 	sra  %l0, 0x1f, %g1
   1b51c:	81 80 60 00 	wr  %g1, %y
   1b520:	01 00 00 00 	nop 
   1b524:	01 00 00 00 	nop 
   1b528:	01 00 00 00 	nop 
   1b52c:	b4 7c 20 0a 	sdiv  %l0, 0xa, %i2
   1b530:	83 2e a0 02 	sll  %i2, 2, %g1
   1b534:	82 00 40 1a 	add  %g1, %i2, %g1
   1b538:	82 00 40 01 	add  %g1, %g1, %g1
   1b53c:	82 24 00 01 	sub  %l0, %g1, %g1
   1b540:	82 00 60 30 	add  %g1, 0x30, %g1
   1b544:	c2 28 bf ff 	stb  %g1, [ %g2 + -1 ]
   1b548:	86 00 e0 01 	inc  %g3
   1b54c:	88 00 bf ff 	add  %g2, -1, %g4
   1b550:	80 a3 c0 03 	cmp  %o7, %g3
   1b554:	14 80 00 1f 	bg  1b5d0 <_fpmaxtostr+0x8fc>
   1b558:	a0 10 00 1a 	mov  %i2, %l0
   1b55c:	80 a6 a0 00 	cmp  %i2, 0
   1b560:	32 bf ff ee 	bne,a   1b518 <_fpmaxtostr+0x844>
   1b564:	84 10 00 04 	mov  %g4, %g2
   1b568:	82 10 20 70 	mov  0x70, %g1
   1b56c:	c6 27 60 04 	st  %g3, [ %i5 + 4 ]
   1b570:	c2 27 40 00 	st  %g1, [ %i5 ]
   1b574:	84 00 bf fd 	add  %g2, -3, %g2
   1b578:	f2 29 3f ff 	stb  %i1, [ %g4 + -1 ]
   1b57c:	c4 27 60 08 	st  %g2, [ %i5 + 8 ]
   1b580:	da 29 3f fe 	stb  %o5, [ %g4 + -2 ]
   1b584:	10 bf fe 0d 	b  1adb8 <_fpmaxtostr+0xe4>
   1b588:	ba 07 60 0c 	add  %i5, 0xc, %i5
   1b58c:	80 a6 60 00 	cmp  %i1, 0
   1b590:	22 bf ff 8b 	be,a   1b3bc <_fpmaxtostr+0x6e8>
   1b594:	b2 10 3f ff 	mov  -1, %i1
   1b598:	f2 27 bf bc 	st  %i1, [ %fp + -68 ]
   1b59c:	ac 05 80 19 	add  %l6, %i1, %l6
   1b5a0:	b4 26 80 19 	sub  %i2, %i1, %i2
   1b5a4:	10 bf ff 85 	b  1b3b8 <_fpmaxtostr+0x6e4>
   1b5a8:	ba 07 bf c4 	add  %fp, -60, %i5
   1b5ac:	c4 27 bf 64 	st  %g2, [ %fp + -156 ]
   1b5b0:	7f ff fa d0 	call  1a0f0 <__GI___curlocale>
   1b5b4:	c6 27 bf 68 	st  %g3, [ %fp + -152 ]
   1b5b8:	c2 02 29 70 	ld  [ %o0 + 0x970 ], %g1
   1b5bc:	c4 07 bf 64 	ld  [ %fp + -156 ], %g2
   1b5c0:	c2 27 60 04 	st  %g1, [ %i5 + 4 ]
   1b5c4:	c6 07 bf 68 	ld  [ %fp + -152 ], %g3
   1b5c8:	10 bf ff 99 	b  1b42c <_fpmaxtostr+0x758>
   1b5cc:	c2 02 29 a4 	ld  [ %o0 + 0x9a4 ], %g1
   1b5d0:	86 10 20 03 	mov  3, %g3
   1b5d4:	10 bf ff d1 	b  1b518 <_fpmaxtostr+0x844>
   1b5d8:	84 10 00 04 	mov  %g4, %g2
   1b5dc:	80 a0 a0 30 	cmp  %g2, 0x30
   1b5e0:	12 80 00 06 	bne  1b5f8 <_fpmaxtostr+0x924>
   1b5e4:	c2 07 bf a4 	ld  [ %fp + -92 ], %g1
   1b5e8:	c2 07 bf b0 	ld  [ %fp + -80 ], %g1
   1b5ec:	82 00 40 13 	add  %g1, %l3, %g1
   1b5f0:	10 bf fe 22 	b  1ae78 <_fpmaxtostr+0x1a4>
   1b5f4:	c2 27 bf b0 	st  %g1, [ %fp + -80 ]
   1b5f8:	a6 04 c0 01 	add  %l3, %g1, %l3
   1b5fc:	10 bf fe 1f 	b  1ae78 <_fpmaxtostr+0x1a4>
   1b600:	e6 27 bf a4 	st  %l3, [ %fp + -92 ]
   1b604:	10 bf fe 2b 	b  1aeb0 <_fpmaxtostr+0x1dc>
   1b608:	b4 10 3f ff 	mov  -1, %i2

0001b60c <oms_close>:
   1b60c:	9d e3 bf a0 	save  %sp, -96, %sp
   1b610:	90 10 00 18 	mov  %i0, %o0
   1b614:	7f ff e4 62 	call  1479c <free>
   1b618:	b0 10 20 00 	clr  %i0
   1b61c:	81 c7 e0 08 	ret 
   1b620:	81 e8 00 00 	restore 

0001b624 <oms_seek>:
   1b624:	9d e3 bf a0 	save  %sp, -96, %sp
   1b628:	80 a6 a0 00 	cmp  %i2, 0
   1b62c:	02 80 00 08 	be  1b64c <oms_seek+0x28>
   1b630:	f8 1e 40 00 	ldd  [ %i1 ], %i4
   1b634:	80 a6 a0 01 	cmp  %i2, 1
   1b638:	32 80 00 03 	bne,a   1b644 <oms_seek+0x20>
   1b63c:	c2 06 20 0c 	ld  [ %i0 + 0xc ], %g1
   1b640:	c2 06 20 08 	ld  [ %i0 + 8 ], %g1
   1b644:	ba 87 40 01 	addcc  %i5, %g1, %i5
   1b648:	b8 47 20 00 	addx  %i4, 0, %i4
   1b64c:	80 a7 20 00 	cmp  %i4, 0
   1b650:	12 80 00 04 	bne  1b660 <oms_seek+0x3c>
   1b654:	80 a7 7f fd 	cmp  %i5, -3
   1b658:	08 80 00 04 	bleu  1b668 <oms_seek+0x44>
   1b65c:	b6 07 60 01 	add  %i5, 1, %i3
   1b660:	81 c7 e0 08 	ret 
   1b664:	91 e8 3f ff 	restore  %g0, -1, %o0
   1b668:	c2 06 20 04 	ld  [ %i0 + 4 ], %g1
   1b66c:	80 a0 40 1b 	cmp  %g1, %i3
   1b670:	18 80 00 10 	bgu  1b6b0 <oms_seek+0x8c>
   1b674:	b4 10 00 1d 	mov  %i5, %i2
   1b678:	92 10 00 1b 	mov  %i3, %o1
   1b67c:	40 00 05 38 	call  1cb5c <realloc>
   1b680:	d0 06 00 00 	ld  [ %i0 ], %o0
   1b684:	80 a2 20 00 	cmp  %o0, 0
   1b688:	02 bf ff f6 	be  1b660 <oms_seek+0x3c>
   1b68c:	92 10 20 00 	clr  %o1
   1b690:	d0 26 00 00 	st  %o0, [ %i0 ]
   1b694:	c2 06 20 10 	ld  [ %i0 + 0x10 ], %g1
   1b698:	d0 20 40 00 	st  %o0, [ %g1 ]
   1b69c:	c2 06 20 0c 	ld  [ %i0 + 0xc ], %g1
   1b6a0:	f6 26 20 04 	st  %i3, [ %i0 + 4 ]
   1b6a4:	94 26 c0 01 	sub  %i3, %g1, %o2
   1b6a8:	7f ff e1 8d 	call  13cdc <__GI_memset>
   1b6ac:	90 02 00 01 	add  %o0, %g1, %o0
   1b6b0:	f4 26 20 08 	st  %i2, [ %i0 + 8 ]
   1b6b4:	f8 3e 40 00 	std  %i4, [ %i1 ]
   1b6b8:	c2 06 20 0c 	ld  [ %i0 + 0xc ], %g1
   1b6bc:	80 a6 80 01 	cmp  %i2, %g1
   1b6c0:	38 80 00 04 	bgu,a   1b6d0 <oms_seek+0xac>
   1b6c4:	d0 06 00 00 	ld  [ %i0 ], %o0
   1b6c8:	81 c7 e0 08 	ret 
   1b6cc:	91 e8 20 00 	restore  %g0, 0, %o0
   1b6d0:	94 26 80 01 	sub  %i2, %g1, %o2
   1b6d4:	90 02 00 01 	add  %o0, %g1, %o0
   1b6d8:	7f ff e1 81 	call  13cdc <__GI_memset>
   1b6dc:	92 10 20 00 	clr  %o1
   1b6e0:	c4 06 20 0c 	ld  [ %i0 + 0xc ], %g2
   1b6e4:	c2 06 20 14 	ld  [ %i0 + 0x14 ], %g1
   1b6e8:	10 bf ff f8 	b  1b6c8 <oms_seek+0xa4>
   1b6ec:	c4 20 40 00 	st  %g2, [ %g1 ]

0001b6f0 <oms_write>:
   1b6f0:	9d e3 bf a0 	save  %sp, -96, %sp
   1b6f4:	2f 00 00 91 	sethi  %hi(0x24400), %l7
   1b6f8:	7f ff d4 4b 	call  10824 <__sparc_get_pc_thunk.l7>
   1b6fc:	ae 05 e3 d4 	add  %l7, 0x3d4, %l7	! 247d4 <locale_mmap+0x4074>
   1b700:	d2 06 20 04 	ld  [ %i0 + 4 ], %o1
   1b704:	f8 06 20 08 	ld  [ %i0 + 8 ], %i4
   1b708:	82 02 7f ff 	add  %o1, -1, %g1
   1b70c:	ba 20 40 1c 	sub  %g1, %i4, %i5
   1b710:	80 a7 40 1a 	cmp  %i5, %i2
   1b714:	1a 80 00 10 	bcc  1b754 <oms_write+0x64>
   1b718:	d0 06 00 00 	ld  [ %i0 ], %o0
   1b71c:	b8 27 00 01 	sub  %i4, %g1, %i4
   1b720:	92 02 40 1a 	add  %o1, %i2, %o1
   1b724:	40 00 05 0e 	call  1cb5c <realloc>
   1b728:	92 02 40 1c 	add  %o1, %i4, %o1
   1b72c:	80 a2 20 00 	cmp  %o0, 0
   1b730:	02 80 00 1e 	be  1b7a8 <oms_write+0xb8>
   1b734:	80 a7 60 00 	cmp  %i5, 0
   1b738:	d0 26 00 00 	st  %o0, [ %i0 ]
   1b73c:	c2 06 20 10 	ld  [ %i0 + 0x10 ], %g1
   1b740:	d0 20 40 00 	st  %o0, [ %g1 ]
   1b744:	c2 06 20 04 	ld  [ %i0 + 4 ], %g1
   1b748:	82 06 80 01 	add  %i2, %g1, %g1
   1b74c:	82 00 40 1c 	add  %g1, %i4, %g1
   1b750:	c2 26 20 04 	st  %g1, [ %i0 + 4 ]
   1b754:	ba 10 00 1a 	mov  %i2, %i5
   1b758:	c2 06 20 08 	ld  [ %i0 + 8 ], %g1
   1b75c:	d0 06 00 00 	ld  [ %i0 ], %o0
   1b760:	94 10 00 1d 	mov  %i5, %o2
   1b764:	90 02 00 01 	add  %o0, %g1, %o0
   1b768:	7f ff dd 33 	call  12c34 <__GI_memcpy>
   1b76c:	92 10 00 19 	mov  %i1, %o1
   1b770:	c2 06 20 08 	ld  [ %i0 + 8 ], %g1
   1b774:	82 07 40 01 	add  %i5, %g1, %g1
   1b778:	c2 26 20 08 	st  %g1, [ %i0 + 8 ]
   1b77c:	c4 06 20 0c 	ld  [ %i0 + 0xc ], %g2
   1b780:	80 a0 40 02 	cmp  %g1, %g2
   1b784:	08 80 00 07 	bleu  1b7a0 <oms_write+0xb0>
   1b788:	01 00 00 00 	nop 
   1b78c:	c2 26 20 0c 	st  %g1, [ %i0 + 0xc ]
   1b790:	c4 06 20 14 	ld  [ %i0 + 0x14 ], %g2
   1b794:	c2 20 80 00 	st  %g1, [ %g2 ]
   1b798:	c4 06 00 00 	ld  [ %i0 ], %g2
   1b79c:	c0 28 80 01 	clrb  [ %g2 + %g1 ]
   1b7a0:	81 c7 e0 08 	ret 
   1b7a4:	91 e8 00 1d 	restore  %g0, %i5, %o0
   1b7a8:	32 bf ff ed 	bne,a   1b75c <oms_write+0x6c>
   1b7ac:	c2 06 20 08 	ld  [ %i0 + 8 ], %g1
   1b7b0:	03 00 00 00 	sethi  %hi(0), %g1
   1b7b4:	82 18 7f f8 	xor  %g1, -8, %g1
   1b7b8:	ae 10 00 01 	mov  %g1, %l7
   1b7bc:	82 10 20 1b 	mov  0x1b, %g1
   1b7c0:	c2 21 c0 17 	st  %g1, [ %g7 + %l7 ]
   1b7c4:	81 c7 e0 08 	ret 
   1b7c8:	91 e8 3f ff 	restore  %g0, -1, %o0

0001b7cc <__GI_open_memstream>:
   1b7cc:	9d e3 bf 90 	save  %sp, -112, %sp
   1b7d0:	2f 00 00 91 	sethi  %hi(0x24400), %l7
   1b7d4:	7f ff d4 14 	call  10824 <__sparc_get_pc_thunk.l7>
   1b7d8:	ae 05 e2 f8 	add  %l7, 0x2f8, %l7	! 246f8 <locale_mmap+0x3f98>
   1b7dc:	7f ff e4 98 	call  14a3c <malloc>
   1b7e0:	90 10 20 18 	mov  0x18, %o0
   1b7e4:	ba 92 20 00 	orcc  %o0, 0, %i5
   1b7e8:	02 80 00 21 	be  1b86c <__GI_open_memstream+0xa0>
   1b7ec:	82 10 21 00 	mov  0x100, %g1
   1b7f0:	90 10 21 00 	mov  0x100, %o0
   1b7f4:	7f ff e4 92 	call  14a3c <malloc>
   1b7f8:	c2 27 60 04 	st  %g1, [ %i5 + 4 ]
   1b7fc:	80 a2 20 00 	cmp  %o0, 0
   1b800:	02 80 00 1b 	be  1b86c <__GI_open_memstream+0xa0>
   1b804:	d0 27 40 00 	st  %o0, [ %i5 ]
   1b808:	d0 26 00 00 	st  %o0, [ %i0 ]
   1b80c:	82 07 bf f0 	add  %fp, -16, %g1
   1b810:	c0 2a 00 00 	clrb  [ %o0 ]
   1b814:	f0 27 60 10 	st  %i0, [ %i5 + 0x10 ]
   1b818:	94 10 20 10 	mov  0x10, %o2
   1b81c:	90 10 00 01 	mov  %g1, %o0
   1b820:	c0 27 60 08 	clr  [ %i5 + 8 ]
   1b824:	c0 27 60 0c 	clr  [ %i5 + 0xc ]
   1b828:	f2 27 60 14 	st  %i1, [ %i5 + 0x14 ]
   1b82c:	c0 26 40 00 	clr  [ %i1 ]
   1b830:	13 00 00 00 	sethi  %hi(0), %o1
   1b834:	92 1a 7f f0 	xor  %o1, -16, %o1
   1b838:	7f ff dc ff 	call  12c34 <__GI_memcpy>
   1b83c:	92 05 c0 09 	add  %l7, %o1, %o1
   1b840:	13 00 00 81 	sethi  %hi(0x20400), %o1
   1b844:	94 10 00 08 	mov  %o0, %o2
   1b848:	92 1a 7e a4 	xor  %o1, -348, %o1
   1b84c:	90 10 00 1d 	mov  %i5, %o0
   1b850:	40 00 0d 0f 	call  1ec8c <__GI_fopencookie>
   1b854:	92 05 c0 09 	add  %l7, %o1, %o1
   1b858:	b0 92 20 00 	orcc  %o0, 0, %i0
   1b85c:	12 80 00 07 	bne  1b878 <__GI_open_memstream+0xac>
   1b860:	01 00 00 00 	nop 
   1b864:	7f ff e3 ce 	call  1479c <free>
   1b868:	d0 07 40 00 	ld  [ %i5 ], %o0
   1b86c:	90 10 00 1d 	mov  %i5, %o0
   1b870:	7f ff e3 cb 	call  1479c <free>
   1b874:	b0 10 20 00 	clr  %i0
   1b878:	81 c7 e0 08 	ret 
   1b87c:	81 e8 00 00 	restore 

0001b880 <__GI_vfprintf>:
   1b880:	9d e3 bf a0 	save  %sp, -96, %sp
   1b884:	2f 00 00 91 	sethi  %hi(0x24400), %l7
   1b888:	7f ff d3 e7 	call  10824 <__sparc_get_pc_thunk.l7>
   1b88c:	ae 05 e2 44 	add  %l7, 0x244, %l7	! 24644 <locale_mmap+0x3ee4>
   1b890:	f8 06 20 38 	ld  [ %i0 + 0x38 ], %i4
   1b894:	80 a7 20 00 	cmp  %i4, 0
   1b898:	12 80 00 21 	bne  1b91c <__GI_vfprintf+0x9c>
   1b89c:	ba 10 00 18 	mov  %i0, %i5
   1b8a0:	c2 06 20 44 	ld  [ %i0 + 0x44 ], %g1
   1b8a4:	80 a0 40 07 	cmp  %g1, %g7
   1b8a8:	02 80 00 1a 	be  1b910 <__GI_vfprintf+0x90>
   1b8ac:	b6 10 00 07 	mov  %g7, %i3
   1b8b0:	90 06 20 3c 	add  %i0, 0x3c, %o0
   1b8b4:	83 3a 20 02 	sra  %o0, 2, %g1
   1b8b8:	85 3a 20 0c 	sra  %o0, 0xc, %g2
   1b8bc:	82 18 40 02 	xor  %g1, %g2, %g1
   1b8c0:	82 08 60 3f 	and  %g1, 0x3f, %g1
   1b8c4:	05 00 00 00 	sethi  %hi(0), %g2
   1b8c8:	84 18 a3 ac 	xor  %g2, 0x3ac, %g2
   1b8cc:	84 05 c0 02 	add  %l7, %g2, %g2
   1b8d0:	c6 68 80 01 	ldstub  [ %g2 + %g1 ], %g3
   1b8d4:	80 a0 e0 00 	cmp  %g3, 0
   1b8d8:	32 bf ff fc 	bne,a   1b8c8 <__GI_vfprintf+0x48>
   1b8dc:	05 00 00 00 	sethi  %hi(0), %g2
   1b8e0:	c6 07 60 3c 	ld  [ %i5 + 0x3c ], %g3
   1b8e4:	80 a0 e0 00 	cmp  %g3, 0
   1b8e8:	12 80 00 03 	bne  1b8f4 <__GI_vfprintf+0x74>
   1b8ec:	88 10 20 01 	mov  1, %g4
   1b8f0:	c8 27 60 3c 	st  %g4, [ %i5 + 0x3c ]
   1b8f4:	c0 28 80 01 	clrb  [ %g2 + %g1 ]
   1b8f8:	80 a0 e0 00 	cmp  %g3, 0
   1b8fc:	22 80 00 05 	be,a   1b910 <__GI_vfprintf+0x90>
   1b900:	f6 27 60 44 	st  %i3, [ %i5 + 0x44 ]
   1b904:	7f ff ea 35 	call  161d8 <__lll_lock_wait_private>
   1b908:	01 00 00 00 	nop 
   1b90c:	f6 27 60 44 	st  %i3, [ %i5 + 0x44 ]
   1b910:	c2 07 60 40 	ld  [ %i5 + 0x40 ], %g1
   1b914:	82 00 60 01 	inc  %g1
   1b918:	c2 27 60 40 	st  %g1, [ %i5 + 0x40 ]
   1b91c:	c2 17 40 00 	lduh  [ %i5 ], %g1
   1b920:	82 08 60 c0 	and  %g1, 0xc0, %g1
   1b924:	80 a0 60 c0 	cmp  %g1, 0xc0
   1b928:	12 80 00 2b 	bne  1b9d4 <__GI_vfprintf+0x154>
   1b92c:	92 10 20 80 	mov  0x80, %o1
   1b930:	94 10 00 1a 	mov  %i2, %o2
   1b934:	92 10 00 19 	mov  %i1, %o1
   1b938:	7f ff d5 2d 	call  10dec <_vfprintf_internal>
   1b93c:	90 10 00 1d 	mov  %i5, %o0
   1b940:	b0 10 00 08 	mov  %o0, %i0
   1b944:	80 a7 20 00 	cmp  %i4, 0
   1b948:	12 80 00 21 	bne  1b9cc <__GI_vfprintf+0x14c>
   1b94c:	01 00 00 00 	nop 
   1b950:	c2 07 60 40 	ld  [ %i5 + 0x40 ], %g1
   1b954:	82 00 7f ff 	add  %g1, -1, %g1
   1b958:	80 a0 60 00 	cmp  %g1, 0
   1b95c:	12 80 00 1c 	bne  1b9cc <__GI_vfprintf+0x14c>
   1b960:	c2 27 60 40 	st  %g1, [ %i5 + 0x40 ]
   1b964:	90 07 60 3c 	add  %i5, 0x3c, %o0
   1b968:	c0 27 60 44 	clr  [ %i5 + 0x44 ]
   1b96c:	83 3a 20 02 	sra  %o0, 2, %g1
   1b970:	85 3a 20 0c 	sra  %o0, 0xc, %g2
   1b974:	82 18 40 02 	xor  %g1, %g2, %g1
   1b978:	82 08 60 3f 	and  %g1, 0x3f, %g1
   1b97c:	05 00 00 00 	sethi  %hi(0), %g2
   1b980:	84 18 a3 ac 	xor  %g2, 0x3ac, %g2
   1b984:	84 05 c0 02 	add  %l7, %g2, %g2
   1b988:	c6 68 80 01 	ldstub  [ %g2 + %g1 ], %g3
   1b98c:	80 a0 e0 00 	cmp  %g3, 0
   1b990:	32 bf ff fc 	bne,a   1b980 <__GI_vfprintf+0x100>
   1b994:	05 00 00 00 	sethi  %hi(0), %g2
   1b998:	c6 07 60 3c 	ld  [ %i5 + 0x3c ], %g3
   1b99c:	c0 28 80 01 	clrb  [ %g2 + %g1 ]
   1b9a0:	c0 27 60 3c 	clr  [ %i5 + 0x3c ]
   1b9a4:	80 a0 e0 01 	cmp  %g3, 1
   1b9a8:	04 80 00 09 	ble  1b9cc <__GI_vfprintf+0x14c>
   1b9ac:	82 10 20 8e 	mov  0x8e, %g1
   1b9b0:	96 10 20 00 	clr  %o3
   1b9b4:	94 10 20 01 	mov  1, %o2
   1b9b8:	92 10 20 81 	mov  0x81, %o1
   1b9bc:	91 d0 20 10 	ta  0x10
   1b9c0:	1a 80 00 03 	bcc  1b9cc <__GI_vfprintf+0x14c>
   1b9c4:	82 10 00 08 	mov  %o0, %g1
   1b9c8:	82 20 00 08 	neg  %o0, %g1
   1b9cc:	81 c7 e0 08 	ret 
   1b9d0:	81 e8 00 00 	restore 
   1b9d4:	7f ff fb bf 	call  1a8d0 <__stdio_trans2w_o>
   1b9d8:	90 10 00 1d 	mov  %i5, %o0
   1b9dc:	80 a2 20 00 	cmp  %o0, 0
   1b9e0:	02 bf ff d5 	be  1b934 <__GI_vfprintf+0xb4>
   1b9e4:	94 10 00 1a 	mov  %i2, %o2
   1b9e8:	10 bf ff d7 	b  1b944 <__GI_vfprintf+0xc4>
   1b9ec:	b0 10 3f ff 	mov  -1, %i0
   1b9f0:	80 a2 a0 00 	cmp  %o2, 0
   1b9f4:	02 80 00 47 	be  1bb10 <__GI_memchr+0xa0>
   1b9f8:	19 20 20 20 	sethi  %hi(0x80808000), %o4
   1b9fc:	c8 0a 00 00 	ldub  [ %o0 ], %g4
   1ba00:	80 a1 00 09 	cmp  %g4, %o1
   1ba04:	02 80 00 19 	be  1ba68 <__GI_vfprintf+0x1e8>
   1ba08:	90 02 20 01 	inc  %o0
   1ba0c:	94 a2 a0 01 	deccc  %o2
   1ba10:	02 80 00 40 	be  1bb10 <__GI_memchr+0xa0>
   1ba14:	80 8a 20 03 	btst  3, %o0
   1ba18:	02 80 00 1f 	be  1ba94 <__GI_memchr+0x24>
   1ba1c:	96 13 20 80 	or  %o4, 0x80, %o3
   1ba20:	c8 0a 00 00 	ldub  [ %o0 ], %g4
   1ba24:	80 a1 00 09 	cmp  %g4, %o1
   1ba28:	02 80 00 10 	be  1ba68 <__GI_vfprintf+0x1e8>
   1ba2c:	90 02 20 01 	inc  %o0
   1ba30:	94 a2 a0 01 	deccc  %o2
   1ba34:	02 80 00 37 	be  1bb10 <__GI_memchr+0xa0>
   1ba38:	80 8a 20 03 	btst  3, %o0
   1ba3c:	02 80 00 17 	be  1ba98 <__GI_memchr+0x28>
   1ba40:	1b 00 40 40 	sethi  %hi(0x1010000), %o5
   1ba44:	c8 0a 00 00 	ldub  [ %o0 ], %g4
   1ba48:	80 a1 00 09 	cmp  %g4, %o1
   1ba4c:	02 80 00 07 	be  1ba68 <__GI_vfprintf+0x1e8>
   1ba50:	90 02 20 01 	inc  %o0
   1ba54:	94 a2 a0 01 	deccc  %o2
   1ba58:	32 80 00 11 	bne,a   1ba9c <__GI_memchr+0x2c>
   1ba5c:	82 0a a0 03 	and  %o2, 3, %g1
   1ba60:	81 c3 e0 08 	retl 
   1ba64:	90 10 00 00 	mov  %g0, %o0
   1ba68:	81 c3 e0 08 	retl 
   1ba6c:	90 22 20 01 	dec  %o0

0001ba70 <__GI_memchr>:
   1ba70:	92 8a 60 ff 	andcc  %o1, 0xff, %o1
   1ba74:	8d 2a 60 08 	sll  %o1, 8, %g6
   1ba78:	80 8a 20 03 	btst  3, %o0
   1ba7c:	8c 12 40 06 	or  %o1, %g6, %g6
   1ba80:	97 29 a0 10 	sll  %g6, 0x10, %o3
   1ba84:	12 bf ff db 	bne  1b9f0 <__GI_vfprintf+0x170>
   1ba88:	84 12 c0 06 	or  %o3, %g6, %g2
   1ba8c:	19 20 20 20 	sethi  %hi(0x80808000), %o4
   1ba90:	96 13 20 80 	or  %o4, 0x80, %o3	! 80808080 <_end+0x807c48e0>
   1ba94:	1b 00 40 40 	sethi  %hi(0x1010000), %o5
   1ba98:	82 0a a0 03 	and  %o2, 3, %g1
   1ba9c:	94 8a bf fc 	andcc  %o2, -4, %o2
   1baa0:	02 80 00 0b 	be  1bacc <__GI_memchr+0x5c>
   1baa4:	8c 13 61 01 	or  %o5, 0x101, %g6
   1baa8:	c8 02 00 00 	ld  [ %o0 ], %g4
   1baac:	8a 19 00 02 	xor  %g4, %g2, %g5
   1bab0:	90 02 20 04 	add  %o0, 4, %o0
   1bab4:	8a 21 40 06 	sub  %g5, %g6, %g5
   1bab8:	80 89 40 0b 	btst  %g5, %o3
   1babc:	12 80 00 17 	bne  1bb18 <__GI_memchr+0xa8>
   1bac0:	94 a2 a0 04 	subcc  %o2, 4, %o2
   1bac4:	32 bf ff fa 	bne,a   1baac <__GI_memchr+0x3c>
   1bac8:	c8 02 00 00 	ld  [ %o0 ], %g4
   1bacc:	80 a0 60 00 	cmp  %g1, 0
   1bad0:	02 80 00 10 	be  1bb10 <__GI_memchr+0xa0>
   1bad4:	90 02 20 04 	add  %o0, 4, %o0
   1bad8:	c8 0a 3f fc 	ldub  [ %o0 + -4 ], %g4
   1badc:	80 a1 00 09 	cmp  %g4, %o1
   1bae0:	02 80 00 28 	be  1bb80 <__GI_memchr+0x110>
   1bae4:	80 a0 60 01 	cmp  %g1, 1
   1bae8:	02 80 00 0a 	be  1bb10 <__GI_memchr+0xa0>
   1baec:	c8 0a 3f fd 	ldub  [ %o0 + -3 ], %g4
   1baf0:	80 a1 00 09 	cmp  %g4, %o1
   1baf4:	02 80 00 21 	be  1bb78 <__GI_memchr+0x108>
   1baf8:	80 a0 60 02 	cmp  %g1, 2
   1bafc:	02 80 00 05 	be  1bb10 <__GI_memchr+0xa0>
   1bb00:	c8 0a 3f fe 	ldub  [ %o0 + -2 ], %g4
   1bb04:	80 a1 00 09 	cmp  %g4, %o1
   1bb08:	02 80 00 1a 	be  1bb70 <__GI_memchr+0x100>
   1bb0c:	01 00 00 00 	nop 
   1bb10:	81 c3 e0 08 	retl 
   1bb14:	90 10 00 00 	mov  %g0, %o0
   1bb18:	8b 31 20 18 	srl  %g4, 0x18, %g5
   1bb1c:	8a 09 60 ff 	and  %g5, 0xff, %g5
   1bb20:	80 a1 40 09 	cmp  %g5, %o1
   1bb24:	02 80 00 17 	be  1bb80 <__GI_memchr+0x110>
   1bb28:	8b 31 20 10 	srl  %g4, 0x10, %g5
   1bb2c:	8a 09 60 ff 	and  %g5, 0xff, %g5
   1bb30:	80 a1 40 09 	cmp  %g5, %o1
   1bb34:	02 80 00 11 	be  1bb78 <__GI_memchr+0x108>
   1bb38:	8b 31 20 08 	srl  %g4, 8, %g5
   1bb3c:	8a 09 60 ff 	and  %g5, 0xff, %g5
   1bb40:	80 a1 40 09 	cmp  %g5, %o1
   1bb44:	02 80 00 0b 	be  1bb70 <__GI_memchr+0x100>
   1bb48:	8a 09 20 ff 	and  %g4, 0xff, %g5
   1bb4c:	80 a1 40 09 	cmp  %g5, %o1
   1bb50:	02 80 00 06 	be  1bb68 <__GI_memchr+0xf8>
   1bb54:	80 a2 a0 00 	cmp  %o2, 0
   1bb58:	32 bf ff d5 	bne,a   1baac <__GI_memchr+0x3c>
   1bb5c:	c8 02 00 00 	ld  [ %o0 ], %g4
   1bb60:	10 bf ff dc 	b  1bad0 <__GI_memchr+0x60>
   1bb64:	80 a0 60 00 	cmp  %g1, 0
   1bb68:	81 c3 e0 08 	retl 
   1bb6c:	90 22 20 01 	dec  %o0
   1bb70:	81 c3 e0 08 	retl 
   1bb74:	90 22 20 02 	sub  %o0, 2, %o0
   1bb78:	81 c3 e0 08 	retl 
   1bb7c:	90 22 20 03 	sub  %o0, 3, %o0
   1bb80:	81 c3 e0 08 	retl 
   1bb84:	90 22 20 04 	sub  %o0, 4, %o0
   1bb88:	80 a3 20 02 	cmp  %o4, 2
   1bb8c:	02 80 00 09 	be  1bbb0 <__GI_memchr+0x140>
   1bb90:	80 a3 20 03 	cmp  %o4, 3
   1bb94:	da 0a 40 00 	ldub  [ %o1 ], %o5
   1bb98:	92 02 60 01 	inc  %o1
   1bb9c:	da 2a 00 00 	stb  %o5, [ %o0 ]
   1bba0:	02 80 00 12 	be  1bbe8 <__GI_memchr+0x178>
   1bba4:	80 a3 60 00 	cmp  %o5, 0
   1bba8:	02 80 00 94 	be  1bdf8 <__GI_strcat+0x19c>
   1bbac:	90 02 20 01 	inc  %o0
   1bbb0:	da 12 40 00 	lduh  [ %o1 ], %o5
   1bbb4:	92 02 60 02 	add  %o1, 2, %o1
   1bbb8:	99 33 60 08 	srl  %o5, 8, %o4
   1bbbc:	80 a3 20 00 	cmp  %o4, 0
   1bbc0:	d8 2a 00 00 	stb  %o4, [ %o0 ]
   1bbc4:	32 80 00 04 	bne,a   1bbd4 <__GI_memchr+0x164>
   1bbc8:	da 2a 20 01 	stb  %o5, [ %o0 + 1 ]
   1bbcc:	81 c3 e0 08 	retl 
   1bbd0:	90 10 00 02 	mov  %g2, %o0
   1bbd4:	9a 8b 60 ff 	andcc  %o5, 0xff, %o5
   1bbd8:	12 80 00 40 	bne  1bcd8 <__GI_strcat+0x7c>
   1bbdc:	90 02 20 02 	add  %o0, 2, %o0
   1bbe0:	81 c3 e0 08 	retl 
   1bbe4:	90 10 00 02 	mov  %g2, %o0
   1bbe8:	12 80 00 3c 	bne  1bcd8 <__GI_strcat+0x7c>
   1bbec:	90 02 20 01 	inc  %o0
   1bbf0:	81 c3 e0 08 	retl 
   1bbf4:	90 10 00 02 	mov  %g2, %o0
   1bbf8:	da 0a 00 00 	ldub  [ %o0 ], %o5
   1bbfc:	80 a3 60 00 	cmp  %o5, 0
   1bc00:	02 80 00 12 	be  1bc48 <__GI_memchr+0x1d8>
   1bc04:	90 02 20 01 	inc  %o0
   1bc08:	80 8a 20 03 	btst  3, %o0
   1bc0c:	02 80 00 19 	be  1bc70 <__GI_strcat+0x14>
   1bc10:	96 13 20 80 	or  %o4, 0x80, %o3
   1bc14:	da 0a 00 00 	ldub  [ %o0 ], %o5
   1bc18:	80 a3 60 00 	cmp  %o5, 0
   1bc1c:	02 80 00 0c 	be  1bc4c <__GI_memchr+0x1dc>
   1bc20:	90 02 20 01 	inc  %o0
   1bc24:	80 8a 20 03 	btst  3, %o0
   1bc28:	02 80 00 13 	be  1bc74 <__GI_strcat+0x18>
   1bc2c:	19 00 40 40 	sethi  %hi(0x1010000), %o4
   1bc30:	da 0a 00 00 	ldub  [ %o0 ], %o5
   1bc34:	80 a3 60 00 	cmp  %o5, 0
   1bc38:	02 80 00 06 	be  1bc50 <__GI_memchr+0x1e0>
   1bc3c:	90 02 20 01 	inc  %o0
   1bc40:	10 80 00 0e 	b  1bc78 <__GI_strcat+0x1c>
   1bc44:	94 13 21 01 	or  %o4, 0x101, %o2
   1bc48:	96 13 20 80 	or  %o4, 0x80, %o3
   1bc4c:	19 00 40 40 	sethi  %hi(0x1010000), %o4
   1bc50:	94 13 21 01 	or  %o4, 0x101, %o2	! 1010101 <_end+0xfcc961>
   1bc54:	10 80 00 1f 	b  1bcd0 <__GI_strcat+0x74>
   1bc58:	90 22 20 01 	dec  %o0

0001bc5c <__GI_strcat>:
   1bc5c:	84 10 00 08 	mov  %o0, %g2
   1bc60:	80 8a 20 03 	btst  3, %o0
   1bc64:	12 bf ff e5 	bne  1bbf8 <__GI_memchr+0x188>
   1bc68:	19 20 20 20 	sethi  %hi(0x80808000), %o4
   1bc6c:	96 13 20 80 	or  %o4, 0x80, %o3	! 80808080 <_end+0x807c48e0>
   1bc70:	19 00 40 40 	sethi  %hi(0x1010000), %o4
   1bc74:	94 13 21 01 	or  %o4, 0x101, %o2	! 1010101 <_end+0xfcc961>
   1bc78:	da 02 00 00 	ld  [ %o0 ], %o5
   1bc7c:	98 23 40 0a 	sub  %o5, %o2, %o4
   1bc80:	80 8b 00 0b 	btst  %o4, %o3
   1bc84:	02 bf ff fd 	be  1bc78 <__GI_strcat+0x1c>
   1bc88:	90 02 20 04 	add  %o0, 4, %o0
   1bc8c:	8b 33 60 18 	srl  %o5, 0x18, %g5
   1bc90:	80 89 60 ff 	btst  0xff, %g5
   1bc94:	02 80 00 0f 	be  1bcd0 <__GI_strcat+0x74>
   1bc98:	90 02 3f fc 	add  %o0, -4, %o0
   1bc9c:	8b 33 60 10 	srl  %o5, 0x10, %g5
   1bca0:	80 89 60 ff 	btst  0xff, %g5
   1bca4:	02 80 00 0b 	be  1bcd0 <__GI_strcat+0x74>
   1bca8:	90 02 20 01 	inc  %o0
   1bcac:	8b 33 60 08 	srl  %o5, 8, %g5
   1bcb0:	80 89 60 ff 	btst  0xff, %g5
   1bcb4:	02 80 00 07 	be  1bcd0 <__GI_strcat+0x74>
   1bcb8:	90 02 20 01 	inc  %o0
   1bcbc:	80 8b 60 ff 	btst  0xff, %o5
   1bcc0:	90 02 20 02 	add  %o0, 2, %o0
   1bcc4:	32 bf ff ee 	bne,a   1bc7c <__GI_strcat+0x20>
   1bcc8:	da 02 00 00 	ld  [ %o0 ], %o5
   1bccc:	90 22 20 01 	dec  %o0
   1bcd0:	98 8a 60 03 	andcc  %o1, 3, %o4
   1bcd4:	12 bf ff ad 	bne  1bb88 <__GI_memchr+0x118>
   1bcd8:	86 8a 20 03 	andcc  %o0, 3, %g3
   1bcdc:	12 80 00 22 	bne  1bd64 <__GI_strcat+0x108>
   1bce0:	da 02 40 00 	ld  [ %o1 ], %o5
   1bce4:	92 02 60 04 	add  %o1, 4, %o1
   1bce8:	98 23 40 0a 	sub  %o5, %o2, %o4
   1bcec:	90 02 20 04 	add  %o0, 4, %o0
   1bcf0:	80 8b 00 0b 	btst  %o4, %o3
   1bcf4:	22 bf ff fb 	be,a   1bce0 <__GI_strcat+0x84>
   1bcf8:	da 22 3f fc 	st  %o5, [ %o0 + -4 ]
   1bcfc:	8b 33 60 18 	srl  %o5, 0x18, %g5
   1bd00:	80 89 60 ff 	btst  0xff, %g5
   1bd04:	02 80 00 15 	be  1bd58 <__GI_strcat+0xfc>
   1bd08:	8b 33 60 10 	srl  %o5, 0x10, %g5
   1bd0c:	80 89 60 ff 	btst  0xff, %g5
   1bd10:	02 80 00 0e 	be  1bd48 <__GI_strcat+0xec>
   1bd14:	8b 33 60 08 	srl  %o5, 8, %g5
   1bd18:	80 89 60 ff 	btst  0xff, %g5
   1bd1c:	02 80 00 06 	be  1bd34 <__GI_strcat+0xd8>
   1bd20:	80 8b 60 ff 	btst  0xff, %o5
   1bd24:	12 bf ff ef 	bne  1bce0 <__GI_strcat+0x84>
   1bd28:	da 22 3f fc 	st  %o5, [ %o0 + -4 ]
   1bd2c:	81 c3 e0 08 	retl 
   1bd30:	90 10 00 02 	mov  %g2, %o0
   1bd34:	9b 33 60 10 	srl  %o5, 0x10, %o5
   1bd38:	da 32 3f fc 	sth  %o5, [ %o0 + -4 ]
   1bd3c:	c0 2a 3f fe 	clrb  [ %o0 + -2 ]
   1bd40:	81 c3 e0 08 	retl 
   1bd44:	90 10 00 02 	mov  %g2, %o0
   1bd48:	9b 33 60 10 	srl  %o5, 0x10, %o5
   1bd4c:	da 32 3f fc 	sth  %o5, [ %o0 + -4 ]
   1bd50:	81 c3 e0 08 	retl 
   1bd54:	90 10 00 02 	mov  %g2, %o0
   1bd58:	c0 2a 3f fc 	clrb  [ %o0 + -4 ]
   1bd5c:	81 c3 e0 08 	retl 
   1bd60:	90 10 00 02 	mov  %g2, %o0
   1bd64:	92 02 60 04 	add  %o1, 4, %o1
   1bd68:	98 23 40 0a 	sub  %o5, %o2, %o4
   1bd6c:	80 a0 e0 02 	cmp  %g3, 2
   1bd70:	02 80 00 3f 	be  1be6c <__GI_strcat+0x210>
   1bd74:	80 a0 e0 03 	cmp  %g3, 3
   1bd78:	02 80 00 6f 	be  1bf34 <__GI_strcat+0x2d8>
   1bd7c:	80 8b 00 0b 	btst  %o4, %o3
   1bd80:	12 80 00 29 	bne  1be24 <__GI_strcat+0x1c8>
   1bd84:	8b 33 60 18 	srl  %o5, 0x18, %g5
   1bd88:	ca 2a 00 00 	stb  %g5, [ %o0 ]
   1bd8c:	90 22 20 01 	dec  %o0
   1bd90:	8b 33 60 08 	srl  %o5, 8, %g5
   1bd94:	ca 32 20 02 	sth  %g5, [ %o0 + 2 ]
   1bd98:	90 02 20 04 	add  %o0, 4, %o0
   1bd9c:	8d 2b 60 18 	sll  %o5, 0x18, %g6
   1bda0:	da 02 40 00 	ld  [ %o1 ], %o5
   1bda4:	92 02 60 04 	add  %o1, 4, %o1
   1bda8:	8b 33 60 08 	srl  %o5, 8, %g5
   1bdac:	98 23 40 0a 	sub  %o5, %o2, %o4
   1bdb0:	8a 11 40 06 	or  %g5, %g6, %g5
   1bdb4:	80 8b 00 0b 	btst  %o4, %o3
   1bdb8:	22 bf ff f8 	be,a   1bd98 <__GI_strcat+0x13c>
   1bdbc:	ca 22 00 00 	st  %g5, [ %o0 ]
   1bdc0:	99 33 60 18 	srl  %o5, 0x18, %o4
   1bdc4:	80 8b 20 ff 	btst  0xff, %o4
   1bdc8:	02 80 00 0e 	be  1be00 <__GI_strcat+0x1a4>
   1bdcc:	99 33 60 10 	srl  %o5, 0x10, %o4
   1bdd0:	80 8b 20 ff 	btst  0xff, %o4
   1bdd4:	02 80 00 0f 	be  1be10 <__GI_strcat+0x1b4>
   1bdd8:	99 33 60 08 	srl  %o5, 8, %o4
   1bddc:	ca 22 00 00 	st  %g5, [ %o0 ]
   1bde0:	80 8b 20 ff 	btst  0xff, %o4
   1bde4:	02 80 00 05 	be  1bdf8 <__GI_strcat+0x19c>
   1bde8:	80 8b 60 ff 	btst  0xff, %o5
   1bdec:	12 bf ff ec 	bne  1bd9c <__GI_strcat+0x140>
   1bdf0:	90 02 20 04 	add  %o0, 4, %o0
   1bdf4:	c0 2a 00 00 	clrb  [ %o0 ]
   1bdf8:	81 c3 e0 08 	retl 
   1bdfc:	90 10 00 02 	mov  %g2, %o0
   1be00:	8b 31 60 10 	srl  %g5, 0x10, %g5
   1be04:	ca 32 00 00 	sth  %g5, [ %o0 ]
   1be08:	81 c3 e0 08 	retl 
   1be0c:	90 10 00 02 	mov  %g2, %o0
   1be10:	8b 31 60 10 	srl  %g5, 0x10, %g5
   1be14:	ca 32 00 00 	sth  %g5, [ %o0 ]
   1be18:	c0 2a 20 02 	clrb  [ %o0 + 2 ]
   1be1c:	81 c3 e0 08 	retl 
   1be20:	90 10 00 02 	mov  %g2, %o0
   1be24:	88 89 60 ff 	andcc  %g5, 0xff, %g4
   1be28:	02 bf ff f3 	be  1bdf4 <__GI_strcat+0x198>
   1be2c:	8b 33 60 10 	srl  %o5, 0x10, %g5
   1be30:	80 89 60 ff 	btst  0xff, %g5
   1be34:	02 80 00 0a 	be  1be5c <__GI_strcat+0x200>
   1be38:	8b 33 60 08 	srl  %o5, 8, %g5
   1be3c:	80 89 60 ff 	btst  0xff, %g5
   1be40:	c8 2a 00 00 	stb  %g4, [ %o0 ]
   1be44:	ca 32 20 01 	sth  %g5, [ %o0 + 1 ]
   1be48:	90 22 20 01 	dec  %o0
   1be4c:	12 bf ff e8 	bne  1bdec <__GI_strcat+0x190>
   1be50:	80 8b 60 ff 	btst  0xff, %o5
   1be54:	81 c3 e0 08 	retl 
   1be58:	90 10 00 02 	mov  %g2, %o0
   1be5c:	c8 2a 00 00 	stb  %g4, [ %o0 ]
   1be60:	c0 2a 20 01 	clrb  [ %o0 + 1 ]
   1be64:	81 c3 e0 08 	retl 
   1be68:	90 10 00 02 	mov  %g2, %o0
   1be6c:	80 8b 00 0b 	btst  %o4, %o3
   1be70:	12 80 00 26 	bne  1bf08 <__GI_strcat+0x2ac>
   1be74:	8b 33 60 10 	srl  %o5, 0x10, %g5
   1be78:	ca 32 00 00 	sth  %g5, [ %o0 ]
   1be7c:	90 22 20 02 	sub  %o0, 2, %o0
   1be80:	90 02 20 04 	add  %o0, 4, %o0
   1be84:	8d 2b 60 10 	sll  %o5, 0x10, %g6
   1be88:	da 02 40 00 	ld  [ %o1 ], %o5
   1be8c:	92 02 60 04 	add  %o1, 4, %o1
   1be90:	8b 33 60 10 	srl  %o5, 0x10, %g5
   1be94:	98 23 40 0a 	sub  %o5, %o2, %o4
   1be98:	8a 11 40 06 	or  %g5, %g6, %g5
   1be9c:	80 8b 00 0b 	btst  %o4, %o3
   1bea0:	22 bf ff f8 	be,a   1be80 <__GI_strcat+0x224>
   1bea4:	ca 22 00 00 	st  %g5, [ %o0 ]
   1bea8:	99 33 60 18 	srl  %o5, 0x18, %o4
   1beac:	80 8b 20 ff 	btst  0xff, %o4
   1beb0:	02 80 00 0e 	be  1bee8 <__GI_strcat+0x28c>
   1beb4:	99 33 60 10 	srl  %o5, 0x10, %o4
   1beb8:	ca 22 00 00 	st  %g5, [ %o0 ]
   1bebc:	80 8b 20 ff 	btst  0xff, %o4
   1bec0:	02 bf ff ce 	be  1bdf8 <__GI_strcat+0x19c>
   1bec4:	99 33 60 08 	srl  %o5, 8, %o4
   1bec8:	80 8b 20 ff 	btst  0xff, %o4
   1becc:	02 80 00 0c 	be  1befc <__GI_strcat+0x2a0>
   1bed0:	80 8b 60 ff 	btst  0xff, %o5
   1bed4:	12 bf ff ec 	bne  1be84 <__GI_strcat+0x228>
   1bed8:	90 02 20 04 	add  %o0, 4, %o0
   1bedc:	da 32 00 00 	sth  %o5, [ %o0 ]
   1bee0:	81 c3 e0 08 	retl 
   1bee4:	90 10 00 02 	mov  %g2, %o0
   1bee8:	8b 31 60 10 	srl  %g5, 0x10, %g5
   1beec:	ca 32 00 00 	sth  %g5, [ %o0 ]
   1bef0:	c0 2a 20 02 	clrb  [ %o0 + 2 ]
   1bef4:	81 c3 e0 08 	retl 
   1bef8:	90 10 00 02 	mov  %g2, %o0
   1befc:	c0 2a 20 04 	clrb  [ %o0 + 4 ]
   1bf00:	81 c3 e0 08 	retl 
   1bf04:	90 10 00 02 	mov  %g2, %o0
   1bf08:	8b 33 60 18 	srl  %o5, 0x18, %g5
   1bf0c:	80 89 60 ff 	btst  0xff, %g5
   1bf10:	02 bf ff b9 	be  1bdf4 <__GI_strcat+0x198>
   1bf14:	8b 33 60 10 	srl  %o5, 0x10, %g5
   1bf18:	80 89 60 ff 	btst  0xff, %g5
   1bf1c:	ca 32 00 00 	sth  %g5, [ %o0 ]
   1bf20:	90 22 20 02 	sub  %o0, 2, %o0
   1bf24:	12 bf ff e9 	bne  1bec8 <__GI_strcat+0x26c>
   1bf28:	99 33 60 08 	srl  %o5, 8, %o4
   1bf2c:	81 c3 e0 08 	retl 
   1bf30:	90 10 00 02 	mov  %g2, %o0
   1bf34:	12 80 00 23 	bne  1bfc0 <__GI_strcat+0x364>
   1bf38:	8b 33 60 18 	srl  %o5, 0x18, %g5
   1bf3c:	ca 2a 00 00 	stb  %g5, [ %o0 ]
   1bf40:	90 22 20 03 	sub  %o0, 3, %o0
   1bf44:	90 02 20 04 	add  %o0, 4, %o0
   1bf48:	8d 2b 60 08 	sll  %o5, 8, %g6
   1bf4c:	da 02 40 00 	ld  [ %o1 ], %o5
   1bf50:	92 02 60 04 	add  %o1, 4, %o1
   1bf54:	8b 33 60 18 	srl  %o5, 0x18, %g5
   1bf58:	98 23 40 0a 	sub  %o5, %o2, %o4
   1bf5c:	8a 11 40 06 	or  %g5, %g6, %g5
   1bf60:	80 8b 00 0b 	btst  %o4, %o3
   1bf64:	02 bf ff f8 	be  1bf44 <__GI_strcat+0x2e8>
   1bf68:	ca 22 00 00 	st  %g5, [ %o0 ]
   1bf6c:	99 33 60 18 	srl  %o5, 0x18, %o4
   1bf70:	80 8b 20 ff 	btst  0xff, %o4
   1bf74:	02 bf ff a1 	be  1bdf8 <__GI_strcat+0x19c>
   1bf78:	99 33 60 10 	srl  %o5, 0x10, %o4
   1bf7c:	80 8b 20 ff 	btst  0xff, %o4
   1bf80:	02 bf ff df 	be  1befc <__GI_strcat+0x2a0>
   1bf84:	99 33 60 08 	srl  %o5, 8, %o4
   1bf88:	80 8b 20 ff 	btst  0xff, %o4
   1bf8c:	02 80 00 09 	be  1bfb0 <__GI_strcat+0x354>
   1bf90:	80 8b 60 ff 	btst  0xff, %o5
   1bf94:	12 bf ff ed 	bne  1bf48 <__GI_strcat+0x2ec>
   1bf98:	90 02 20 04 	add  %o0, 4, %o0
   1bf9c:	9b 33 60 08 	srl  %o5, 8, %o5
   1bfa0:	da 32 00 00 	sth  %o5, [ %o0 ]
   1bfa4:	c0 2a 20 02 	clrb  [ %o0 + 2 ]
   1bfa8:	81 c3 e0 08 	retl 
   1bfac:	90 10 00 02 	mov  %g2, %o0
   1bfb0:	9b 33 60 08 	srl  %o5, 8, %o5
   1bfb4:	da 32 20 04 	sth  %o5, [ %o0 + 4 ]
   1bfb8:	81 c3 e0 08 	retl 
   1bfbc:	90 10 00 02 	mov  %g2, %o0
   1bfc0:	80 89 60 ff 	btst  0xff, %g5
   1bfc4:	ca 2a 00 00 	stb  %g5, [ %o0 ]
   1bfc8:	90 22 20 03 	sub  %o0, 3, %o0
   1bfcc:	12 bf ff ec 	bne  1bf7c <__GI_strcat+0x320>
   1bfd0:	99 33 60 10 	srl  %o5, 0x10, %o4
   1bfd4:	81 c3 e0 08 	retl 
   1bfd8:	90 10 00 02 	mov  %g2, %o0
   1bfdc:	c8 0a 00 00 	ldub  [ %o0 ], %g4
   1bfe0:	80 a1 00 09 	cmp  %g4, %o1
   1bfe4:	02 80 00 19 	be  1c048 <__GI_strcat+0x3ec>
   1bfe8:	90 02 20 01 	inc  %o0
   1bfec:	80 a1 20 00 	cmp  %g4, 0
   1bff0:	02 80 00 48 	be  1c110 <__GI_strchr+0xc0>
   1bff4:	80 8a 20 03 	btst  3, %o0
   1bff8:	02 80 00 20 	be  1c078 <__GI_strchr+0x28>
   1bffc:	96 13 20 80 	or  %o4, 0x80, %o3
   1c000:	c8 0a 00 00 	ldub  [ %o0 ], %g4
   1c004:	80 a1 00 09 	cmp  %g4, %o1
   1c008:	02 80 00 10 	be  1c048 <__GI_strcat+0x3ec>
   1c00c:	90 02 20 01 	inc  %o0
   1c010:	80 a1 20 00 	cmp  %g4, 0
   1c014:	02 80 00 3f 	be  1c110 <__GI_strchr+0xc0>
   1c018:	80 8a 20 03 	btst  3, %o0
   1c01c:	02 80 00 18 	be  1c07c <__GI_strchr+0x2c>
   1c020:	1b 00 40 40 	sethi  %hi(0x1010000), %o5
   1c024:	c8 0a 00 00 	ldub  [ %o0 ], %g4
   1c028:	80 a1 00 09 	cmp  %g4, %o1
   1c02c:	02 80 00 07 	be  1c048 <__GI_strcat+0x3ec>
   1c030:	90 02 20 01 	inc  %o0
   1c034:	80 a1 20 00 	cmp  %g4, 0
   1c038:	02 80 00 36 	be  1c110 <__GI_strchr+0xc0>
   1c03c:	94 13 61 01 	or  %o5, 0x101, %o2
   1c040:	10 80 00 11 	b  1c084 <__GI_strchr+0x34>
   1c044:	c8 02 00 00 	ld  [ %o0 ], %g4
   1c048:	81 c3 e0 08 	retl 
   1c04c:	90 22 20 01 	dec  %o0

0001c050 <__GI_strchr>:
   1c050:	92 8a 60 ff 	andcc  %o1, 0xff, %o1
   1c054:	02 80 00 47 	be  1c170 <__GI_strchr+0x120>
   1c058:	95 2a 60 08 	sll  %o1, 8, %o2
   1c05c:	80 8a 20 03 	btst  3, %o0
   1c060:	94 12 40 0a 	or  %o1, %o2, %o2
   1c064:	19 20 20 20 	sethi  %hi(0x80808000), %o4
   1c068:	97 2a a0 10 	sll  %o2, 0x10, %o3
   1c06c:	12 bf ff dc 	bne  1bfdc <__GI_strcat+0x380>
   1c070:	84 12 c0 0a 	or  %o3, %o2, %g2
   1c074:	96 13 20 80 	or  %o4, 0x80, %o3
   1c078:	1b 00 40 40 	sethi  %hi(0x1010000), %o5
   1c07c:	94 13 61 01 	or  %o5, 0x101, %o2	! 1010101 <_end+0xfcc961>
   1c080:	c8 02 00 00 	ld  [ %o0 ], %g4
   1c084:	8a 19 00 02 	xor  %g4, %g2, %g5
   1c088:	98 21 00 0a 	sub  %g4, %o2, %o4
   1c08c:	8a 21 40 0a 	sub  %g5, %o2, %g5
   1c090:	98 11 40 0c 	or  %g5, %o4, %o4
   1c094:	80 8b 00 0b 	btst  %o4, %o3
   1c098:	02 bf ff fa 	be  1c080 <__GI_strchr+0x30>
   1c09c:	90 02 20 04 	add  %o0, 4, %o0
   1c0a0:	8b 31 20 18 	srl  %g4, 0x18, %g5
   1c0a4:	8a 89 60 ff 	andcc  %g5, 0xff, %g5
   1c0a8:	02 80 00 1a 	be  1c110 <__GI_strchr+0xc0>
   1c0ac:	80 a1 40 09 	cmp  %g5, %o1
   1c0b0:	02 80 00 16 	be  1c108 <__GI_strchr+0xb8>
   1c0b4:	8b 31 20 10 	srl  %g4, 0x10, %g5
   1c0b8:	8a 89 60 ff 	andcc  %g5, 0xff, %g5
   1c0bc:	02 80 00 15 	be  1c110 <__GI_strchr+0xc0>
   1c0c0:	80 a1 40 09 	cmp  %g5, %o1
   1c0c4:	02 80 00 0f 	be  1c100 <__GI_strchr+0xb0>
   1c0c8:	8b 31 20 08 	srl  %g4, 8, %g5
   1c0cc:	8a 89 60 ff 	andcc  %g5, 0xff, %g5
   1c0d0:	02 80 00 10 	be  1c110 <__GI_strchr+0xc0>
   1c0d4:	80 a1 40 09 	cmp  %g5, %o1
   1c0d8:	02 80 00 08 	be  1c0f8 <__GI_strchr+0xa8>
   1c0dc:	8a 89 20 ff 	andcc  %g4, 0xff, %g5
   1c0e0:	02 80 00 0c 	be  1c110 <__GI_strchr+0xc0>
   1c0e4:	80 a1 40 09 	cmp  %g5, %o1
   1c0e8:	32 bf ff e7 	bne,a   1c084 <__GI_strchr+0x34>
   1c0ec:	c8 02 00 00 	ld  [ %o0 ], %g4
   1c0f0:	81 c3 e0 08 	retl 
   1c0f4:	90 22 20 01 	dec  %o0
   1c0f8:	81 c3 e0 08 	retl 
   1c0fc:	90 22 20 02 	sub  %o0, 2, %o0
   1c100:	81 c3 e0 08 	retl 
   1c104:	90 22 20 03 	sub  %o0, 3, %o0
   1c108:	81 c3 e0 08 	retl 
   1c10c:	90 22 20 04 	sub  %o0, 4, %o0
   1c110:	81 c3 e0 08 	retl 
   1c114:	90 10 00 00 	mov  %g0, %o0
   1c118:	da 0a 00 00 	ldub  [ %o0 ], %o5
   1c11c:	80 a3 60 00 	cmp  %o5, 0
   1c120:	02 80 00 12 	be  1c168 <__GI_strchr+0x118>
   1c124:	90 02 20 01 	inc  %o0
   1c128:	80 8a 20 03 	btst  3, %o0
   1c12c:	02 80 00 15 	be  1c180 <__GI_strchr+0x130>
   1c130:	96 13 20 80 	or  %o4, 0x80, %o3
   1c134:	da 0a 00 00 	ldub  [ %o0 ], %o5
   1c138:	80 a3 60 00 	cmp  %o5, 0
   1c13c:	02 80 00 0b 	be  1c168 <__GI_strchr+0x118>
   1c140:	90 02 20 01 	inc  %o0
   1c144:	80 8a 20 03 	btst  3, %o0
   1c148:	02 80 00 0f 	be  1c184 <__GI_strchr+0x134>
   1c14c:	19 00 40 40 	sethi  %hi(0x1010000), %o4
   1c150:	da 0a 00 00 	ldub  [ %o0 ], %o5
   1c154:	80 a3 60 00 	cmp  %o5, 0
   1c158:	02 80 00 04 	be  1c168 <__GI_strchr+0x118>
   1c15c:	90 02 20 01 	inc  %o0
   1c160:	10 80 00 0a 	b  1c188 <__GI_strchr+0x138>
   1c164:	94 13 21 01 	or  %o4, 0x101, %o2
   1c168:	81 c3 e0 08 	retl 
   1c16c:	90 22 20 01 	dec  %o0
   1c170:	80 8a 20 03 	btst  3, %o0
   1c174:	12 bf ff e9 	bne  1c118 <__GI_strchr+0xc8>
   1c178:	19 20 20 20 	sethi  %hi(0x80808000), %o4
   1c17c:	96 13 20 80 	or  %o4, 0x80, %o3	! 80808080 <_end+0x807c48e0>
   1c180:	19 00 40 40 	sethi  %hi(0x1010000), %o4
   1c184:	94 13 21 01 	or  %o4, 0x101, %o2	! 1010101 <_end+0xfcc961>
   1c188:	da 02 00 00 	ld  [ %o0 ], %o5
   1c18c:	98 23 40 0a 	sub  %o5, %o2, %o4
   1c190:	80 8b 00 0b 	btst  %o4, %o3
   1c194:	02 bf ff fd 	be  1c188 <__GI_strchr+0x138>
   1c198:	90 02 20 04 	add  %o0, 4, %o0
   1c19c:	8b 33 60 18 	srl  %o5, 0x18, %g5
   1c1a0:	80 89 60 ff 	btst  0xff, %g5
   1c1a4:	02 80 00 0e 	be  1c1dc <__GI_strchr+0x18c>
   1c1a8:	98 02 3f fc 	add  %o0, -4, %o4
   1c1ac:	8b 33 60 10 	srl  %o5, 0x10, %g5
   1c1b0:	80 89 60 ff 	btst  0xff, %g5
   1c1b4:	02 80 00 0a 	be  1c1dc <__GI_strchr+0x18c>
   1c1b8:	98 03 20 01 	inc  %o4
   1c1bc:	8b 33 60 08 	srl  %o5, 8, %g5
   1c1c0:	80 89 60 ff 	btst  0xff, %g5
   1c1c4:	02 80 00 06 	be  1c1dc <__GI_strchr+0x18c>
   1c1c8:	98 03 20 01 	inc  %o4
   1c1cc:	80 8b 60 ff 	btst  0xff, %o5
   1c1d0:	32 bf ff ef 	bne,a   1c18c <__GI_strchr+0x13c>
   1c1d4:	da 02 00 00 	ld  [ %o0 ], %o5
   1c1d8:	98 03 20 01 	inc  %o4
   1c1dc:	81 c3 e0 08 	retl 
   1c1e0:	90 10 00 0c 	mov  %o4, %o0
   1c1e4:	c8 0a 00 00 	ldub  [ %o0 ], %g4
   1c1e8:	80 a1 00 09 	cmp  %g4, %o1
   1c1ec:	90 02 20 01 	inc  %o0
   1c1f0:	22 80 00 04 	be,a   1c200 <__GI_strchr+0x1b0>
   1c1f4:	9a 22 20 01 	sub  %o0, 1, %o5
   1c1f8:	80 a1 20 00 	cmp  %g4, 0
   1c1fc:	02 80 00 46 	be  1c314 <__GI_strrchr+0xb8>
   1c200:	80 8a 20 03 	btst  3, %o0
   1c204:	02 80 00 21 	be  1c288 <__GI_strrchr+0x2c>
   1c208:	96 13 20 80 	or  %o4, 0x80, %o3
   1c20c:	c8 0a 00 00 	ldub  [ %o0 ], %g4
   1c210:	80 a1 00 09 	cmp  %g4, %o1
   1c214:	90 02 20 01 	inc  %o0
   1c218:	22 80 00 04 	be,a   1c228 <__GI_strchr+0x1d8>
   1c21c:	9a 22 20 01 	sub  %o0, 1, %o5
   1c220:	80 a1 20 00 	cmp  %g4, 0
   1c224:	02 80 00 3c 	be  1c314 <__GI_strrchr+0xb8>
   1c228:	80 8a 20 03 	btst  3, %o0
   1c22c:	02 80 00 18 	be  1c28c <__GI_strrchr+0x30>
   1c230:	19 00 40 40 	sethi  %hi(0x1010000), %o4
   1c234:	c8 0a 00 00 	ldub  [ %o0 ], %g4
   1c238:	80 a1 00 09 	cmp  %g4, %o1
   1c23c:	90 02 20 01 	inc  %o0
   1c240:	22 80 00 04 	be,a   1c250 <__GI_strchr+0x200>
   1c244:	9a 22 20 01 	sub  %o0, 1, %o5
   1c248:	80 a1 20 00 	cmp  %g4, 0
   1c24c:	02 80 00 32 	be  1c314 <__GI_strrchr+0xb8>
   1c250:	94 13 21 01 	or  %o4, 0x101, %o2
   1c254:	10 80 00 10 	b  1c294 <__GI_strrchr+0x38>
   1c258:	c8 02 00 00 	ld  [ %o0 ], %g4

0001c25c <__GI_strrchr>:
   1c25c:	92 8a 60 ff 	andcc  %o1, 0xff, %o1
   1c260:	9a 10 00 00 	mov  %g0, %o5
   1c264:	02 bf ff c3 	be  1c170 <__GI_strchr+0x120>
   1c268:	95 2a 60 08 	sll  %o1, 8, %o2
   1c26c:	80 8a 20 03 	btst  3, %o0
   1c270:	94 12 40 0a 	or  %o1, %o2, %o2
   1c274:	19 20 20 20 	sethi  %hi(0x80808000), %o4
   1c278:	97 2a a0 10 	sll  %o2, 0x10, %o3
   1c27c:	12 bf ff da 	bne  1c1e4 <__GI_strchr+0x194>
   1c280:	84 12 c0 0a 	or  %o3, %o2, %g2
   1c284:	96 13 20 80 	or  %o4, 0x80, %o3
   1c288:	19 00 40 40 	sethi  %hi(0x1010000), %o4
   1c28c:	94 13 21 01 	or  %o4, 0x101, %o2	! 1010101 <_end+0xfcc961>
   1c290:	c8 02 00 00 	ld  [ %o0 ], %g4
   1c294:	8a 19 00 02 	xor  %g4, %g2, %g5
   1c298:	98 21 00 0a 	sub  %g4, %o2, %o4
   1c29c:	8a 21 40 0a 	sub  %g5, %o2, %g5
   1c2a0:	98 11 40 0c 	or  %g5, %o4, %o4
   1c2a4:	80 8b 00 0b 	btst  %o4, %o3
   1c2a8:	02 bf ff fa 	be  1c290 <__GI_strrchr+0x34>
   1c2ac:	90 02 20 04 	add  %o0, 4, %o0
   1c2b0:	8b 31 20 18 	srl  %g4, 0x18, %g5
   1c2b4:	8a 89 60 ff 	andcc  %g5, 0xff, %g5
   1c2b8:	02 80 00 17 	be  1c314 <__GI_strrchr+0xb8>
   1c2bc:	80 a1 40 09 	cmp  %g5, %o1
   1c2c0:	22 80 00 02 	be,a   1c2c8 <__GI_strrchr+0x6c>
   1c2c4:	9a 22 20 04 	sub  %o0, 4, %o5
   1c2c8:	8b 31 20 10 	srl  %g4, 0x10, %g5
   1c2cc:	8a 89 60 ff 	andcc  %g5, 0xff, %g5
   1c2d0:	02 80 00 11 	be  1c314 <__GI_strrchr+0xb8>
   1c2d4:	80 a1 40 09 	cmp  %g5, %o1
   1c2d8:	22 80 00 02 	be,a   1c2e0 <__GI_strrchr+0x84>
   1c2dc:	9a 22 20 03 	sub  %o0, 3, %o5
   1c2e0:	8b 31 20 08 	srl  %g4, 8, %g5
   1c2e4:	8a 89 60 ff 	andcc  %g5, 0xff, %g5
   1c2e8:	02 80 00 0b 	be  1c314 <__GI_strrchr+0xb8>
   1c2ec:	80 a1 40 09 	cmp  %g5, %o1
   1c2f0:	22 80 00 02 	be,a   1c2f8 <__GI_strrchr+0x9c>
   1c2f4:	9a 22 20 02 	sub  %o0, 2, %o5
   1c2f8:	8a 89 20 ff 	andcc  %g4, 0xff, %g5
   1c2fc:	02 80 00 06 	be  1c314 <__GI_strrchr+0xb8>
   1c300:	80 a1 40 09 	cmp  %g5, %o1
   1c304:	22 80 00 02 	be,a   1c30c <__GI_strrchr+0xb0>
   1c308:	9a 22 20 01 	sub  %o0, 1, %o5
   1c30c:	10 bf ff e2 	b  1c294 <__GI_strrchr+0x38>
   1c310:	c8 02 00 00 	ld  [ %o0 ], %g4
   1c314:	81 c3 e0 08 	retl 
   1c318:	90 10 00 0d 	mov  %o5, %o0
   1c31c:	da 0a 40 00 	ldub  [ %o1 ], %o5
   1c320:	da 2a 00 00 	stb  %o5, [ %o0 ]
   1c324:	80 a3 60 00 	cmp  %o5, 0
   1c328:	90 02 20 01 	inc  %o0
   1c32c:	02 80 00 66 	be  1c4c4 <__GI_strcpy+0x140>
   1c330:	92 02 60 01 	inc  %o1
   1c334:	80 8a 60 03 	btst  3, %o1
   1c338:	02 80 00 18 	be  1c398 <__GI_strcpy+0x14>
   1c33c:	96 13 20 80 	or  %o4, 0x80, %o3
   1c340:	da 0a 40 00 	ldub  [ %o1 ], %o5
   1c344:	da 2a 00 00 	stb  %o5, [ %o0 ]
   1c348:	80 a3 60 00 	cmp  %o5, 0
   1c34c:	90 02 20 01 	inc  %o0
   1c350:	02 80 00 5d 	be  1c4c4 <__GI_strcpy+0x140>
   1c354:	92 02 60 01 	inc  %o1
   1c358:	80 8a 60 03 	btst  3, %o1
   1c35c:	02 80 00 10 	be  1c39c <__GI_strcpy+0x18>
   1c360:	19 00 40 40 	sethi  %hi(0x1010000), %o4
   1c364:	da 0a 40 00 	ldub  [ %o1 ], %o5
   1c368:	da 2a 00 00 	stb  %o5, [ %o0 ]
   1c36c:	80 a3 60 00 	cmp  %o5, 0
   1c370:	90 02 20 01 	inc  %o0
   1c374:	02 80 00 54 	be  1c4c4 <__GI_strcpy+0x140>
   1c378:	92 02 60 01 	inc  %o1
   1c37c:	10 80 00 09 	b  1c3a0 <__GI_strcpy+0x1c>
   1c380:	86 8a 20 03 	andcc  %o0, 3, %g3

0001c384 <__GI_strcpy>:
   1c384:	84 10 00 08 	mov  %o0, %g2
   1c388:	80 8a 60 03 	btst  3, %o1
   1c38c:	12 bf ff e4 	bne  1c31c <__GI_strrchr+0xc0>
   1c390:	19 20 20 20 	sethi  %hi(0x80808000), %o4
   1c394:	96 13 20 80 	or  %o4, 0x80, %o3	! 80808080 <_end+0x807c48e0>
   1c398:	19 00 40 40 	sethi  %hi(0x1010000), %o4
   1c39c:	86 8a 20 03 	andcc  %o0, 3, %g3
   1c3a0:	12 80 00 23 	bne  1c42c <__GI_strcpy+0xa8>
   1c3a4:	94 13 21 01 	or  %o4, 0x101, %o2
   1c3a8:	da 02 40 00 	ld  [ %o1 ], %o5
   1c3ac:	92 02 60 04 	add  %o1, 4, %o1
   1c3b0:	98 23 40 0a 	sub  %o5, %o2, %o4
   1c3b4:	90 02 20 04 	add  %o0, 4, %o0
   1c3b8:	80 8b 00 0b 	btst  %o4, %o3
   1c3bc:	22 bf ff fb 	be,a   1c3a8 <__GI_strcpy+0x24>
   1c3c0:	da 22 3f fc 	st  %o5, [ %o0 + -4 ]
   1c3c4:	8b 33 60 18 	srl  %o5, 0x18, %g5
   1c3c8:	80 89 60 ff 	btst  0xff, %g5
   1c3cc:	02 80 00 15 	be  1c420 <__GI_strcpy+0x9c>
   1c3d0:	8b 33 60 10 	srl  %o5, 0x10, %g5
   1c3d4:	80 89 60 ff 	btst  0xff, %g5
   1c3d8:	02 80 00 0e 	be  1c410 <__GI_strcpy+0x8c>
   1c3dc:	8b 33 60 08 	srl  %o5, 8, %g5
   1c3e0:	80 89 60 ff 	btst  0xff, %g5
   1c3e4:	02 80 00 06 	be  1c3fc <__GI_strcpy+0x78>
   1c3e8:	80 8b 60 ff 	btst  0xff, %o5
   1c3ec:	12 bf ff ef 	bne  1c3a8 <__GI_strcpy+0x24>
   1c3f0:	da 22 3f fc 	st  %o5, [ %o0 + -4 ]
   1c3f4:	81 c3 e0 08 	retl 
   1c3f8:	90 10 00 02 	mov  %g2, %o0
   1c3fc:	9b 33 60 10 	srl  %o5, 0x10, %o5
   1c400:	da 32 3f fc 	sth  %o5, [ %o0 + -4 ]
   1c404:	c0 2a 3f fe 	clrb  [ %o0 + -2 ]
   1c408:	81 c3 e0 08 	retl 
   1c40c:	90 10 00 02 	mov  %g2, %o0
   1c410:	9b 33 60 10 	srl  %o5, 0x10, %o5
   1c414:	da 32 3f fc 	sth  %o5, [ %o0 + -4 ]
   1c418:	81 c3 e0 08 	retl 
   1c41c:	90 10 00 02 	mov  %g2, %o0
   1c420:	c0 2a 3f fc 	clrb  [ %o0 + -4 ]
   1c424:	81 c3 e0 08 	retl 
   1c428:	90 10 00 02 	mov  %g2, %o0
   1c42c:	da 02 40 00 	ld  [ %o1 ], %o5
   1c430:	92 02 60 04 	add  %o1, 4, %o1
   1c434:	98 23 40 0a 	sub  %o5, %o2, %o4
   1c438:	80 a0 e0 02 	cmp  %g3, 2
   1c43c:	02 80 00 3f 	be  1c538 <__GI_strcpy+0x1b4>
   1c440:	80 a0 e0 03 	cmp  %g3, 3
   1c444:	02 80 00 6f 	be  1c600 <__GI_strcpy+0x27c>
   1c448:	80 8b 00 0b 	btst  %o4, %o3
   1c44c:	12 80 00 29 	bne  1c4f0 <__GI_strcpy+0x16c>
   1c450:	8b 33 60 18 	srl  %o5, 0x18, %g5
   1c454:	ca 2a 00 00 	stb  %g5, [ %o0 ]
   1c458:	90 22 20 01 	dec  %o0
   1c45c:	8b 33 60 08 	srl  %o5, 8, %g5
   1c460:	ca 32 20 02 	sth  %g5, [ %o0 + 2 ]
   1c464:	90 02 20 04 	add  %o0, 4, %o0
   1c468:	8d 2b 60 18 	sll  %o5, 0x18, %g6
   1c46c:	da 02 40 00 	ld  [ %o1 ], %o5
   1c470:	92 02 60 04 	add  %o1, 4, %o1
   1c474:	8b 33 60 08 	srl  %o5, 8, %g5
   1c478:	98 23 40 0a 	sub  %o5, %o2, %o4
   1c47c:	8a 11 40 06 	or  %g5, %g6, %g5
   1c480:	80 8b 00 0b 	btst  %o4, %o3
   1c484:	22 bf ff f8 	be,a   1c464 <__GI_strcpy+0xe0>
   1c488:	ca 22 00 00 	st  %g5, [ %o0 ]
   1c48c:	99 33 60 18 	srl  %o5, 0x18, %o4
   1c490:	80 8b 20 ff 	btst  0xff, %o4
   1c494:	02 80 00 0e 	be  1c4cc <__GI_strcpy+0x148>
   1c498:	99 33 60 10 	srl  %o5, 0x10, %o4
   1c49c:	80 8b 20 ff 	btst  0xff, %o4
   1c4a0:	02 80 00 0f 	be  1c4dc <__GI_strcpy+0x158>
   1c4a4:	99 33 60 08 	srl  %o5, 8, %o4
   1c4a8:	ca 22 00 00 	st  %g5, [ %o0 ]
   1c4ac:	80 8b 20 ff 	btst  0xff, %o4
   1c4b0:	02 80 00 05 	be  1c4c4 <__GI_strcpy+0x140>
   1c4b4:	80 8b 60 ff 	btst  0xff, %o5
   1c4b8:	12 bf ff ec 	bne  1c468 <__GI_strcpy+0xe4>
   1c4bc:	90 02 20 04 	add  %o0, 4, %o0
   1c4c0:	c0 2a 00 00 	clrb  [ %o0 ]
   1c4c4:	81 c3 e0 08 	retl 
   1c4c8:	90 10 00 02 	mov  %g2, %o0
   1c4cc:	8b 31 60 10 	srl  %g5, 0x10, %g5
   1c4d0:	ca 32 00 00 	sth  %g5, [ %o0 ]
   1c4d4:	81 c3 e0 08 	retl 
   1c4d8:	90 10 00 02 	mov  %g2, %o0
   1c4dc:	8b 31 60 10 	srl  %g5, 0x10, %g5
   1c4e0:	ca 32 00 00 	sth  %g5, [ %o0 ]
   1c4e4:	c0 2a 20 02 	clrb  [ %o0 + 2 ]
   1c4e8:	81 c3 e0 08 	retl 
   1c4ec:	90 10 00 02 	mov  %g2, %o0
   1c4f0:	88 89 60 ff 	andcc  %g5, 0xff, %g4
   1c4f4:	02 bf ff f3 	be  1c4c0 <__GI_strcpy+0x13c>
   1c4f8:	8b 33 60 10 	srl  %o5, 0x10, %g5
   1c4fc:	80 89 60 ff 	btst  0xff, %g5
   1c500:	02 80 00 0a 	be  1c528 <__GI_strcpy+0x1a4>
   1c504:	8b 33 60 08 	srl  %o5, 8, %g5
   1c508:	80 89 60 ff 	btst  0xff, %g5
   1c50c:	c8 2a 00 00 	stb  %g4, [ %o0 ]
   1c510:	ca 32 20 01 	sth  %g5, [ %o0 + 1 ]
   1c514:	90 22 20 01 	dec  %o0
   1c518:	12 bf ff e8 	bne  1c4b8 <__GI_strcpy+0x134>
   1c51c:	80 8b 60 ff 	btst  0xff, %o5
   1c520:	81 c3 e0 08 	retl 
   1c524:	90 10 00 02 	mov  %g2, %o0
   1c528:	c8 2a 00 00 	stb  %g4, [ %o0 ]
   1c52c:	c0 2a 20 01 	clrb  [ %o0 + 1 ]
   1c530:	81 c3 e0 08 	retl 
   1c534:	90 10 00 02 	mov  %g2, %o0
   1c538:	80 8b 00 0b 	btst  %o4, %o3
   1c53c:	12 80 00 26 	bne  1c5d4 <__GI_strcpy+0x250>
   1c540:	8b 33 60 10 	srl  %o5, 0x10, %g5
   1c544:	ca 32 00 00 	sth  %g5, [ %o0 ]
   1c548:	90 22 20 02 	sub  %o0, 2, %o0
   1c54c:	90 02 20 04 	add  %o0, 4, %o0
   1c550:	8d 2b 60 10 	sll  %o5, 0x10, %g6
   1c554:	da 02 40 00 	ld  [ %o1 ], %o5
   1c558:	92 02 60 04 	add  %o1, 4, %o1
   1c55c:	8b 33 60 10 	srl  %o5, 0x10, %g5
   1c560:	98 23 40 0a 	sub  %o5, %o2, %o4
   1c564:	8a 11 40 06 	or  %g5, %g6, %g5
   1c568:	80 8b 00 0b 	btst  %o4, %o3
   1c56c:	22 bf ff f8 	be,a   1c54c <__GI_strcpy+0x1c8>
   1c570:	ca 22 00 00 	st  %g5, [ %o0 ]
   1c574:	99 33 60 18 	srl  %o5, 0x18, %o4
   1c578:	80 8b 20 ff 	btst  0xff, %o4
   1c57c:	02 80 00 0e 	be  1c5b4 <__GI_strcpy+0x230>
   1c580:	99 33 60 10 	srl  %o5, 0x10, %o4
   1c584:	ca 22 00 00 	st  %g5, [ %o0 ]
   1c588:	80 8b 20 ff 	btst  0xff, %o4
   1c58c:	02 bf ff ce 	be  1c4c4 <__GI_strcpy+0x140>
   1c590:	99 33 60 08 	srl  %o5, 8, %o4
   1c594:	80 8b 20 ff 	btst  0xff, %o4
   1c598:	02 80 00 0c 	be  1c5c8 <__GI_strcpy+0x244>
   1c59c:	80 8b 60 ff 	btst  0xff, %o5
   1c5a0:	12 bf ff ec 	bne  1c550 <__GI_strcpy+0x1cc>
   1c5a4:	90 02 20 04 	add  %o0, 4, %o0
   1c5a8:	da 32 00 00 	sth  %o5, [ %o0 ]
   1c5ac:	81 c3 e0 08 	retl 
   1c5b0:	90 10 00 02 	mov  %g2, %o0
   1c5b4:	8b 31 60 10 	srl  %g5, 0x10, %g5
   1c5b8:	ca 32 00 00 	sth  %g5, [ %o0 ]
   1c5bc:	c0 2a 20 02 	clrb  [ %o0 + 2 ]
   1c5c0:	81 c3 e0 08 	retl 
   1c5c4:	90 10 00 02 	mov  %g2, %o0
   1c5c8:	c0 2a 20 04 	clrb  [ %o0 + 4 ]
   1c5cc:	81 c3 e0 08 	retl 
   1c5d0:	90 10 00 02 	mov  %g2, %o0
   1c5d4:	8b 33 60 18 	srl  %o5, 0x18, %g5
   1c5d8:	80 89 60 ff 	btst  0xff, %g5
   1c5dc:	02 bf ff b9 	be  1c4c0 <__GI_strcpy+0x13c>
   1c5e0:	8b 33 60 10 	srl  %o5, 0x10, %g5
   1c5e4:	80 89 60 ff 	btst  0xff, %g5
   1c5e8:	ca 32 00 00 	sth  %g5, [ %o0 ]
   1c5ec:	90 22 20 02 	sub  %o0, 2, %o0
   1c5f0:	12 bf ff e9 	bne  1c594 <__GI_strcpy+0x210>
   1c5f4:	99 33 60 08 	srl  %o5, 8, %o4
   1c5f8:	81 c3 e0 08 	retl 
   1c5fc:	90 10 00 02 	mov  %g2, %o0
   1c600:	12 80 00 23 	bne  1c68c <__GI_strcpy+0x308>
   1c604:	8b 33 60 18 	srl  %o5, 0x18, %g5
   1c608:	ca 2a 00 00 	stb  %g5, [ %o0 ]
   1c60c:	90 22 20 03 	sub  %o0, 3, %o0
   1c610:	90 02 20 04 	add  %o0, 4, %o0
   1c614:	8d 2b 60 08 	sll  %o5, 8, %g6
   1c618:	da 02 40 00 	ld  [ %o1 ], %o5
   1c61c:	92 02 60 04 	add  %o1, 4, %o1
   1c620:	8b 33 60 18 	srl  %o5, 0x18, %g5
   1c624:	98 23 40 0a 	sub  %o5, %o2, %o4
   1c628:	8a 11 40 06 	or  %g5, %g6, %g5
   1c62c:	80 8b 00 0b 	btst  %o4, %o3
   1c630:	02 bf ff f8 	be  1c610 <__GI_strcpy+0x28c>
   1c634:	ca 22 00 00 	st  %g5, [ %o0 ]
   1c638:	99 33 60 18 	srl  %o5, 0x18, %o4
   1c63c:	80 8b 20 ff 	btst  0xff, %o4
   1c640:	02 bf ff a1 	be  1c4c4 <__GI_strcpy+0x140>
   1c644:	99 33 60 10 	srl  %o5, 0x10, %o4
   1c648:	80 8b 20 ff 	btst  0xff, %o4
   1c64c:	02 bf ff df 	be  1c5c8 <__GI_strcpy+0x244>
   1c650:	99 33 60 08 	srl  %o5, 8, %o4
   1c654:	80 8b 20 ff 	btst  0xff, %o4
   1c658:	02 80 00 09 	be  1c67c <__GI_strcpy+0x2f8>
   1c65c:	80 8b 60 ff 	btst  0xff, %o5
   1c660:	12 bf ff ed 	bne  1c614 <__GI_strcpy+0x290>
   1c664:	90 02 20 04 	add  %o0, 4, %o0
   1c668:	9b 33 60 08 	srl  %o5, 8, %o5
   1c66c:	da 32 00 00 	sth  %o5, [ %o0 ]
   1c670:	c0 2a 20 02 	clrb  [ %o0 + 2 ]
   1c674:	81 c3 e0 08 	retl 
   1c678:	90 10 00 02 	mov  %g2, %o0
   1c67c:	9b 33 60 08 	srl  %o5, 8, %o5
   1c680:	da 32 20 04 	sth  %o5, [ %o0 + 4 ]
   1c684:	81 c3 e0 08 	retl 
   1c688:	90 10 00 02 	mov  %g2, %o0
   1c68c:	80 89 60 ff 	btst  0xff, %g5
   1c690:	ca 2a 00 00 	stb  %g5, [ %o0 ]
   1c694:	90 22 20 03 	sub  %o0, 3, %o0
   1c698:	12 bf ff ec 	bne  1c648 <__GI_strcpy+0x2c4>
   1c69c:	99 33 60 10 	srl  %o5, 0x10, %o4
   1c6a0:	81 c3 e0 08 	retl 
   1c6a4:	90 10 00 02 	mov  %g2, %o0

0001c6a8 <__GI_memcmp>:
   1c6a8:	9d e3 bf a0 	save  %sp, -96, %sp
   1c6ac:	86 10 00 18 	mov  %i0, %g3
   1c6b0:	80 a6 a0 0f 	cmp  %i2, 0xf
   1c6b4:	18 80 00 0d 	bgu  1c6e8 <__GI_memcmp+0x40>
   1c6b8:	84 10 00 18 	mov  %i0, %g2
   1c6bc:	82 10 20 00 	clr  %g1
   1c6c0:	80 a6 80 01 	cmp  %i2, %g1
   1c6c4:	32 80 00 96 	bne,a   1c91c <__GI_memcmp+0x274>
   1c6c8:	f0 08 80 01 	ldub  [ %g2 + %g1 ], %i0
   1c6cc:	81 c7 e0 08 	ret 
   1c6d0:	91 e8 20 00 	restore  %g0, 0, %o0
   1c6d4:	c8 0e 40 00 	ldub  [ %i1 ], %g4
   1c6d8:	84 00 a0 01 	inc  %g2
   1c6dc:	b0 a0 40 04 	subcc  %g1, %g4, %i0
   1c6e0:	12 80 00 8d 	bne  1c914 <__GI_memcmp+0x26c>
   1c6e4:	b2 06 60 01 	inc  %i1
   1c6e8:	80 8e 60 03 	btst  3, %i1
   1c6ec:	32 bf ff fa 	bne,a   1c6d4 <__GI_memcmp+0x2c>
   1c6f0:	c2 08 80 00 	ldub  [ %g2 ], %g1
   1c6f4:	86 00 c0 1a 	add  %g3, %i2, %g3
   1c6f8:	9e 10 00 02 	mov  %g2, %o7
   1c6fc:	b4 20 c0 02 	sub  %g3, %g2, %i2
   1c700:	9a 10 00 19 	mov  %i1, %o5
   1c704:	87 36 a0 02 	srl  %i2, 2, %g3
   1c708:	c8 06 40 00 	ld  [ %i1 ], %g4
   1c70c:	b6 88 a0 03 	andcc  %g2, 3, %i3
   1c710:	12 80 00 39 	bne  1c7f4 <__GI_memcmp+0x14c>
   1c714:	b8 08 e0 03 	and  %g3, 3, %i4
   1c718:	80 a7 20 01 	cmp  %i4, 1
   1c71c:	02 80 00 1d 	be  1c790 <__GI_memcmp+0xe8>
   1c720:	c2 00 80 00 	ld  [ %g2 ], %g1
   1c724:	80 a7 20 03 	cmp  %i4, 3
   1c728:	02 80 00 11 	be  1c76c <__GI_memcmp+0xc4>
   1c72c:	80 a7 20 00 	cmp  %i4, 0
   1c730:	02 80 00 21 	be  1c7b4 <__GI_memcmp+0x10c>
   1c734:	80 a0 40 04 	cmp  %g1, %g4
   1c738:	84 00 bf f8 	add  %g2, -8, %g2
   1c73c:	b2 06 7f f8 	add  %i1, -8, %i1
   1c740:	86 00 e0 02 	add  %g3, 2, %g3
   1c744:	80 a0 40 04 	cmp  %g1, %g4
   1c748:	12 80 00 1d 	bne  1c7bc <__GI_memcmp+0x114>
   1c74c:	01 00 00 00 	nop 
   1c750:	c2 00 a0 0c 	ld  [ %g2 + 0xc ], %g1
   1c754:	86 80 ff fc 	addcc  %g3, -4, %g3
   1c758:	02 80 00 1f 	be  1c7d4 <__GI_memcmp+0x12c>
   1c75c:	c8 06 60 0c 	ld  [ %i1 + 0xc ], %g4
   1c760:	84 00 a0 10 	add  %g2, 0x10, %g2
   1c764:	10 80 00 0e 	b  1c79c <__GI_memcmp+0xf4>
   1c768:	b2 06 60 10 	add  %i1, 0x10, %i1
   1c76c:	84 00 bf fc 	add  %g2, -4, %g2
   1c770:	b2 06 7f fc 	add  %i1, -4, %i1
   1c774:	86 00 e0 01 	inc  %g3
   1c778:	80 a0 40 04 	cmp  %g1, %g4
   1c77c:	12 80 00 10 	bne  1c7bc <__GI_memcmp+0x114>
   1c780:	01 00 00 00 	nop 
   1c784:	c2 00 a0 08 	ld  [ %g2 + 8 ], %g1
   1c788:	10 bf ff ef 	b  1c744 <__GI_memcmp+0x9c>
   1c78c:	c8 06 60 08 	ld  [ %i1 + 8 ], %g4
   1c790:	84 00 a0 04 	add  %g2, 4, %g2
   1c794:	b2 06 60 04 	add  %i1, 4, %i1
   1c798:	86 00 ff ff 	add  %g3, -1, %g3
   1c79c:	80 a0 40 04 	cmp  %g1, %g4
   1c7a0:	12 80 00 07 	bne  1c7bc <__GI_memcmp+0x114>
   1c7a4:	01 00 00 00 	nop 
   1c7a8:	c2 00 80 00 	ld  [ %g2 ], %g1
   1c7ac:	c8 06 40 00 	ld  [ %i1 ], %g4
   1c7b0:	80 a0 40 04 	cmp  %g1, %g4
   1c7b4:	22 80 00 06 	be,a   1c7cc <__GI_memcmp+0x124>
   1c7b8:	c2 00 a0 04 	ld  [ %g2 + 4 ], %g1
   1c7bc:	18 80 00 56 	bgu  1c914 <__GI_memcmp+0x26c>
   1c7c0:	b0 10 20 01 	mov  1, %i0
   1c7c4:	81 c7 e0 08 	ret 
   1c7c8:	91 e8 3f ff 	restore  %g0, -1, %o0
   1c7cc:	10 bf ff eb 	b  1c778 <__GI_memcmp+0xd0>
   1c7d0:	c8 06 60 04 	ld  [ %i1 + 4 ], %g4
   1c7d4:	80 a0 40 04 	cmp  %g1, %g4
   1c7d8:	12 bf ff f9 	bne  1c7bc <__GI_memcmp+0x114>
   1c7dc:	01 00 00 00 	nop 
   1c7e0:	b2 0e bf fc 	and  %i2, -4, %i1
   1c7e4:	b4 0e a0 03 	and  %i2, 3, %i2
   1c7e8:	84 06 40 0f 	add  %i1, %o7, %g2
   1c7ec:	10 bf ff b4 	b  1c6bc <__GI_memcmp+0x14>
   1c7f0:	b2 06 40 0d 	add  %i1, %o5, %i1
   1c7f4:	84 08 bf fc 	and  %g2, -4, %g2
   1c7f8:	b7 2e e0 03 	sll  %i3, 3, %i3
   1c7fc:	b0 10 20 20 	mov  0x20, %i0
   1c800:	c2 00 80 00 	ld  [ %g2 ], %g1
   1c804:	b0 26 00 1b 	sub  %i0, %i3, %i0
   1c808:	98 00 a0 04 	add  %g2, 4, %o4
   1c80c:	80 a7 20 01 	cmp  %i4, 1
   1c810:	02 80 00 2d 	be  1c8c4 <__GI_memcmp+0x21c>
   1c814:	fa 00 a0 04 	ld  [ %g2 + 4 ], %i5
   1c818:	80 a7 20 03 	cmp  %i4, 3
   1c81c:	02 80 00 16 	be  1c874 <__GI_memcmp+0x1cc>
   1c820:	80 a7 20 00 	cmp  %i4, 0
   1c824:	22 80 00 1f 	be,a   1c8a0 <__GI_memcmp+0x1f8>
   1c828:	84 10 00 0c 	mov  %o4, %g2
   1c82c:	84 00 bf fc 	add  %g2, -4, %g2
   1c830:	b2 06 7f f8 	add  %i1, -8, %i1
   1c834:	86 00 e0 02 	add  %g3, 2, %g3
   1c838:	b8 10 00 1d 	mov  %i5, %i4
   1c83c:	83 28 40 1b 	sll  %g1, %i3, %g1
   1c840:	bb 37 00 18 	srl  %i4, %i0, %i5
   1c844:	82 10 40 1d 	or  %g1, %i5, %g1
   1c848:	80 a0 40 04 	cmp  %g1, %g4
   1c84c:	12 bf ff dc 	bne  1c7bc <__GI_memcmp+0x114>
   1c850:	01 00 00 00 	nop 
   1c854:	fa 00 a0 0c 	ld  [ %g2 + 0xc ], %i5
   1c858:	86 80 ff fc 	addcc  %g3, -4, %g3
   1c85c:	02 80 00 26 	be  1c8f4 <__GI_memcmp+0x24c>
   1c860:	c8 06 60 0c 	ld  [ %i1 + 0xc ], %g4
   1c864:	84 00 a0 10 	add  %g2, 0x10, %g2
   1c868:	b2 06 60 10 	add  %i1, 0x10, %i1
   1c86c:	10 80 00 19 	b  1c8d0 <__GI_memcmp+0x228>
   1c870:	82 10 00 1c 	mov  %i4, %g1
   1c874:	b2 06 7f fc 	add  %i1, -4, %i1
   1c878:	86 00 e0 01 	inc  %g3
   1c87c:	83 28 40 1b 	sll  %g1, %i3, %g1
   1c880:	b9 37 40 18 	srl  %i5, %i0, %i4
   1c884:	82 10 40 1c 	or  %g1, %i4, %g1
   1c888:	80 a0 40 04 	cmp  %g1, %g4
   1c88c:	12 bf ff cc 	bne  1c7bc <__GI_memcmp+0x114>
   1c890:	82 10 00 1d 	mov  %i5, %g1
   1c894:	f8 00 a0 08 	ld  [ %g2 + 8 ], %i4
   1c898:	10 bf ff e9 	b  1c83c <__GI_memcmp+0x194>
   1c89c:	c8 06 60 08 	ld  [ %i1 + 8 ], %g4
   1c8a0:	83 28 40 1b 	sll  %g1, %i3, %g1
   1c8a4:	b9 37 40 18 	srl  %i5, %i0, %i4
   1c8a8:	82 10 40 1c 	or  %g1, %i4, %g1
   1c8ac:	80 a0 40 04 	cmp  %g1, %g4
   1c8b0:	12 bf ff c3 	bne  1c7bc <__GI_memcmp+0x114>
   1c8b4:	82 10 00 1d 	mov  %i5, %g1
   1c8b8:	c8 06 60 04 	ld  [ %i1 + 4 ], %g4
   1c8bc:	10 bf ff f0 	b  1c87c <__GI_memcmp+0x1d4>
   1c8c0:	fa 00 a0 04 	ld  [ %g2 + 4 ], %i5
   1c8c4:	84 00 a0 08 	add  %g2, 8, %g2
   1c8c8:	b2 06 60 04 	add  %i1, 4, %i1
   1c8cc:	86 00 ff ff 	add  %g3, -1, %g3
   1c8d0:	83 28 40 1b 	sll  %g1, %i3, %g1
   1c8d4:	b9 37 40 18 	srl  %i5, %i0, %i4
   1c8d8:	82 10 40 1c 	or  %g1, %i4, %g1
   1c8dc:	80 a0 40 04 	cmp  %g1, %g4
   1c8e0:	12 bf ff b7 	bne  1c7bc <__GI_memcmp+0x114>
   1c8e4:	82 10 00 1d 	mov  %i5, %g1
   1c8e8:	c8 06 40 00 	ld  [ %i1 ], %g4
   1c8ec:	10 bf ff ed 	b  1c8a0 <__GI_memcmp+0x1f8>
   1c8f0:	fa 00 80 00 	ld  [ %g2 ], %i5
   1c8f4:	b9 2f 00 1b 	sll  %i4, %i3, %i4
   1c8f8:	bb 37 40 18 	srl  %i5, %i0, %i5
   1c8fc:	b8 17 00 1d 	or  %i4, %i5, %i4
   1c900:	80 a1 00 1c 	cmp  %g4, %i4
   1c904:	02 bf ff b8 	be  1c7e4 <__GI_memcmp+0x13c>
   1c908:	b2 0e bf fc 	and  %i2, -4, %i1
   1c90c:	1a bf ff ae 	bcc  1c7c4 <__GI_memcmp+0x11c>
   1c910:	b0 10 20 01 	mov  1, %i0
   1c914:	81 c7 e0 08 	ret 
   1c918:	81 e8 00 00 	restore 
   1c91c:	c6 0e 40 01 	ldub  [ %i1 + %g1 ], %g3
   1c920:	b0 a6 00 03 	subcc  %i0, %g3, %i0
   1c924:	02 bf ff 67 	be  1c6c0 <__GI_memcmp+0x18>
   1c928:	82 00 60 01 	inc  %g1
   1c92c:	81 c7 e0 08 	ret 
   1c930:	81 e8 00 00 	restore 

0001c934 <__GI_mempcpy>:
   1c934:	9d e3 bf a0 	save  %sp, -96, %sp
   1c938:	94 10 00 1a 	mov  %i2, %o2
   1c93c:	92 10 00 19 	mov  %i1, %o1
   1c940:	90 10 00 18 	mov  %i0, %o0
   1c944:	7f ff d8 bc 	call  12c34 <__GI_memcpy>
   1c948:	b0 06 00 1a 	add  %i0, %i2, %i0
   1c94c:	81 c7 e0 08 	ret 
   1c950:	81 e8 00 00 	restore 

0001c954 <__GI_memrchr>:
   1c954:	9d e3 bf a0 	save  %sp, -96, %sp
   1c958:	82 10 00 19 	mov  %i1, %g1
   1c95c:	b0 06 00 1a 	add  %i0, %i2, %i0
   1c960:	84 0e 60 ff 	and  %i1, 0xff, %g2
   1c964:	80 a6 a0 00 	cmp  %i2, 0
   1c968:	02 80 00 04 	be  1c978 <__GI_memrchr+0x24>
   1c96c:	80 8e 20 03 	btst  3, %i0
   1c970:	32 80 00 14 	bne,a   1c9c0 <__GI_memrchr+0x6c>
   1c974:	b0 06 3f ff 	add  %i0, -1, %i0
   1c978:	b2 0e 60 ff 	and  %i1, 0xff, %i1
   1c97c:	05 00 40 40 	sethi  %hi(0x1010000), %g2
   1c980:	09 1f bf bf 	sethi  %hi(0x7efefc00), %g4
   1c984:	84 10 a1 01 	or  %g2, 0x101, %g2
   1c988:	86 10 00 18 	mov  %i0, %g3
   1c98c:	b2 5e 40 02 	smul  %i1, %g2, %i1
   1c990:	88 11 22 ff 	or  %g4, 0x2ff, %g4
   1c994:	ba 08 60 ff 	and  %g1, 0xff, %i5
   1c998:	80 a6 a0 03 	cmp  %i2, 3
   1c99c:	38 80 00 0f 	bgu,a   1c9d8 <__GI_memrchr+0x84>
   1c9a0:	b0 06 3f fc 	add  %i0, -4, %i0
   1c9a4:	b4 26 00 1a 	sub  %i0, %i2, %i2
   1c9a8:	82 08 60 ff 	and  %g1, 0xff, %g1
   1c9ac:	80 a6 00 1a 	cmp  %i0, %i2
   1c9b0:	32 80 00 27 	bne,a   1ca4c <__GI_memrchr+0xf8>
   1c9b4:	b0 06 3f ff 	add  %i0, -1, %i0
   1c9b8:	81 c7 e0 08 	ret 
   1c9bc:	91 e8 20 00 	restore  %g0, 0, %o0
   1c9c0:	c6 0e 00 00 	ldub  [ %i0 ], %g3
   1c9c4:	80 a0 c0 02 	cmp  %g3, %g2
   1c9c8:	02 80 00 25 	be  1ca5c <__GI_memrchr+0x108>
   1c9cc:	b4 06 bf ff 	add  %i2, -1, %i2
   1c9d0:	10 bf ff e6 	b  1c968 <__GI_memrchr+0x14>
   1c9d4:	80 a6 a0 00 	cmp  %i2, 0
   1c9d8:	f8 06 00 00 	ld  [ %i0 ], %i4
   1c9dc:	b8 1e 40 1c 	xor  %i1, %i4, %i4
   1c9e0:	84 07 00 04 	add  %i4, %g4, %g2
   1c9e4:	84 18 80 1c 	xor  %g2, %i4, %g2
   1c9e8:	84 10 80 04 	or  %g2, %g4, %g2
   1c9ec:	80 a0 bf ff 	cmp  %g2, -1
   1c9f0:	22 80 00 15 	be,a   1ca44 <__GI_memrchr+0xf0>
   1c9f4:	b4 06 bf fc 	add  %i2, -4, %i2
   1c9f8:	c4 0e 20 03 	ldub  [ %i0 + 3 ], %g2
   1c9fc:	80 a0 80 1d 	cmp  %g2, %i5
   1ca00:	32 80 00 04 	bne,a   1ca10 <__GI_memrchr+0xbc>
   1ca04:	c4 0e 20 02 	ldub  [ %i0 + 2 ], %g2
   1ca08:	81 c7 e0 08 	ret 
   1ca0c:	91 e8 ff ff 	restore  %g3, -1, %o0
   1ca10:	80 a0 80 1d 	cmp  %g2, %i5
   1ca14:	32 80 00 04 	bne,a   1ca24 <__GI_memrchr+0xd0>
   1ca18:	c4 0e 20 01 	ldub  [ %i0 + 1 ], %g2
   1ca1c:	81 c7 e0 08 	ret 
   1ca20:	91 e8 ff fe 	restore  %g3, -2, %o0
   1ca24:	80 a0 80 1d 	cmp  %g2, %i5
   1ca28:	32 80 00 04 	bne,a   1ca38 <__GI_memrchr+0xe4>
   1ca2c:	c4 0e 00 00 	ldub  [ %i0 ], %g2
   1ca30:	81 c7 e0 08 	ret 
   1ca34:	91 e8 ff fd 	restore  %g3, -3, %o0
   1ca38:	80 a0 80 1d 	cmp  %g2, %i5
   1ca3c:	02 80 00 08 	be  1ca5c <__GI_memrchr+0x108>
   1ca40:	b4 06 bf fc 	add  %i2, -4, %i2
   1ca44:	10 bf ff d5 	b  1c998 <__GI_memrchr+0x44>
   1ca48:	86 10 00 18 	mov  %i0, %g3
   1ca4c:	c4 0e 00 00 	ldub  [ %i0 ], %g2
   1ca50:	80 a0 80 01 	cmp  %g2, %g1
   1ca54:	12 bf ff d7 	bne  1c9b0 <__GI_memrchr+0x5c>
   1ca58:	80 a6 00 1a 	cmp  %i0, %i2
   1ca5c:	81 c7 e0 08 	ret 
   1ca60:	81 e8 00 00 	restore 

0001ca64 <__GI_strdup>:
   1ca64:	9d e3 bf a0 	save  %sp, -96, %sp
   1ca68:	7f ff dd e6 	call  14200 <__GI_strlen>
   1ca6c:	90 10 00 18 	mov  %i0, %o0
   1ca70:	b8 10 00 18 	mov  %i0, %i4
   1ca74:	ba 02 20 01 	add  %o0, 1, %i5
   1ca78:	7f ff df f1 	call  14a3c <malloc>
   1ca7c:	90 10 00 1d 	mov  %i5, %o0
   1ca80:	b0 92 20 00 	orcc  %o0, 0, %i0
   1ca84:	02 80 00 04 	be  1ca94 <__GI_strdup+0x30>
   1ca88:	94 10 00 1d 	mov  %i5, %o2
   1ca8c:	7f ff d8 6a 	call  12c34 <__GI_memcpy>
   1ca90:	92 10 00 1c 	mov  %i4, %o1
   1ca94:	81 c7 e0 08 	ret 
   1ca98:	81 e8 00 00 	restore 

0001ca9c <__GI_isatty>:
   1ca9c:	9d e3 bf 78 	save  %sp, -136, %sp
   1caa0:	92 07 bf dc 	add  %fp, -36, %o1
   1caa4:	40 00 00 06 	call  1cabc <__GI_tcgetattr>
   1caa8:	90 10 00 18 	mov  %i0, %o0
   1caac:	80 a0 00 08 	cmp  %g0, %o0
   1cab0:	b0 60 3f ff 	subx  %g0, -1, %i0
   1cab4:	81 c7 e0 08 	ret 
   1cab8:	81 e8 00 00 	restore 

0001cabc <__GI_tcgetattr>:
   1cabc:	9d e3 bf 78 	save  %sp, -136, %sp
   1cac0:	13 10 09 15 	sethi  %hi(0x40245400), %o1
   1cac4:	90 10 00 18 	mov  %i0, %o0
   1cac8:	94 07 bf dc 	add  %fp, -36, %o2
   1cacc:	40 00 02 d1 	call  1d610 <__GI_ioctl>
   1cad0:	92 12 60 08 	or  %o1, 8, %o1
   1cad4:	b0 92 20 00 	orcc  %o0, 0, %i0
   1cad8:	12 80 00 12 	bne  1cb20 <__GI_tcgetattr+0x64>
   1cadc:	c2 07 bf dc 	ld  [ %fp + -36 ], %g1
   1cae0:	c2 26 40 00 	st  %g1, [ %i1 ]
   1cae4:	c2 07 bf e0 	ld  [ %fp + -32 ], %g1
   1cae8:	c2 26 60 04 	st  %g1, [ %i1 + 4 ]
   1caec:	c2 07 bf e4 	ld  [ %fp + -28 ], %g1
   1caf0:	c2 26 60 08 	st  %g1, [ %i1 + 8 ]
   1caf4:	c2 07 bf e8 	ld  [ %fp + -24 ], %g1
   1caf8:	c2 26 60 0c 	st  %g1, [ %i1 + 0xc ]
   1cafc:	c2 0f bf ec 	ldub  [ %fp + -20 ], %g1
   1cb00:	94 10 20 11 	mov  0x11, %o2
   1cb04:	92 07 bf ed 	add  %fp, -19, %o1
   1cb08:	c2 2e 60 10 	stb  %g1, [ %i1 + 0x10 ]
   1cb0c:	7f ff ff 8a 	call  1c934 <__GI_mempcpy>
   1cb10:	90 06 60 11 	add  %i1, 0x11, %o0
   1cb14:	94 10 20 00 	clr  %o2
   1cb18:	7f ff dc 71 	call  13cdc <__GI_memset>
   1cb1c:	92 10 20 00 	clr  %o1
   1cb20:	81 c7 e0 08 	ret 
   1cb24:	81 e8 00 00 	restore 

0001cb28 <__sigjmp_save>:
   1cb28:	9d e3 bf a0 	save  %sp, -96, %sp
   1cb2c:	80 a6 60 00 	cmp  %i1, 0
   1cb30:	22 80 00 09 	be,a   1cb54 <__sigjmp_save+0x2c>
   1cb34:	f2 26 20 0c 	st  %i1, [ %i0 + 0xc ]
   1cb38:	94 06 20 10 	add  %i0, 0x10, %o2
   1cb3c:	92 10 20 00 	clr  %o1
   1cb40:	7f ff f4 e2 	call  19ec8 <__GI_sigprocmask>
   1cb44:	90 10 20 01 	mov  1, %o0
   1cb48:	80 a0 00 08 	cmp  %g0, %o0
   1cb4c:	b2 60 3f ff 	subx  %g0, -1, %i1
   1cb50:	f2 26 20 0c 	st  %i1, [ %i0 + 0xc ]
   1cb54:	81 c7 e0 08 	ret 
   1cb58:	91 e8 20 00 	restore  %g0, 0, %o0

0001cb5c <realloc>:
   1cb5c:	9d e3 bf 90 	save  %sp, -112, %sp
   1cb60:	2f 00 00 8c 	sethi  %hi(0x23000), %l7
   1cb64:	7f ff cf 30 	call  10824 <__sparc_get_pc_thunk.l7>
   1cb68:	ae 05 e3 68 	add  %l7, 0x368, %l7	! 23368 <locale_mmap+0x2c08>
   1cb6c:	ba 96 20 00 	orcc  %i0, 0, %i5
   1cb70:	12 80 00 04 	bne  1cb80 <realloc+0x24>
   1cb74:	80 a6 60 00 	cmp  %i1, 0
   1cb78:	10 bf df b1 	b  14a3c <malloc>
   1cb7c:	91 e8 00 19 	restore  %g0, %i1, %o0
   1cb80:	12 80 00 06 	bne  1cb98 <realloc+0x3c>
   1cb84:	80 a6 7f df 	cmp  %i1, -33
   1cb88:	7f ff df 05 	call  1479c <free>
   1cb8c:	90 10 00 1d 	mov  %i5, %o0
   1cb90:	81 c7 e0 08 	ret 
   1cb94:	91 e8 20 00 	restore  %g0, 0, %o0
   1cb98:	28 80 00 08 	bleu,a   1cbb8 <realloc+0x5c>
   1cb9c:	b2 06 60 0b 	add  %i1, 0xb, %i1
   1cba0:	03 00 00 00 	sethi  %hi(0), %g1
   1cba4:	82 18 7f f8 	xor  %g1, -8, %g1
   1cba8:	ae 10 00 01 	mov  %g1, %l7
   1cbac:	82 10 20 0c 	mov  0xc, %g1
   1cbb0:	10 bf ff f8 	b  1cb90 <realloc+0x34>
   1cbb4:	c2 21 c0 17 	st  %g1, [ %g7 + %l7 ]
   1cbb8:	80 a6 60 0f 	cmp  %i1, 0xf
   1cbbc:	08 80 00 03 	bleu  1cbc8 <realloc+0x6c>
   1cbc0:	b4 10 20 10 	mov  0x10, %i2
   1cbc4:	b4 0e 7f f8 	and  %i1, -8, %i2
   1cbc8:	15 00 00 00 	sethi  %hi(0), %o2
   1cbcc:	94 1a a1 58 	xor  %o2, 0x158, %o2
   1cbd0:	b6 07 bf f0 	add  %fp, -16, %i3
   1cbd4:	b8 05 c0 0a 	add  %l7, %o2, %i4
   1cbd8:	90 10 00 1b 	mov  %i3, %o0
   1cbdc:	94 10 00 1c 	mov  %i4, %o2
   1cbe0:	13 00 00 a8 	sethi  %hi(0x2a000), %o1
   1cbe4:	92 1a 7c bc 	xor  %o1, -836, %o1
   1cbe8:	7f ff e3 ee 	call  15ba0 <_pthread_cleanup_push_defer>
   1cbec:	92 05 c0 09 	add  %l7, %o1, %o1
   1cbf0:	7f ff e3 e6 	call  15b88 <__pthread_mutex_lock>
   1cbf4:	90 10 00 1c 	mov  %i4, %o0
   1cbf8:	c4 07 7f fc 	ld  [ %i5 + -4 ], %g2
   1cbfc:	b2 07 7f f8 	add  %i5, -8, %i1
   1cc00:	80 88 a0 02 	btst  2, %g2
   1cc04:	12 80 00 77 	bne  1cde0 <realloc+0x284>
   1cc08:	b8 08 bf fc 	and  %g2, -4, %i4
   1cc0c:	80 a6 80 1c 	cmp  %i2, %i4
   1cc10:	08 80 00 2f 	bleu  1cccc <realloc+0x170>
   1cc14:	07 00 00 0a 	sethi  %hi(0x2800), %g3
   1cc18:	86 18 e0 00 	xor  %g3, 0, %g3
   1cc1c:	a0 06 40 1c 	add  %i1, %i4, %l0
   1cc20:	ae 05 c0 03 	add  %l7, %g3, %l7
   1cc24:	c6 05 e0 2c 	ld  [ %l7 + 0x2c ], %g3
   1cc28:	80 a0 c0 10 	cmp  %g3, %l0
   1cc2c:	12 80 00 11 	bne  1cc70 <realloc+0x114>
   1cc30:	c2 04 20 04 	ld  [ %l0 + 4 ], %g1
   1cc34:	82 08 7f fc 	and  %g1, -4, %g1
   1cc38:	86 06 a0 10 	add  %i2, 0x10, %g3
   1cc3c:	82 00 40 1c 	add  %g1, %i4, %g1
   1cc40:	80 a0 c0 01 	cmp  %g3, %g1
   1cc44:	18 80 00 2e 	bgu  1ccfc <realloc+0x1a0>
   1cc48:	84 08 a0 01 	and  %g2, 1, %g2
   1cc4c:	84 10 80 1a 	or  %g2, %i2, %g2
   1cc50:	c4 27 7f fc 	st  %g2, [ %i5 + -4 ]
   1cc54:	b2 06 40 1a 	add  %i1, %i2, %i1
   1cc58:	f2 25 e0 2c 	st  %i1, [ %l7 + 0x2c ]
   1cc5c:	82 20 40 1a 	sub  %g1, %i2, %g1
   1cc60:	82 10 60 01 	or  %g1, 1, %g1
   1cc64:	c2 26 60 04 	st  %g1, [ %i1 + 4 ]
   1cc68:	10 80 00 84 	b  1ce78 <realloc+0x31c>
   1cc6c:	b0 10 00 1d 	mov  %i5, %i0
   1cc70:	84 08 7f fe 	and  %g1, -2, %g2
   1cc74:	84 04 00 02 	add  %l0, %g2, %g2
   1cc78:	c4 00 a0 04 	ld  [ %g2 + 4 ], %g2
   1cc7c:	80 88 a0 01 	btst  1, %g2
   1cc80:	12 80 00 1f 	bne  1ccfc <realloc+0x1a0>
   1cc84:	82 08 7f fc 	and  %g1, -4, %g1
   1cc88:	82 00 40 1c 	add  %g1, %i4, %g1
   1cc8c:	80 a6 80 01 	cmp  %i2, %g1
   1cc90:	18 80 00 1b 	bgu  1ccfc <realloc+0x1a0>
   1cc94:	01 00 00 00 	nop 
   1cc98:	c6 04 20 08 	ld  [ %l0 + 8 ], %g3
   1cc9c:	c8 00 e0 0c 	ld  [ %g3 + 0xc ], %g4
   1cca0:	80 a1 00 10 	cmp  %g4, %l0
   1cca4:	12 80 00 06 	bne  1ccbc <realloc+0x160>
   1cca8:	c4 04 20 0c 	ld  [ %l0 + 0xc ], %g2
   1ccac:	f8 00 a0 08 	ld  [ %g2 + 8 ], %i4
   1ccb0:	80 a7 00 04 	cmp  %i4, %g4
   1ccb4:	22 80 00 04 	be,a   1ccc4 <realloc+0x168>
   1ccb8:	c4 20 e0 0c 	st  %g2, [ %g3 + 0xc ]
   1ccbc:	7f ff e1 82 	call  152c4 <__GI_abort>
   1ccc0:	01 00 00 00 	nop 
   1ccc4:	c6 20 a0 08 	st  %g3, [ %g2 + 8 ]
   1ccc8:	b8 10 00 01 	mov  %g1, %i4
   1cccc:	86 27 00 1a 	sub  %i4, %i2, %g3
   1ccd0:	c2 07 7f fc 	ld  [ %i5 + -4 ], %g1
   1ccd4:	84 06 40 1c 	add  %i1, %i4, %g2
   1ccd8:	80 a0 e0 0f 	cmp  %g3, 0xf
   1ccdc:	18 80 00 35 	bgu  1cdb0 <realloc+0x254>
   1cce0:	82 08 60 01 	and  %g1, 1, %g1
   1cce4:	82 10 40 1c 	or  %g1, %i4, %g1
   1cce8:	c2 27 7f fc 	st  %g1, [ %i5 + -4 ]
   1ccec:	c2 00 a0 04 	ld  [ %g2 + 4 ], %g1
   1ccf0:	82 10 60 01 	or  %g1, 1, %g1
   1ccf4:	10 bf ff dd 	b  1cc68 <realloc+0x10c>
   1ccf8:	c2 20 a0 04 	st  %g1, [ %g2 + 4 ]
   1ccfc:	7f ff df 50 	call  14a3c <malloc>
   1cd00:	90 06 bf f9 	add  %i2, -7, %o0
   1cd04:	b0 92 20 00 	orcc  %o0, 0, %i0
   1cd08:	02 80 00 5c 	be  1ce78 <realloc+0x31c>
   1cd0c:	84 06 3f f8 	add  %i0, -8, %g2
   1cd10:	80 a4 00 02 	cmp  %l0, %g2
   1cd14:	12 80 00 05 	bne  1cd28 <realloc+0x1cc>
   1cd18:	c2 06 3f fc 	ld  [ %i0 + -4 ], %g1
   1cd1c:	82 08 7f fc 	and  %g1, -4, %g1
   1cd20:	10 bf ff eb 	b  1cccc <realloc+0x170>
   1cd24:	b8 07 00 01 	add  %i4, %g1, %i4
   1cd28:	94 07 3f fc 	add  %i4, -4, %o2
   1cd2c:	80 a2 a0 27 	cmp  %o2, 0x27
   1cd30:	28 80 00 05 	bleu,a   1cd44 <realloc+0x1e8>
   1cd34:	c2 07 40 00 	ld  [ %i5 ], %g1
   1cd38:	7f ff d7 bf 	call  12c34 <__GI_memcpy>
   1cd3c:	92 10 00 1d 	mov  %i5, %o1
   1cd40:	30 80 00 18 	b,a   1cda0 <realloc+0x244>
   1cd44:	c2 26 00 00 	st  %g1, [ %i0 ]
   1cd48:	c2 07 60 04 	ld  [ %i5 + 4 ], %g1
   1cd4c:	c2 26 20 04 	st  %g1, [ %i0 + 4 ]
   1cd50:	c2 07 60 08 	ld  [ %i5 + 8 ], %g1
   1cd54:	80 a2 a0 13 	cmp  %o2, 0x13
   1cd58:	08 80 00 12 	bleu  1cda0 <realloc+0x244>
   1cd5c:	c2 26 20 08 	st  %g1, [ %i0 + 8 ]
   1cd60:	c2 07 60 0c 	ld  [ %i5 + 0xc ], %g1
   1cd64:	c2 26 20 0c 	st  %g1, [ %i0 + 0xc ]
   1cd68:	c2 07 60 10 	ld  [ %i5 + 0x10 ], %g1
   1cd6c:	80 a2 a0 1b 	cmp  %o2, 0x1b
   1cd70:	08 80 00 0c 	bleu  1cda0 <realloc+0x244>
   1cd74:	c2 26 20 10 	st  %g1, [ %i0 + 0x10 ]
   1cd78:	c2 07 60 14 	ld  [ %i5 + 0x14 ], %g1
   1cd7c:	c2 26 20 14 	st  %g1, [ %i0 + 0x14 ]
   1cd80:	c2 07 60 18 	ld  [ %i5 + 0x18 ], %g1
   1cd84:	80 a2 a0 23 	cmp  %o2, 0x23
   1cd88:	08 80 00 06 	bleu  1cda0 <realloc+0x244>
   1cd8c:	c2 26 20 18 	st  %g1, [ %i0 + 0x18 ]
   1cd90:	c2 07 60 1c 	ld  [ %i5 + 0x1c ], %g1
   1cd94:	c2 26 20 1c 	st  %g1, [ %i0 + 0x1c ]
   1cd98:	c2 07 60 20 	ld  [ %i5 + 0x20 ], %g1
   1cd9c:	c2 26 20 20 	st  %g1, [ %i0 + 0x20 ]
   1cda0:	7f ff de 7f 	call  1479c <free>
   1cda4:	90 10 00 1d 	mov  %i5, %o0
   1cda8:	10 80 00 35 	b  1ce7c <realloc+0x320>
   1cdac:	92 10 20 01 	mov  1, %o1
   1cdb0:	82 10 40 1a 	or  %g1, %i2, %g1
   1cdb4:	c2 27 7f fc 	st  %g1, [ %i5 + -4 ]
   1cdb8:	b2 06 40 1a 	add  %i1, %i2, %i1
   1cdbc:	86 10 e0 01 	or  %g3, 1, %g3
   1cdc0:	c6 26 60 04 	st  %g3, [ %i1 + 4 ]
   1cdc4:	c2 00 a0 04 	ld  [ %g2 + 4 ], %g1
   1cdc8:	82 10 60 01 	or  %g1, 1, %g1
   1cdcc:	90 06 60 08 	add  %i1, 8, %o0
   1cdd0:	7f ff de 73 	call  1479c <free>
   1cdd4:	c2 20 a0 04 	st  %g1, [ %g2 + 4 ]
   1cdd8:	10 80 00 28 	b  1ce78 <realloc+0x31c>
   1cddc:	b0 10 00 1d 	mov  %i5, %i0
   1cde0:	03 00 00 0a 	sethi  %hi(0x2800), %g1
   1cde4:	82 18 60 00 	xor  %g1, 0, %g1
   1cde8:	e0 07 7f f8 	ld  [ %i5 + -8 ], %l0
   1cdec:	ae 05 c0 01 	add  %l7, %g1, %l7
   1cdf0:	c2 05 e3 5c 	ld  [ %l7 + 0x35c ], %g1
   1cdf4:	b0 00 60 03 	add  %g1, 3, %i0
   1cdf8:	82 20 00 01 	neg  %g1
   1cdfc:	b0 06 00 10 	add  %i0, %l0, %i0
   1ce00:	b0 06 00 1a 	add  %i0, %i2, %i0
   1ce04:	b0 0e 00 01 	and  %i0, %g1, %i0
   1ce08:	a2 26 00 10 	sub  %i0, %l0, %l1
   1ce0c:	80 a4 40 1c 	cmp  %l1, %i4
   1ce10:	02 bf ff 96 	be  1cc68 <realloc+0x10c>
   1ce14:	96 10 20 01 	mov  1, %o3
   1ce18:	94 10 00 18 	mov  %i0, %o2
   1ce1c:	92 07 00 10 	add  %i4, %l0, %o1
   1ce20:	40 00 02 31 	call  1d6e4 <__GI_mremap>
   1ce24:	90 26 40 10 	sub  %i1, %l0, %o0
   1ce28:	80 a2 3f ff 	cmp  %o0, -1
   1ce2c:	02 80 00 18 	be  1ce8c <realloc+0x330>
   1ce30:	90 02 00 10 	add  %o0, %l0, %o0
   1ce34:	a2 14 60 02 	or  %l1, 2, %l1
   1ce38:	e2 22 20 04 	st  %l1, [ %o0 + 4 ]
   1ce3c:	c2 05 e3 64 	ld  [ %l7 + 0x364 ], %g1
   1ce40:	82 20 40 1c 	sub  %g1, %i4, %g1
   1ce44:	94 00 40 18 	add  %g1, %i0, %o2
   1ce48:	d4 25 e3 64 	st  %o2, [ %l7 + 0x364 ]
   1ce4c:	c2 05 e3 70 	ld  [ %l7 + 0x370 ], %g1
   1ce50:	80 a2 80 01 	cmp  %o2, %g1
   1ce54:	38 80 00 02 	bgu,a   1ce5c <realloc+0x300>
   1ce58:	d4 25 e3 70 	st  %o2, [ %l7 + 0x370 ]
   1ce5c:	c2 05 e3 68 	ld  [ %l7 + 0x368 ], %g1
   1ce60:	94 02 80 01 	add  %o2, %g1, %o2
   1ce64:	c2 05 e3 74 	ld  [ %l7 + 0x374 ], %g1
   1ce68:	80 a0 40 0a 	cmp  %g1, %o2
   1ce6c:	2a 80 00 02 	bcs,a   1ce74 <realloc+0x318>
   1ce70:	d4 25 e3 74 	st  %o2, [ %l7 + 0x374 ]
   1ce74:	b0 02 20 08 	add  %o0, 8, %i0
   1ce78:	92 10 20 01 	mov  1, %o1
   1ce7c:	7f ff e3 4e 	call  15bb4 <_pthread_cleanup_pop_restore>
   1ce80:	90 10 00 1b 	mov  %i3, %o0
   1ce84:	81 c7 e0 08 	ret 
   1ce88:	81 e8 00 00 	restore 
   1ce8c:	82 06 a0 04 	add  %i2, 4, %g1
   1ce90:	80 a0 40 1c 	cmp  %g1, %i4
   1ce94:	08 bf ff f9 	bleu  1ce78 <realloc+0x31c>
   1ce98:	b0 10 00 1d 	mov  %i5, %i0
   1ce9c:	7f ff de e8 	call  14a3c <malloc>
   1cea0:	90 06 bf f9 	add  %i2, -7, %o0
   1cea4:	b0 92 20 00 	orcc  %o0, 0, %i0
   1cea8:	02 bf ff f4 	be  1ce78 <realloc+0x31c>
   1ceac:	94 07 3f f8 	add  %i4, -8, %o2
   1ceb0:	30 bf ff a2 	b,a   1cd38 <realloc+0x1dc>

0001ceb4 <__GI_getenv>:
   1ceb4:	9d e3 bf a0 	save  %sp, -96, %sp
   1ceb8:	2f 00 00 8c 	sethi  %hi(0x23000), %l7
   1cebc:	7f ff ce 5a 	call  10824 <__sparc_get_pc_thunk.l7>
   1cec0:	ae 05 e0 10 	add  %l7, 0x10, %l7	! 23010 <locale_mmap+0x28b0>
   1cec4:	03 00 00 01 	sethi  %hi(0x400), %g1
   1cec8:	82 18 60 08 	xor  %g1, 8, %g1
   1cecc:	ae 05 c0 01 	add  %l7, %g1, %l7
   1ced0:	fa 05 c0 00 	ld  [ %l7 ], %i5
   1ced4:	80 a7 60 00 	cmp  %i5, 0
   1ced8:	02 80 00 15 	be  1cf2c <__GI_getenv+0x78>
   1cedc:	90 10 00 18 	mov  %i0, %o0
   1cee0:	7f ff dc c8 	call  14200 <__GI_strlen>
   1cee4:	b6 10 00 1d 	mov  %i5, %i3
   1cee8:	b8 10 00 08 	mov  %o0, %i4
   1ceec:	fa 06 c0 00 	ld  [ %i3 ], %i5
   1cef0:	80 a7 60 00 	cmp  %i5, 0
   1cef4:	02 80 00 0e 	be  1cf2c <__GI_getenv+0x78>
   1cef8:	94 10 00 1c 	mov  %i4, %o2
   1cefc:	92 10 00 1d 	mov  %i5, %o1
   1cf00:	40 00 07 80 	call  1ed00 <__GI_strncmp>
   1cf04:	90 10 00 18 	mov  %i0, %o0
   1cf08:	80 a2 20 00 	cmp  %o0, 0
   1cf0c:	32 bf ff f8 	bne,a   1ceec <__GI_getenv+0x38>
   1cf10:	b6 06 e0 04 	add  %i3, 4, %i3
   1cf14:	c2 0f 40 1c 	ldub  [ %i5 + %i4 ], %g1
   1cf18:	80 a0 60 3d 	cmp  %g1, 0x3d
   1cf1c:	32 bf ff f4 	bne,a   1ceec <__GI_getenv+0x38>
   1cf20:	b6 06 e0 04 	add  %i3, 4, %i3
   1cf24:	b8 07 20 01 	inc  %i4
   1cf28:	ba 07 40 1c 	add  %i5, %i4, %i5
   1cf2c:	81 c7 e0 08 	ret 
   1cf30:	91 e8 00 1d 	restore  %g0, %i5, %o0

0001cf34 <__GI_exit>:
   1cf34:	9d e3 bf 90 	save  %sp, -112, %sp
   1cf38:	15 00 00 00 	sethi  %hi(0), %o2
   1cf3c:	94 1a a3 5c 	xor  %o2, 0x35c, %o2
   1cf40:	2f 00 00 8b 	sethi  %hi(0x22c00), %l7
   1cf44:	7f ff ce 38 	call  10824 <__sparc_get_pc_thunk.l7>
   1cf48:	ae 05 e3 88 	add  %l7, 0x388, %l7	! 22f88 <locale_mmap+0x2828>
   1cf4c:	b8 07 bf f0 	add  %fp, -16, %i4
   1cf50:	ba 05 c0 0a 	add  %l7, %o2, %i5
   1cf54:	90 10 00 1c 	mov  %i4, %o0
   1cf58:	94 10 00 1d 	mov  %i5, %o2
   1cf5c:	13 00 00 a8 	sethi  %hi(0x2a000), %o1
   1cf60:	92 1a 7c bc 	xor  %o1, -836, %o1
   1cf64:	7f ff e3 0f 	call  15ba0 <_pthread_cleanup_push_defer>
   1cf68:	92 05 c0 09 	add  %l7, %o1, %o1
   1cf6c:	7f ff e3 07 	call  15b88 <__pthread_mutex_lock>
   1cf70:	90 10 00 1d 	mov  %i5, %o0
   1cf74:	03 00 00 09 	sethi  %hi(0x2400), %g1
   1cf78:	82 18 63 a4 	xor  %g1, 0x3a4, %g1
   1cf7c:	82 05 c0 01 	add  %l7, %g1, %g1
   1cf80:	c4 00 40 00 	ld  [ %g1 ], %g2
   1cf84:	82 10 00 02 	mov  %g2, %g1
   1cf88:	80 a0 60 00 	cmp  %g1, 0
   1cf8c:	02 80 00 05 	be  1cfa0 <__GI_exit+0x6c>
   1cf90:	92 10 20 01 	mov  1, %o1
   1cf94:	9f c0 80 00 	call  %g2
   1cf98:	90 10 00 18 	mov  %i0, %o0
   1cf9c:	92 10 20 01 	mov  1, %o1
   1cfa0:	7f ff e3 05 	call  15bb4 <_pthread_cleanup_pop_restore>
   1cfa4:	90 10 00 1c 	mov  %i4, %o0
   1cfa8:	7f ff e3 2f 	call  15c64 <__uClibc_fini>
   1cfac:	01 00 00 00 	nop 
   1cfb0:	03 00 00 95 	sethi  %hi(0x25400), %g1
   1cfb4:	82 18 7c 30 	xor  %g1, -976, %g1
   1cfb8:	ae 05 c0 01 	add  %l7, %g1, %l7
   1cfbc:	80 a5 e0 00 	cmp  %l7, 0
   1cfc0:	02 80 00 04 	be  1cfd0 <__GI_exit+0x9c>
   1cfc4:	01 00 00 00 	nop 
   1cfc8:	7f ff f5 cd 	call  1a6fc <_stdio_term>
   1cfcc:	01 00 00 00 	nop 
   1cfd0:	7f ff f3 63 	call  19d5c <__GI__exit>
   1cfd4:	90 10 00 18 	mov  %i0, %o0
   1cfd8:	01 00 00 00 	nop 

0001cfdc <allocate_dtv>:
   1cfdc:	9d e3 bf a0 	save  %sp, -96, %sp
   1cfe0:	03 00 00 0b 	sethi  %hi(0x2c00), %g1
   1cfe4:	82 18 61 80 	xor  %g1, 0x180, %g1
   1cfe8:	2f 00 00 8b 	sethi  %hi(0x22c00), %l7
   1cfec:	7f ff ce 0e 	call  10824 <__sparc_get_pc_thunk.l7>
   1cff0:	ae 05 e2 e0 	add  %l7, 0x2e0, %l7	! 22ee0 <locale_mmap+0x2780>
   1cff4:	92 10 20 08 	mov  8, %o1
   1cff8:	ae 05 c0 01 	add  %l7, %g1, %l7
   1cffc:	d0 05 c0 00 	ld  [ %l7 ], %o0
   1d000:	ba 02 20 0e 	add  %o0, 0xe, %i5
   1d004:	40 00 07 81 	call  1ee08 <calloc>
   1d008:	90 02 20 10 	add  %o0, 0x10, %o0
   1d00c:	80 a2 20 00 	cmp  %o0, 0
   1d010:	02 80 00 06 	be  1d028 <allocate_dtv+0x4c>
   1d014:	01 00 00 00 	nop 
   1d018:	fa 22 00 00 	st  %i5, [ %o0 ]
   1d01c:	90 02 20 08 	add  %o0, 8, %o0
   1d020:	d0 26 20 04 	st  %o0, [ %i0 + 4 ]
   1d024:	90 10 00 18 	mov  %i0, %o0
   1d028:	81 c7 e0 08 	ret 
   1d02c:	91 e8 00 08 	restore  %g0, %o0, %o0

0001d030 <_dl_memalign>:
   1d030:	9d e3 bf a0 	save  %sp, -96, %sp
   1d034:	10 bf de 82 	b  14a3c <malloc>
   1d038:	91 e8 00 19 	restore  %g0, %i1, %o0

0001d03c <_dl_allocate_static_tls>:
   1d03c:	9d e3 bf a0 	save  %sp, -96, %sp
   1d040:	2f 00 00 8b 	sethi  %hi(0x22c00), %l7
   1d044:	7f ff cd f8 	call  10824 <__sparc_get_pc_thunk.l7>
   1d048:	ae 05 e2 88 	add  %l7, 0x288, %l7	! 22e88 <locale_mmap+0x2728>
   1d04c:	fa 06 20 20 	ld  [ %i0 + 0x20 ], %i5
   1d050:	03 00 00 0b 	sethi  %hi(0x2c00), %g1
   1d054:	82 18 61 7c 	xor  %g1, 0x17c, %g1
   1d058:	82 05 c0 01 	add  %l7, %g1, %g1
   1d05c:	c2 00 40 00 	ld  [ %g1 ], %g1
   1d060:	80 a7 40 01 	cmp  %i5, %g1
   1d064:	08 80 00 0c 	bleu  1d094 <_dl_allocate_static_tls+0x58>
   1d068:	03 00 00 00 	sethi  %hi(0), %g1
   1d06c:	03 00 00 00 	sethi  %hi(0), %g1
   1d070:	82 18 62 78 	xor  %g1, 0x278, %g1
   1d074:	82 05 c0 01 	add  %l7, %g1, %g1
   1d078:	13 00 00 81 	sethi  %hi(0x20400), %o1
   1d07c:	d0 00 40 00 	ld  [ %g1 ], %o0
   1d080:	92 1a 7e ac 	xor  %o1, -340, %o1
   1d084:	40 00 05 cd 	call  1e7b8 <__GI_fprintf>
   1d088:	92 05 c0 09 	add  %l7, %o1, %o1
   1d08c:	7f ff ff aa 	call  1cf34 <__GI_exit>
   1d090:	90 10 20 1e 	mov  0x1e, %o0
   1d094:	82 18 62 44 	xor  %g1, 0x244, %g1
   1d098:	82 05 c0 01 	add  %l7, %g1, %g1
   1d09c:	c4 00 40 00 	ld  [ %g1 ], %g2
   1d0a0:	03 00 00 0a 	sethi  %hi(0x2800), %g1
   1d0a4:	82 18 63 78 	xor  %g1, 0x378, %g1
   1d0a8:	84 00 bb b0 	add  %g2, -1104, %g2
   1d0ac:	86 05 c0 01 	add  %l7, %g1, %g3
   1d0b0:	f8 06 20 24 	ld  [ %i0 + 0x24 ], %i4
   1d0b4:	c2 00 c0 00 	ld  [ %g3 ], %g1
   1d0b8:	c8 06 20 1c 	ld  [ %i0 + 0x1c ], %g4
   1d0bc:	82 20 80 01 	sub  %g2, %g1, %g1
   1d0c0:	88 07 00 04 	add  %i4, %g4, %g4
   1d0c4:	80 a0 40 04 	cmp  %g1, %g4
   1d0c8:	0a bf ff e9 	bcs  1d06c <_dl_allocate_static_tls+0x30>
   1d0cc:	84 20 80 1c 	sub  %g2, %i4, %g2
   1d0d0:	82 20 40 04 	sub  %g1, %g4, %g1
   1d0d4:	81 80 20 00 	wr  %g0, %y
   1d0d8:	01 00 00 00 	nop 
   1d0dc:	01 00 00 00 	nop 
   1d0e0:	01 00 00 00 	nop 
   1d0e4:	82 70 40 1d 	udiv  %g1, %i5, %g1
   1d0e8:	82 58 40 1d 	smul  %g1, %i5, %g1
   1d0ec:	82 20 80 01 	sub  %g2, %g1, %g1
   1d0f0:	c2 20 c0 00 	st  %g1, [ %g3 ]
   1d0f4:	c2 26 20 28 	st  %g1, [ %i0 + 0x28 ]
   1d0f8:	c2 16 20 4e 	lduh  [ %i0 + 0x4e ], %g1
   1d0fc:	80 88 60 01 	btst  1, %g1
   1d100:	22 80 00 0a 	be,a   1d128 <_dl_allocate_static_tls+0xec>
   1d104:	c2 0e 20 30 	ldub  [ %i0 + 0x30 ], %g1
   1d108:	03 00 00 00 	sethi  %hi(0), %g1
   1d10c:	82 18 62 40 	xor  %g1, 0x240, %g1
   1d110:	ae 05 c0 01 	add  %l7, %g1, %l7
   1d114:	c2 05 c0 00 	ld  [ %l7 ], %g1
   1d118:	9f c0 40 00 	call  %g1
   1d11c:	90 10 00 18 	mov  %i0, %o0
   1d120:	81 c7 e0 08 	ret 
   1d124:	81 e8 00 00 	restore 
   1d128:	82 10 7f 80 	or  %g1, -128, %g1
   1d12c:	c2 2e 20 30 	stb  %g1, [ %i0 + 0x30 ]
   1d130:	81 c7 e0 08 	ret 
   1d134:	81 e8 00 00 	restore 

0001d138 <_dl_next_tls_modid>:
   1d138:	9d e3 bf a0 	save  %sp, -96, %sp
   1d13c:	03 00 00 0b 	sethi  %hi(0x2c00), %g1
   1d140:	82 18 61 80 	xor  %g1, 0x180, %g1
   1d144:	2f 00 00 8b 	sethi  %hi(0x22c00), %l7
   1d148:	7f ff cd b7 	call  10824 <__sparc_get_pc_thunk.l7>
   1d14c:	ae 05 e1 84 	add  %l7, 0x184, %l7	! 22d84 <locale_mmap+0x2624>
   1d150:	84 05 c0 01 	add  %l7, %g1, %g2
   1d154:	03 00 00 0b 	sethi  %hi(0x2c00), %g1
   1d158:	82 18 61 88 	xor  %g1, 0x188, %g1
   1d15c:	86 05 c0 01 	add  %l7, %g1, %g3
   1d160:	c2 08 c0 00 	ldub  [ %g3 ], %g1
   1d164:	80 a0 60 00 	cmp  %g1, 0
   1d168:	02 80 00 0f 	be  1d1a4 <_dl_next_tls_modid+0x6c>
   1d16c:	f8 00 80 00 	ld  [ %g2 ], %i4
   1d170:	03 00 00 0b 	sethi  %hi(0x2c00), %g1
   1d174:	82 18 61 84 	xor  %g1, 0x184, %g1
   1d178:	82 05 c0 01 	add  %l7, %g1, %g1
   1d17c:	c8 00 40 00 	ld  [ %g1 ], %g4
   1d180:	03 00 00 0b 	sethi  %hi(0x2c00), %g1
   1d184:	82 18 61 90 	xor  %g1, 0x190, %g1
   1d188:	ae 05 c0 01 	add  %l7, %g1, %l7
   1d18c:	f0 05 c0 00 	ld  [ %l7 ], %i0
   1d190:	b0 06 20 01 	inc  %i0
   1d194:	80 a6 00 1c 	cmp  %i0, %i4
   1d198:	08 80 00 0f 	bleu  1d1d4 <_dl_next_tls_modid+0x9c>
   1d19c:	b6 10 20 00 	clr  %i3
   1d1a0:	c0 28 c0 00 	clrb  [ %g3 ]
   1d1a4:	b0 07 20 01 	add  %i4, 1, %i0
   1d1a8:	f0 20 80 00 	st  %i0, [ %g2 ]
   1d1ac:	81 c7 e0 08 	ret 
   1d1b0:	81 e8 00 00 	restore 
   1d1b4:	82 00 40 1d 	add  %g1, %i5, %g1
   1d1b8:	83 28 60 02 	sll  %g1, 2, %g1
   1d1bc:	82 01 00 01 	add  %g4, %g1, %g1
   1d1c0:	c2 00 60 10 	ld  [ %g1 + 0x10 ], %g1
   1d1c4:	80 a0 60 00 	cmp  %g1, 0
   1d1c8:	02 80 00 0d 	be  1d1fc <_dl_next_tls_modid+0xc4>
   1d1cc:	80 a6 00 1c 	cmp  %i0, %i4
   1d1d0:	b0 06 20 01 	inc  %i0
   1d1d4:	ba 26 00 1b 	sub  %i0, %i3, %i5
   1d1d8:	c2 01 00 00 	ld  [ %g4 ], %g1
   1d1dc:	80 a7 40 01 	cmp  %i5, %g1
   1d1e0:	2a bf ff f5 	bcs,a   1d1b4 <_dl_next_tls_modid+0x7c>
   1d1e4:	82 07 40 1d 	add  %i5, %i5, %g1
   1d1e8:	c8 01 20 04 	ld  [ %g4 + 4 ], %g4
   1d1ec:	80 a1 20 00 	cmp  %g4, 0
   1d1f0:	12 bf ff f9 	bne  1d1d4 <_dl_next_tls_modid+0x9c>
   1d1f4:	b6 06 c0 01 	add  %i3, %g1, %i3
   1d1f8:	80 a6 00 1c 	cmp  %i0, %i4
   1d1fc:	38 bf ff ea 	bgu,a   1d1a4 <_dl_next_tls_modid+0x6c>
   1d200:	c0 28 c0 00 	clrb  [ %g3 ]
   1d204:	81 c7 e0 08 	ret 
   1d208:	81 e8 00 00 	restore 

0001d20c <_dl_get_tls_static_info>:
   1d20c:	9d e3 bf a0 	save  %sp, -96, %sp
   1d210:	2f 00 00 8b 	sethi  %hi(0x22c00), %l7
   1d214:	7f ff cd 84 	call  10824 <__sparc_get_pc_thunk.l7>
   1d218:	ae 05 e0 b8 	add  %l7, 0xb8, %l7	! 22cb8 <locale_mmap+0x2558>
   1d21c:	03 00 00 00 	sethi  %hi(0), %g1
   1d220:	82 18 62 44 	xor  %g1, 0x244, %g1
   1d224:	82 05 c0 01 	add  %l7, %g1, %g1
   1d228:	c2 00 40 00 	ld  [ %g1 ], %g1
   1d22c:	c2 26 00 00 	st  %g1, [ %i0 ]
   1d230:	03 00 00 0b 	sethi  %hi(0x2c00), %g1
   1d234:	82 18 61 7c 	xor  %g1, 0x17c, %g1
   1d238:	ae 05 c0 01 	add  %l7, %g1, %l7
   1d23c:	c2 05 c0 00 	ld  [ %l7 ], %g1
   1d240:	c2 26 40 00 	st  %g1, [ %i1 ]
   1d244:	81 c7 e0 08 	ret 
   1d248:	81 e8 00 00 	restore 

0001d24c <_dl_allocate_tls_storage>:
   1d24c:	9d e3 bf a0 	save  %sp, -96, %sp
   1d250:	2f 00 00 8b 	sethi  %hi(0x22c00), %l7
   1d254:	7f ff cd 74 	call  10824 <__sparc_get_pc_thunk.l7>
   1d258:	ae 05 e0 78 	add  %l7, 0x78, %l7	! 22c78 <locale_mmap+0x2518>
   1d25c:	03 00 00 00 	sethi  %hi(0), %g1
   1d260:	82 18 62 44 	xor  %g1, 0x244, %g1
   1d264:	82 05 c0 01 	add  %l7, %g1, %g1
   1d268:	fa 00 40 00 	ld  [ %g1 ], %i5
   1d26c:	03 00 00 0b 	sethi  %hi(0x2c00), %g1
   1d270:	82 18 61 7c 	xor  %g1, 0x17c, %g1
   1d274:	92 10 00 1d 	mov  %i5, %o1
   1d278:	ae 05 c0 01 	add  %l7, %g1, %l7
   1d27c:	7f ff ff 6d 	call  1d030 <_dl_memalign>
   1d280:	d0 05 c0 00 	ld  [ %l7 ], %o0
   1d284:	b0 92 20 00 	orcc  %o0, 0, %i0
   1d288:	02 80 00 0f 	be  1d2c4 <_dl_allocate_tls_storage+0x78>
   1d28c:	94 10 24 50 	mov  0x450, %o2
   1d290:	92 10 20 00 	clr  %o1
   1d294:	ba 07 7b b0 	add  %i5, -1104, %i5
   1d298:	ba 06 00 1d 	add  %i0, %i5, %i5
   1d29c:	7f ff da 90 	call  13cdc <__GI_memset>
   1d2a0:	90 10 00 1d 	mov  %i5, %o0
   1d2a4:	7f ff ff 4e 	call  1cfdc <allocate_dtv>
   1d2a8:	90 10 00 1d 	mov  %i5, %o0
   1d2ac:	ba 92 20 00 	orcc  %o0, 0, %i5
   1d2b0:	32 80 00 05 	bne,a   1d2c4 <_dl_allocate_tls_storage+0x78>
   1d2b4:	b0 10 00 1d 	mov  %i5, %i0
   1d2b8:	7f ff dd 39 	call  1479c <free>
   1d2bc:	90 10 00 18 	mov  %i0, %o0
   1d2c0:	b0 10 00 1d 	mov  %i5, %i0
   1d2c4:	81 c7 e0 08 	ret 
   1d2c8:	81 e8 00 00 	restore 

0001d2cc <_dl_allocate_tls_init>:
   1d2cc:	9d e3 bf a0 	save  %sp, -96, %sp
   1d2d0:	2f 00 00 8a 	sethi  %hi(0x22800), %l7
   1d2d4:	7f ff cd 54 	call  10824 <__sparc_get_pc_thunk.l7>
   1d2d8:	ae 05 e3 f8 	add  %l7, 0x3f8, %l7	! 22bf8 <locale_mmap+0x2498>
   1d2dc:	80 a6 20 00 	cmp  %i0, 0
   1d2e0:	02 80 00 42 	be  1d3e8 <_dl_allocate_tls_init+0x11c>
   1d2e4:	03 00 00 0b 	sethi  %hi(0x2c00), %g1
   1d2e8:	f4 06 20 04 	ld  [ %i0 + 4 ], %i2
   1d2ec:	82 18 61 84 	xor  %g1, 0x184, %g1
   1d2f0:	a0 10 20 00 	clr  %l0
   1d2f4:	82 05 c0 01 	add  %l7, %g1, %g1
   1d2f8:	a2 10 20 00 	clr  %l1
   1d2fc:	f2 00 40 00 	ld  [ %g1 ], %i1
   1d300:	a6 10 20 01 	mov  1, %l3
   1d304:	a8 10 3f ff 	mov  -1, %l4
   1d308:	80 a0 00 11 	cmp  %g0, %l1
   1d30c:	b6 60 3f ff 	subx  %g0, -1, %i3
   1d310:	80 a6 e0 00 	cmp  %i3, 0
   1d314:	02 80 00 03 	be  1d320 <_dl_allocate_tls_init+0x54>
   1d318:	ba 10 20 00 	clr  %i5
   1d31c:	ba 10 20 0c 	mov  0xc, %i5
   1d320:	ba 06 40 1d 	add  %i1, %i5, %i5
   1d324:	03 00 00 0b 	sethi  %hi(0x2c00), %g1
   1d328:	c6 06 40 00 	ld  [ %i1 ], %g3
   1d32c:	82 18 61 80 	xor  %g1, 0x180, %g1
   1d330:	84 04 40 1b 	add  %l1, %i3, %g2
   1d334:	82 05 c0 01 	add  %l7, %g1, %g1
   1d338:	80 a0 c0 1b 	cmp  %g3, %i3
   1d33c:	18 80 00 07 	bgu  1d358 <_dl_allocate_tls_init+0x8c>
   1d340:	c2 00 40 00 	ld  [ %g1 ], %g1
   1d344:	80 a0 80 01 	cmp  %g2, %g1
   1d348:	1a 80 00 27 	bcc  1d3e4 <_dl_allocate_tls_init+0x118>
   1d34c:	a2 10 00 02 	mov  %g2, %l1
   1d350:	10 bf ff ee 	b  1d308 <_dl_allocate_tls_init+0x3c>
   1d354:	f2 06 60 04 	ld  [ %i1 + 4 ], %i1
   1d358:	80 a0 80 01 	cmp  %g2, %g1
   1d35c:	38 80 00 23 	bgu,a   1d3e8 <_dl_allocate_tls_init+0x11c>
   1d360:	e0 26 80 00 	st  %l0, [ %i2 ]
   1d364:	f8 07 60 10 	ld  [ %i5 + 0x10 ], %i4
   1d368:	80 a7 20 00 	cmp  %i4, 0
   1d36c:	22 80 00 0f 	be,a   1d3a8 <_dl_allocate_tls_init+0xdc>
   1d370:	b6 06 e0 01 	inc  %i3
   1d374:	d0 07 20 28 	ld  [ %i4 + 0x28 ], %o0
   1d378:	c2 07 20 2c 	ld  [ %i4 + 0x2c ], %g1
   1d37c:	e4 07 60 08 	ld  [ %i5 + 8 ], %l2
   1d380:	83 28 60 03 	sll  %g1, 3, %g1
   1d384:	80 a2 20 00 	cmp  %o0, 0
   1d388:	12 80 00 0a 	bne  1d3b0 <_dl_allocate_tls_init+0xe4>
   1d38c:	84 06 80 01 	add  %i2, %g1, %g2
   1d390:	e8 26 80 01 	st  %l4, [ %i2 + %g1 ]
   1d394:	c0 28 a0 04 	clrb  [ %g2 + 4 ]
   1d398:	80 a4 00 12 	cmp  %l0, %l2
   1d39c:	2a 80 00 02 	bcs,a   1d3a4 <_dl_allocate_tls_init+0xd8>
   1d3a0:	a0 10 00 12 	mov  %l2, %l0
   1d3a4:	b6 06 e0 01 	inc  %i3
   1d3a8:	10 bf ff df 	b  1d324 <_dl_allocate_tls_init+0x58>
   1d3ac:	ba 07 60 0c 	add  %i5, 0xc, %i5
   1d3b0:	90 26 00 08 	sub  %i0, %o0, %o0
   1d3b4:	d0 26 80 01 	st  %o0, [ %i2 + %g1 ]
   1d3b8:	d4 07 20 18 	ld  [ %i4 + 0x18 ], %o2
   1d3bc:	d2 07 20 14 	ld  [ %i4 + 0x14 ], %o1
   1d3c0:	7f ff fd 5d 	call  1c934 <__GI_mempcpy>
   1d3c4:	e6 28 a0 04 	stb  %l3, [ %g2 + 4 ]
   1d3c8:	c2 07 20 18 	ld  [ %i4 + 0x18 ], %g1
   1d3cc:	d4 07 20 1c 	ld  [ %i4 + 0x1c ], %o2
   1d3d0:	92 10 20 00 	clr  %o1
   1d3d4:	7f ff da 42 	call  13cdc <__GI_memset>
   1d3d8:	94 22 80 01 	sub  %o2, %g1, %o2
   1d3dc:	10 bf ff f0 	b  1d39c <_dl_allocate_tls_init+0xd0>
   1d3e0:	80 a4 00 12 	cmp  %l0, %l2
   1d3e4:	e0 26 80 00 	st  %l0, [ %i2 ]
   1d3e8:	81 c7 e0 08 	ret 
   1d3ec:	81 e8 00 00 	restore 

0001d3f0 <_dl_allocate_tls>:
   1d3f0:	9d e3 bf a0 	save  %sp, -96, %sp
   1d3f4:	80 a6 20 00 	cmp  %i0, 0
   1d3f8:	12 80 00 06 	bne  1d410 <_dl_allocate_tls+0x20>
   1d3fc:	01 00 00 00 	nop 
   1d400:	7f ff ff 93 	call  1d24c <_dl_allocate_tls_storage>
   1d404:	01 00 00 00 	nop 
   1d408:	10 bf ff b1 	b  1d2cc <_dl_allocate_tls_init>
   1d40c:	91 e8 00 08 	restore  %g0, %o0, %o0
   1d410:	7f ff fe f3 	call  1cfdc <allocate_dtv>
   1d414:	90 10 00 18 	mov  %i0, %o0
   1d418:	30 bf ff fc 	b,a   1d408 <_dl_allocate_tls+0x18>

0001d41c <_dl_deallocate_tls>:
   1d41c:	9d e3 bf a0 	save  %sp, -96, %sp
   1d420:	2f 00 00 8a 	sethi  %hi(0x22800), %l7
   1d424:	7f ff cd 00 	call  10824 <__sparc_get_pc_thunk.l7>
   1d428:	ae 05 e2 a8 	add  %l7, 0x2a8, %l7	! 22aa8 <locale_mmap+0x2348>
   1d42c:	fa 06 20 04 	ld  [ %i0 + 4 ], %i5
   1d430:	b6 10 20 00 	clr  %i3
   1d434:	b8 07 60 08 	add  %i5, 8, %i4
   1d438:	c2 07 7f f8 	ld  [ %i5 + -8 ], %g1
   1d43c:	80 a0 40 1b 	cmp  %g1, %i3
   1d440:	38 80 00 14 	bgu,a   1d490 <_dl_deallocate_tls+0x74>
   1d444:	c2 0f 20 04 	ldub  [ %i4 + 4 ], %g1
   1d448:	90 07 7f f8 	add  %i5, -8, %o0
   1d44c:	03 00 00 0a 	sethi  %hi(0x2800), %g1
   1d450:	82 18 63 7c 	xor  %g1, 0x37c, %g1
   1d454:	82 05 c0 01 	add  %l7, %g1, %g1
   1d458:	80 a2 00 01 	cmp  %o0, %g1
   1d45c:	02 80 00 05 	be  1d470 <_dl_deallocate_tls+0x54>
   1d460:	80 a6 60 00 	cmp  %i1, 0
   1d464:	7f ff dc ce 	call  1479c <free>
   1d468:	01 00 00 00 	nop 
   1d46c:	80 a6 60 00 	cmp  %i1, 0
   1d470:	02 80 00 13 	be  1d4bc <_dl_deallocate_tls+0xa0>
   1d474:	03 00 00 00 	sethi  %hi(0), %g1
   1d478:	82 18 62 44 	xor  %g1, 0x244, %g1
   1d47c:	ae 05 c0 01 	add  %l7, %g1, %l7
   1d480:	c2 05 c0 00 	ld  [ %l7 ], %g1
   1d484:	b0 26 00 01 	sub  %i0, %g1, %i0
   1d488:	10 bf dc c5 	b  1479c <free>
   1d48c:	91 ee 24 50 	restore  %i0, 0x450, %o0
   1d490:	80 a0 60 00 	cmp  %g1, 0
   1d494:	12 80 00 08 	bne  1d4b4 <_dl_deallocate_tls+0x98>
   1d498:	b6 06 e0 01 	inc  %i3
   1d49c:	d0 07 00 00 	ld  [ %i4 ], %o0
   1d4a0:	80 a2 3f ff 	cmp  %o0, -1
   1d4a4:	22 bf ff e5 	be,a   1d438 <_dl_deallocate_tls+0x1c>
   1d4a8:	b8 07 20 08 	add  %i4, 8, %i4
   1d4ac:	7f ff dc bc 	call  1479c <free>
   1d4b0:	01 00 00 00 	nop 
   1d4b4:	10 bf ff e1 	b  1d438 <_dl_deallocate_tls+0x1c>
   1d4b8:	b8 07 20 08 	add  %i4, 8, %i4
   1d4bc:	81 c7 e0 08 	ret 
   1d4c0:	81 e8 00 00 	restore 

0001d4c4 <_dl_add_to_slotinfo>:
   1d4c4:	9d e3 bf a0 	save  %sp, -96, %sp
   1d4c8:	2f 00 00 8a 	sethi  %hi(0x22800), %l7
   1d4cc:	7f ff cc d6 	call  10824 <__sparc_get_pc_thunk.l7>
   1d4d0:	ae 05 e2 00 	add  %l7, 0x200, %l7	! 22a00 <locale_mmap+0x22a0>
   1d4d4:	03 00 00 0b 	sethi  %hi(0x2c00), %g1
   1d4d8:	f6 06 20 2c 	ld  [ %i0 + 0x2c ], %i3
   1d4dc:	82 18 61 84 	xor  %g1, 0x184, %g1
   1d4e0:	82 05 c0 01 	add  %l7, %g1, %g1
   1d4e4:	fa 00 40 00 	ld  [ %g1 ], %i5
   1d4e8:	c2 07 40 00 	ld  [ %i5 ], %g1
   1d4ec:	80 a0 40 1b 	cmp  %g1, %i3
   1d4f0:	38 80 00 26 	bgu,a   1d588 <_dl_add_to_slotinfo+0xc4>
   1d4f4:	82 06 c0 1b 	add  %i3, %i3, %g1
   1d4f8:	b6 26 c0 01 	sub  %i3, %g1, %i3
   1d4fc:	c2 07 60 04 	ld  [ %i5 + 4 ], %g1
   1d500:	80 a0 60 00 	cmp  %g1, 0
   1d504:	32 bf ff f9 	bne,a   1d4e8 <_dl_add_to_slotinfo+0x24>
   1d508:	ba 10 00 01 	mov  %g1, %i5
   1d50c:	7f ff dd 4c 	call  14a3c <malloc>
   1d510:	90 10 22 f0 	mov  0x2f0, %o0
   1d514:	d0 27 60 04 	st  %o0, [ %i5 + 4 ]
   1d518:	80 a2 20 00 	cmp  %o0, 0
   1d51c:	12 80 00 12 	bne  1d564 <_dl_add_to_slotinfo+0xa0>
   1d520:	b8 10 00 08 	mov  %o0, %i4
   1d524:	03 00 00 0b 	sethi  %hi(0x2c00), %g1
   1d528:	82 18 61 8c 	xor  %g1, 0x18c, %g1
   1d52c:	82 05 c0 01 	add  %l7, %g1, %g1
   1d530:	c4 00 40 00 	ld  [ %g1 ], %g2
   1d534:	84 00 a0 01 	inc  %g2
   1d538:	c4 20 40 00 	st  %g2, [ %g1 ]
   1d53c:	03 00 00 00 	sethi  %hi(0), %g1
   1d540:	82 18 62 78 	xor  %g1, 0x278, %g1
   1d544:	82 05 c0 01 	add  %l7, %g1, %g1
   1d548:	13 00 00 81 	sethi  %hi(0x20400), %o1
   1d54c:	d0 00 40 00 	ld  [ %g1 ], %o0
   1d550:	92 1a 7e dc 	xor  %o1, -292, %o1
   1d554:	40 00 04 99 	call  1e7b8 <__GI_fprintf>
   1d558:	92 05 c0 09 	add  %l7, %o1, %o1
   1d55c:	7f ff fe 76 	call  1cf34 <__GI_exit>
   1d560:	90 10 20 7f 	mov  0x7f, %o0
   1d564:	82 10 20 3e 	mov  0x3e, %g1
   1d568:	c0 27 20 04 	clr  [ %i4 + 4 ]
   1d56c:	c2 27 00 00 	st  %g1, [ %i4 ]
   1d570:	94 10 22 e8 	mov  0x2e8, %o2
   1d574:	92 10 20 00 	clr  %o1
   1d578:	90 07 20 08 	add  %i4, 8, %o0
   1d57c:	7f ff d9 d8 	call  13cdc <__GI_memset>
   1d580:	ba 10 00 1c 	mov  %i4, %i5
   1d584:	82 06 c0 1b 	add  %i3, %i3, %g1
   1d588:	82 00 40 1b 	add  %g1, %i3, %g1
   1d58c:	83 28 60 02 	sll  %g1, 2, %g1
   1d590:	ba 07 40 01 	add  %i5, %g1, %i5
   1d594:	03 00 00 0b 	sethi  %hi(0x2c00), %g1
   1d598:	f0 27 60 10 	st  %i0, [ %i5 + 0x10 ]
   1d59c:	82 18 61 8c 	xor  %g1, 0x18c, %g1
   1d5a0:	82 05 c0 01 	add  %l7, %g1, %g1
   1d5a4:	c2 00 40 00 	ld  [ %g1 ], %g1
   1d5a8:	82 00 60 01 	inc  %g1
   1d5ac:	c2 27 60 08 	st  %g1, [ %i5 + 8 ]
   1d5b0:	81 c7 e0 08 	ret 
   1d5b4:	81 e8 00 00 	restore 

0001d5b8 <__GI_brk>:
   1d5b8:	9d e3 bf a0 	save  %sp, -96, %sp
   1d5bc:	82 10 20 11 	mov  0x11, %g1
   1d5c0:	2f 00 00 8a 	sethi  %hi(0x22800), %l7
   1d5c4:	7f ff cc 98 	call  10824 <__sparc_get_pc_thunk.l7>
   1d5c8:	ae 05 e1 08 	add  %l7, 0x108, %l7	! 22908 <locale_mmap+0x21a8>
   1d5cc:	90 10 00 18 	mov  %i0, %o0
   1d5d0:	91 d0 20 10 	ta  0x10
   1d5d4:	03 00 00 09 	sethi  %hi(0x2400), %g1
   1d5d8:	82 18 63 ac 	xor  %g1, 0x3ac, %g1
   1d5dc:	82 05 c0 01 	add  %l7, %g1, %g1
   1d5e0:	d0 20 40 00 	st  %o0, [ %g1 ]
   1d5e4:	80 a6 00 08 	cmp  %i0, %o0
   1d5e8:	08 80 00 08 	bleu  1d608 <__GI_brk+0x50>
   1d5ec:	82 10 20 00 	clr  %g1
   1d5f0:	03 00 00 00 	sethi  %hi(0), %g1
   1d5f4:	82 18 7f f8 	xor  %g1, -8, %g1
   1d5f8:	ae 10 00 01 	mov  %g1, %l7
   1d5fc:	82 10 20 0c 	mov  0xc, %g1
   1d600:	c2 21 c0 17 	st  %g1, [ %g7 + %l7 ]
   1d604:	82 10 3f ff 	mov  -1, %g1
   1d608:	81 c7 e0 08 	ret 
   1d60c:	91 e8 00 01 	restore  %g0, %g1, %o0

0001d610 <__GI_ioctl>:
   1d610:	9d e3 bf 98 	save  %sp, -104, %sp
   1d614:	82 07 a0 4c 	add  %fp, 0x4c, %g1
   1d618:	f4 27 a0 4c 	st  %i2, [ %fp + 0x4c ]
   1d61c:	f6 27 a0 50 	st  %i3, [ %fp + 0x50 ]
   1d620:	f8 27 a0 54 	st  %i4, [ %fp + 0x54 ]
   1d624:	fa 27 a0 58 	st  %i5, [ %fp + 0x58 ]
   1d628:	c2 27 bf fc 	st  %g1, [ %fp + -4 ]
   1d62c:	2f 00 00 8a 	sethi  %hi(0x22800), %l7
   1d630:	7f ff cc 7d 	call  10824 <__sparc_get_pc_thunk.l7>
   1d634:	ae 05 e0 9c 	add  %l7, 0x9c, %l7	! 2289c <locale_mmap+0x213c>
   1d638:	c2 01 e0 0c 	ld  [ %g7 + 0xc ], %g1
   1d63c:	80 a0 60 00 	cmp  %g1, 0
   1d640:	12 80 00 12 	bne  1d688 <__GI_ioctl+0x78>
   1d644:	82 10 20 36 	mov  0x36, %g1
   1d648:	94 10 00 1a 	mov  %i2, %o2
   1d64c:	92 10 00 19 	mov  %i1, %o1
   1d650:	90 10 00 18 	mov  %i0, %o0
   1d654:	91 d0 20 10 	ta  0x10
   1d658:	1a 80 00 03 	bcc  1d664 <__GI_ioctl+0x54>
   1d65c:	b0 10 00 08 	mov  %o0, %i0
   1d660:	b0 20 00 08 	neg  %o0, %i0
   1d664:	80 a6 30 00 	cmp  %i0, -4096
   1d668:	08 80 00 1d 	bleu  1d6dc <__GI_ioctl+0xcc>
   1d66c:	03 00 00 00 	sethi  %hi(0), %g1
   1d670:	b0 20 00 18 	neg  %i0
   1d674:	82 18 7f f8 	xor  %g1, -8, %g1
   1d678:	01 00 00 00 	nop 
   1d67c:	f0 21 c0 01 	st  %i0, [ %g7 + %g1 ]
   1d680:	81 c7 e0 08 	ret 
   1d684:	91 e8 3f ff 	restore  %g0, -1, %o0
   1d688:	7f ff e3 3c 	call  16378 <__libc_enable_asynccancel>
   1d68c:	01 00 00 00 	nop 
   1d690:	82 10 20 36 	mov  0x36, %g1	! 36 <__libc_h_errno+0x32>
   1d694:	84 10 00 08 	mov  %o0, %g2
   1d698:	94 10 00 1a 	mov  %i2, %o2
   1d69c:	92 10 00 19 	mov  %i1, %o1
   1d6a0:	90 10 00 18 	mov  %i0, %o0
   1d6a4:	91 d0 20 10 	ta  0x10
   1d6a8:	1a 80 00 03 	bcc  1d6b4 <__GI_ioctl+0xa4>
   1d6ac:	b0 10 00 08 	mov  %o0, %i0
   1d6b0:	b0 20 00 08 	neg  %o0, %i0
   1d6b4:	80 a6 30 00 	cmp  %i0, -4096
   1d6b8:	08 80 00 07 	bleu  1d6d4 <__GI_ioctl+0xc4>
   1d6bc:	03 00 00 00 	sethi  %hi(0), %g1
   1d6c0:	b0 20 00 18 	neg  %i0
   1d6c4:	82 18 7f f8 	xor  %g1, -8, %g1
   1d6c8:	ae 10 00 01 	mov  %g1, %l7
   1d6cc:	f0 21 c0 17 	st  %i0, [ %g7 + %l7 ]
   1d6d0:	b0 10 3f ff 	mov  -1, %i0
   1d6d4:	7f ff e3 66 	call  1646c <__libc_disable_asynccancel>
   1d6d8:	90 10 00 02 	mov  %g2, %o0
   1d6dc:	81 c7 e0 08 	ret 
   1d6e0:	81 e8 00 00 	restore 

0001d6e4 <__GI_mremap>:
   1d6e4:	9d e3 bf a0 	save  %sp, -96, %sp
   1d6e8:	2f 00 00 89 	sethi  %hi(0x22400), %l7
   1d6ec:	7f ff cc 4e 	call  10824 <__sparc_get_pc_thunk.l7>
   1d6f0:	ae 05 e3 e0 	add  %l7, 0x3e0, %l7	! 227e0 <locale_mmap+0x2080>
   1d6f4:	82 10 20 fa 	mov  0xfa, %g1
   1d6f8:	98 10 00 1c 	mov  %i4, %o4
   1d6fc:	96 10 00 1b 	mov  %i3, %o3
   1d700:	94 10 00 1a 	mov  %i2, %o2
   1d704:	92 10 00 19 	mov  %i1, %o1
   1d708:	90 10 00 18 	mov  %i0, %o0
   1d70c:	91 d0 20 10 	ta  0x10
   1d710:	1a 80 00 03 	bcc  1d71c <__GI_mremap+0x38>
   1d714:	b0 10 00 08 	mov  %o0, %i0
   1d718:	b0 20 00 08 	neg  %o0, %i0
   1d71c:	80 a6 30 00 	cmp  %i0, -4096
   1d720:	08 80 00 07 	bleu  1d73c <__GI_mremap+0x58>
   1d724:	03 00 00 00 	sethi  %hi(0), %g1
   1d728:	b0 20 00 18 	neg  %i0
   1d72c:	82 18 7f f8 	xor  %g1, -8, %g1
   1d730:	ae 10 00 01 	mov  %g1, %l7
   1d734:	f0 21 c0 17 	st  %i0, [ %g7 + %l7 ]
   1d738:	b0 10 3f ff 	mov  -1, %i0
   1d73c:	81 c7 e0 08 	ret 
   1d740:	81 e8 00 00 	restore 

0001d744 <_locale_set_l>:
   1d744:	9d e3 bf 58 	save  %sp, -168, %sp
   1d748:	c0 27 bf f4 	clr  [ %fp + -12 ]
   1d74c:	c4 0e 20 09 	ldub  [ %i0 + 9 ], %g2
   1d750:	c2 0e 69 15 	ldub  [ %i1 + 0x915 ], %g1
   1d754:	2f 00 00 89 	sethi  %hi(0x22400), %l7
   1d758:	7f ff cc 33 	call  10824 <__sparc_get_pc_thunk.l7>
   1d75c:	ae 05 e3 74 	add  %l7, 0x374, %l7	! 22774 <locale_mmap+0x2014>
   1d760:	80 a0 80 01 	cmp  %g2, %g1
   1d764:	12 80 00 08 	bne  1d784 <_locale_set_l+0x40>
   1d768:	03 00 00 00 	sethi  %hi(0), %g1
   1d76c:	c4 0e 20 0a 	ldub  [ %i0 + 0xa ], %g2
   1d770:	c2 0e 69 16 	ldub  [ %i1 + 0x916 ], %g1
   1d774:	80 a0 80 01 	cmp  %g2, %g1
   1d778:	22 80 00 1f 	be,a   1d7f4 <_locale_set_l+0xb0>
   1d77c:	39 00 00 0f 	sethi  %hi(0x3c00), %i4
   1d780:	03 00 00 00 	sethi  %hi(0), %g1
   1d784:	05 00 00 0f 	sethi  %hi(0x3c00), %g2
   1d788:	82 18 63 7c 	xor  %g1, 0x37c, %g1
   1d78c:	84 10 a3 80 	or  %g2, 0x380, %g2
   1d790:	82 05 c0 01 	add  %l7, %g1, %g1
   1d794:	e0 00 40 00 	ld  [ %g1 ], %l0
   1d798:	c2 0e 20 01 	ldub  [ %i0 + 1 ], %g1
   1d79c:	83 28 60 07 	sll  %g1, 7, %g1
   1d7a0:	82 08 40 02 	and  %g1, %g2, %g1
   1d7a4:	c4 0e 20 02 	ldub  [ %i0 + 2 ], %g2
   1d7a8:	84 08 a0 7f 	and  %g2, 0x7f, %g2
   1d7ac:	82 10 40 02 	or  %g1, %g2, %g1
   1d7b0:	85 28 60 03 	sll  %g1, 3, %g2
   1d7b4:	82 00 80 01 	add  %g2, %g1, %g1
   1d7b8:	05 00 00 1d 	sethi  %hi(0x7400), %g2
   1d7bc:	82 04 00 01 	add  %l0, %g1, %g1
   1d7c0:	84 10 a0 0f 	or  %g2, 0xf, %g2
   1d7c4:	c4 08 40 02 	ldub  [ %g1 + %g2 ], %g2
   1d7c8:	80 a0 a0 00 	cmp  %g2, 0
   1d7cc:	12 80 00 56 	bne  1d924 <_locale_set_l+0x1e0>
   1d7d0:	b8 07 bf b8 	add  %fp, -72, %i4
   1d7d4:	c0 37 bf b8 	clrh  [ %fp + -72 ]
   1d7d8:	7f ff db f1 	call  1479c <free>
   1d7dc:	d0 06 6b 1c 	ld  [ %i1 + 0xb1c ], %o0
   1d7e0:	94 10 20 48 	mov  0x48, %o2
   1d7e4:	92 10 00 1c 	mov  %i4, %o1
   1d7e8:	7f ff d5 13 	call  12c34 <__GI_memcpy>
   1d7ec:	90 06 6a e0 	add  %i1, 0xae0, %o0
   1d7f0:	39 00 00 0f 	sethi  %hi(0x3c00), %i4
   1d7f4:	37 00 00 1c 	sethi  %hi(0x7000), %i3
   1d7f8:	a6 06 69 0d 	add  %i1, 0x90d, %l3
   1d7fc:	b0 06 20 01 	inc  %i0
   1d800:	a8 10 20 00 	clr  %l4
   1d804:	b8 17 23 80 	or  %i4, 0x380, %i4
   1d808:	b4 16 e3 a0 	or  %i3, 0x3a0, %i2
   1d80c:	a0 06 61 0c 	add  %i1, 0x10c, %l0
   1d810:	a2 06 64 0c 	add  %i1, 0x40c, %l1
   1d814:	a4 06 67 0c 	add  %i1, 0x70c, %l2
   1d818:	c6 0e 00 00 	ldub  [ %i0 ], %g3
   1d81c:	c8 0c c0 00 	ldub  [ %l3 ], %g4
   1d820:	84 08 e0 ff 	and  %g3, 0xff, %g2
   1d824:	80 a0 80 04 	cmp  %g2, %g4
   1d828:	12 80 00 07 	bne  1d844 <_locale_set_l+0x100>
   1d82c:	c2 0e 20 01 	ldub  [ %i0 + 1 ], %g1
   1d830:	fa 0c e0 01 	ldub  [ %l3 + 1 ], %i5
   1d834:	88 08 60 ff 	and  %g1, 0xff, %g4
   1d838:	80 a7 40 04 	cmp  %i5, %g4
   1d83c:	22 80 00 33 	be,a   1d908 <_locale_set_l+0x1c4>
   1d840:	a8 05 20 01 	inc  %l4
   1d844:	c6 2c c0 00 	stb  %g3, [ %l3 ]
   1d848:	c6 0e 20 01 	ldub  [ %i0 + 1 ], %g3
   1d84c:	80 a5 20 04 	cmp  %l4, 4
   1d850:	02 80 00 2d 	be  1d904 <_locale_set_l+0x1c0>
   1d854:	c6 2c e0 01 	stb  %g3, [ %l3 + 1 ]
   1d858:	82 08 60 7f 	and  %g1, 0x7f, %g1
   1d85c:	85 28 a0 07 	sll  %g2, 7, %g2
   1d860:	84 08 80 1c 	and  %g2, %i4, %g2
   1d864:	84 10 80 01 	or  %g2, %g1, %g2
   1d868:	03 00 00 00 	sethi  %hi(0), %g1
   1d86c:	82 18 63 7c 	xor  %g1, 0x37c, %g1
   1d870:	82 05 c0 01 	add  %l7, %g1, %g1
   1d874:	c2 00 40 00 	ld  [ %g1 ], %g1
   1d878:	86 00 40 14 	add  %g1, %l4, %g3
   1d87c:	de 08 c0 1a 	ldub  [ %g3 + %i2 ], %o7
   1d880:	80 a3 e0 00 	cmp  %o7, 0
   1d884:	12 80 00 d2 	bne  1dbcc <_locale_set_l+0x488>
   1d888:	80 a5 20 00 	cmp  %l4, 0
   1d88c:	12 80 01 63 	bne  1de18 <_locale_set_l+0x6d4>
   1d890:	80 a5 20 01 	cmp  %l4, 1
   1d894:	87 28 a0 03 	sll  %g2, 3, %g3
   1d898:	86 00 c0 02 	add  %g3, %g2, %g3
   1d89c:	05 00 00 1d 	sethi  %hi(0x7400), %g2
   1d8a0:	86 00 40 03 	add  %g1, %g3, %g3
   1d8a4:	88 10 a0 0a 	or  %g2, 0xa, %g4
   1d8a8:	c6 08 c0 04 	ldub  [ %g3 + %g4 ], %g3
   1d8ac:	80 a0 e0 02 	cmp  %g3, 2
   1d8b0:	14 80 00 f2 	bg  1dc78 <_locale_set_l+0x534>
   1d8b4:	86 00 ff fd 	add  %g3, -3, %g3
   1d8b8:	12 80 00 eb 	bne  1dc64 <_locale_set_l+0x520>
   1d8bc:	03 00 00 81 	sethi  %hi(0x20400), %g1
   1d8c0:	03 00 00 81 	sethi  %hi(0x20400), %g1
   1d8c4:	82 18 7f 24 	xor  %g1, -220, %g1
   1d8c8:	82 05 c0 01 	add  %l7, %g1, %g1
   1d8cc:	c2 26 69 a0 	st  %g1, [ %i1 + 0x9a0 ]
   1d8d0:	82 10 21 06 	mov  0x106, %g1
   1d8d4:	c2 36 69 2c 	sth  %g1, [ %i1 + 0x92c ]
   1d8d8:	ba 10 20 00 	clr  %i5
   1d8dc:	ac 06 69 78 	add  %i1, 0x978, %l6
   1d8e0:	aa 06 69 2e 	add  %i1, 0x92e, %l5
   1d8e4:	83 2f 60 02 	sll  %i5, 2, %g1
   1d8e8:	7f ff da 46 	call  14200 <__GI_strlen>
   1d8ec:	d0 05 80 01 	ld  [ %l6 + %g1 ], %o0
   1d8f0:	d0 2d 40 1d 	stb  %o0, [ %l5 + %i5 ]
   1d8f4:	ba 07 60 01 	inc  %i5
   1d8f8:	80 a7 60 0a 	cmp  %i5, 0xa
   1d8fc:	12 bf ff fb 	bne  1d8e8 <_locale_set_l+0x1a4>
   1d900:	83 2f 60 02 	sll  %i5, 2, %g1
   1d904:	a8 05 20 01 	inc  %l4
   1d908:	b0 06 20 02 	add  %i0, 2, %i0
   1d90c:	80 a5 20 06 	cmp  %l4, 6
   1d910:	12 bf ff c2 	bne  1d818 <_locale_set_l+0xd4>
   1d914:	a6 04 e0 02 	add  %l3, 2, %l3
   1d918:	84 10 20 01 	mov  1, %g2
   1d91c:	81 c7 e0 08 	ret 
   1d920:	91 e8 00 02 	restore  %g0, %g2, %o0
   1d924:	23 00 00 0e 	sethi  %hi(0x3800), %l1
   1d928:	84 00 bf ff 	add  %g2, -1, %g2
   1d92c:	a2 14 62 0c 	or  %l1, 0x20c, %l1
   1d930:	85 28 a0 03 	sll  %g2, 3, %g2
   1d934:	c2 14 00 11 	lduh  [ %l0 + %l1 ], %g1
   1d938:	82 58 60 26 	smul  %g1, 0x26, %g1
   1d93c:	82 00 60 10 	add  %g1, 0x10, %g1
   1d940:	82 00 40 02 	add  %g1, %g2, %g1
   1d944:	ba 04 00 11 	add  %l0, %l1, %i5
   1d948:	94 10 20 1c 	mov  0x1c, %o2
   1d94c:	b4 07 40 01 	add  %i5, %g1, %i2
   1d950:	f6 17 40 01 	lduh  [ %i5 + %g1 ], %i3
   1d954:	90 10 00 1c 	mov  %i4, %o0
   1d958:	b6 5e e0 26 	smul  %i3, 0x26, %i3
   1d95c:	b6 06 e0 10 	add  %i3, 0x10, %i3
   1d960:	b6 07 40 1b 	add  %i5, %i3, %i3
   1d964:	7f ff d4 b4 	call  12c34 <__GI_memcpy>
   1d968:	92 10 00 1b 	mov  %i3, %o1
   1d96c:	c2 16 a0 02 	lduh  [ %i2 + 2 ], %g1
   1d970:	c4 17 bf be 	lduh  [ %fp + -66 ], %g2
   1d974:	c2 37 bf ca 	sth  %g1, [ %fp + -54 ]
   1d978:	82 10 20 01 	mov  1, %g1
   1d97c:	85 28 40 02 	sll  %g1, %g2, %g2
   1d980:	84 00 bf ff 	add  %g2, -1, %g2
   1d984:	c4 37 bf d6 	sth  %g2, [ %fp + -42 ]
   1d988:	c4 17 bf bc 	lduh  [ %fp + -68 ], %g2
   1d98c:	83 28 40 02 	sll  %g1, %g2, %g1
   1d990:	c4 17 60 02 	lduh  [ %i5 + 2 ], %g2
   1d994:	82 00 7f ff 	add  %g1, -1, %g1
   1d998:	85 28 a0 03 	sll  %g2, 3, %g2
   1d99c:	c2 37 bf d4 	sth  %g1, [ %fp + -44 ]
   1d9a0:	c2 14 00 11 	lduh  [ %l0 + %l1 ], %g1
   1d9a4:	82 58 60 26 	smul  %g1, 0x26, %g1
   1d9a8:	82 00 40 02 	add  %g1, %g2, %g1
   1d9ac:	c4 16 e0 1c 	lduh  [ %i3 + 0x1c ], %g2
   1d9b0:	82 00 60 10 	add  %g1, 0x10, %g1
   1d9b4:	83 30 60 01 	srl  %g1, 1, %g1
   1d9b8:	84 00 80 01 	add  %g2, %g1, %g2
   1d9bc:	84 00 80 02 	add  %g2, %g2, %g2
   1d9c0:	84 07 40 02 	add  %i5, %g2, %g2
   1d9c4:	c6 17 60 06 	lduh  [ %i5 + 6 ], %g3
   1d9c8:	c4 27 bf d8 	st  %g2, [ %fp + -40 ]
   1d9cc:	82 00 40 03 	add  %g1, %g3, %g1
   1d9d0:	c4 16 e0 1e 	lduh  [ %i3 + 0x1e ], %g2
   1d9d4:	84 00 80 01 	add  %g2, %g1, %g2
   1d9d8:	84 00 80 02 	add  %g2, %g2, %g2
   1d9dc:	84 07 40 02 	add  %i5, %g2, %g2
   1d9e0:	c4 27 bf dc 	st  %g2, [ %fp + -36 ]
   1d9e4:	84 00 c0 01 	add  %g3, %g1, %g2
   1d9e8:	c2 16 a0 06 	lduh  [ %i2 + 6 ], %g1
   1d9ec:	82 00 40 02 	add  %g1, %g2, %g1
   1d9f0:	82 00 40 01 	add  %g1, %g1, %g1
   1d9f4:	82 07 40 01 	add  %i5, %g1, %g1
   1d9f8:	c2 27 bf e0 	st  %g1, [ %fp + -32 ]
   1d9fc:	c2 17 60 0a 	lduh  [ %i5 + 0xa ], %g1
   1da00:	84 00 40 02 	add  %g1, %g2, %g2
   1da04:	c2 16 a0 04 	lduh  [ %i2 + 4 ], %g1
   1da08:	82 00 40 02 	add  %g1, %g2, %g1
   1da0c:	82 00 40 01 	add  %g1, %g1, %g1
   1da10:	82 07 40 01 	add  %i5, %g1, %g1
   1da14:	c2 27 bf e8 	st  %g1, [ %fp + -24 ]
   1da18:	c2 17 60 0c 	lduh  [ %i5 + 0xc ], %g1
   1da1c:	82 00 40 02 	add  %g1, %g2, %g1
   1da20:	84 00 40 01 	add  %g1, %g1, %g2
   1da24:	84 07 40 02 	add  %i5, %g2, %g2
   1da28:	c4 27 bf f0 	st  %g2, [ %fp + -16 ]
   1da2c:	c4 17 60 0e 	lduh  [ %i5 + 0xe ], %g2
   1da30:	84 00 80 01 	add  %g2, %g1, %g2
   1da34:	82 00 80 02 	add  %g2, %g2, %g1
   1da38:	82 07 40 01 	add  %i5, %g1, %g1
   1da3c:	c2 27 bf ec 	st  %g1, [ %fp + -20 ]
   1da40:	c2 17 60 08 	lduh  [ %i5 + 8 ], %g1
   1da44:	82 00 40 02 	add  %g1, %g2, %g1
   1da48:	c4 16 e0 22 	lduh  [ %i3 + 0x22 ], %g2
   1da4c:	82 00 40 02 	add  %g1, %g2, %g1
   1da50:	c4 16 e0 24 	lduh  [ %i3 + 0x24 ], %g2
   1da54:	85 28 a0 10 	sll  %g2, 0x10, %g2
   1da58:	82 00 40 02 	add  %g1, %g2, %g1
   1da5c:	82 00 40 01 	add  %g1, %g1, %g1
   1da60:	82 07 40 01 	add  %i5, %g1, %g1
   1da64:	c2 27 bf e4 	st  %g1, [ %fp + -28 ]
   1da68:	c2 17 60 04 	lduh  [ %i5 + 4 ], %g1
   1da6c:	d0 17 bf c8 	lduh  [ %fp + -56 ], %o0
   1da70:	c2 37 bf fc 	sth  %g1, [ %fp + -4 ]
   1da74:	90 02 20 01 	inc  %o0
   1da78:	92 10 20 02 	mov  2, %o1
   1da7c:	40 00 04 e3 	call  1ee08 <calloc>
   1da80:	91 2a 20 01 	sll  %o0, 1, %o0
   1da84:	d0 27 bf f4 	st  %o0, [ %fp + -12 ]
   1da88:	80 a2 20 00 	cmp  %o0, 0
   1da8c:	02 bf ff a4 	be  1d91c <_locale_set_l+0x1d8>
   1da90:	84 10 20 00 	clr  %g2
   1da94:	c4 17 bf c8 	lduh  [ %fp + -56 ], %g2
   1da98:	84 00 a0 01 	inc  %g2
   1da9c:	84 00 80 02 	add  %g2, %g2, %g2
   1daa0:	82 02 00 02 	add  %o0, %g2, %g1
   1daa4:	d4 17 bf c6 	lduh  [ %fp + -58 ], %o2
   1daa8:	c2 27 bf f8 	st  %g1, [ %fp + -8 ]
   1daac:	95 2a a0 01 	sll  %o2, 1, %o2
   1dab0:	7f ff d4 61 	call  12c34 <__GI_memcpy>
   1dab4:	d2 07 bf d8 	ld  [ %fp + -40 ], %o1
   1dab8:	d4 17 bf c6 	lduh  [ %fp + -58 ], %o2
   1dabc:	d2 07 bf dc 	ld  [ %fp + -36 ], %o1
   1dac0:	95 2a a0 01 	sll  %o2, 1, %o2
   1dac4:	7f ff d4 5c 	call  12c34 <__GI_memcpy>
   1dac8:	d0 07 bf f8 	ld  [ %fp + -8 ], %o0
   1dacc:	35 1f ff ff 	sethi  %hi(0x7ffffc00), %i2
   1dad0:	c2 07 bf e8 	ld  [ %fp + -24 ], %g1
   1dad4:	de 07 bf f4 	ld  [ %fp + -12 ], %o7
   1dad8:	da 07 bf f8 	ld  [ %fp + -8 ], %o5
   1dadc:	b4 16 a3 ff 	or  %i2, 0x3ff, %i2
   1dae0:	c4 10 40 00 	lduh  [ %g1 ], %g2
   1dae4:	f6 10 60 02 	lduh  [ %g1 + 2 ], %i3
   1dae8:	80 a0 a0 01 	cmp  %g2, 1
   1daec:	18 80 00 19 	bgu  1db50 <_locale_set_l+0x40c>
   1daf0:	86 10 00 02 	mov  %g2, %g3
   1daf4:	07 1f ff ff 	sethi  %hi(0x7ffffc00), %g3
   1daf8:	86 10 e3 ff 	or  %g3, 0x3ff, %g3	! 7fffffff <_end+0x7ffbc85f>
   1dafc:	c4 10 60 02 	lduh  [ %g1 + 2 ], %g2
   1db00:	80 a0 a0 00 	cmp  %g2, 0
   1db04:	32 80 00 24 	bne,a   1db94 <_locale_set_l+0x450>
   1db08:	c8 10 60 04 	lduh  [ %g1 + 4 ], %g4
   1db0c:	c6 07 bf e0 	ld  [ %fp + -32 ], %g3
   1db10:	c8 10 c0 00 	lduh  [ %g3 ], %g4
   1db14:	83 28 a0 10 	sll  %g2, 0x10, %g1
   1db18:	83 30 60 10 	srl  %g1, 0x10, %g1
   1db1c:	80 a1 00 01 	cmp  %g4, %g1
   1db20:	08 bf ff 2e 	bleu  1d7d8 <_locale_set_l+0x94>
   1db24:	82 00 80 02 	add  %g2, %g2, %g1
   1db28:	c2 10 c0 01 	lduh  [ %g3 + %g1 ], %g1
   1db2c:	82 00 40 01 	add  %g1, %g1, %g1
   1db30:	82 00 c0 01 	add  %g3, %g1, %g1
   1db34:	ba 00 60 02 	add  %g1, 2, %i5
   1db38:	c2 10 60 02 	lduh  [ %g1 + 2 ], %g1
   1db3c:	80 a0 60 00 	cmp  %g1, 0
   1db40:	12 80 00 1c 	bne  1dbb0 <_locale_set_l+0x46c>
   1db44:	82 10 00 1d 	mov  %i5, %g1
   1db48:	10 bf ff f3 	b  1db14 <_locale_set_l+0x3d0>
   1db4c:	84 00 a0 01 	inc  %g2
   1db50:	82 00 60 04 	add  %g1, 4, %g1
   1db54:	88 10 00 03 	mov  %g3, %g4
   1db58:	ba 10 00 01 	mov  %g1, %i5
   1db5c:	b6 00 80 1b 	add  %g2, %i3, %i3
   1db60:	c4 17 40 00 	lduh  [ %i5 ], %g2
   1db64:	98 26 c0 04 	sub  %i3, %g4, %o4
   1db68:	84 00 80 1a 	add  %g2, %i2, %g2
   1db6c:	84 00 80 02 	add  %g2, %g2, %g2
   1db70:	d8 33 c0 02 	sth  %o4, [ %o7 + %g2 ]
   1db74:	d8 17 60 02 	lduh  [ %i5 + 2 ], %o4
   1db78:	d8 33 40 02 	sth  %o4, [ %o5 + %g2 ]
   1db7c:	88 81 3f ff 	addcc  %g4, -1, %g4
   1db80:	12 bf ff f8 	bne  1db60 <_locale_set_l+0x41c>
   1db84:	ba 07 60 04 	add  %i5, 4, %i5
   1db88:	87 28 e0 02 	sll  %g3, 2, %g3
   1db8c:	10 bf ff d5 	b  1dae0 <_locale_set_l+0x39c>
   1db90:	82 00 40 03 	add  %g1, %g3, %g1
   1db94:	84 00 80 03 	add  %g2, %g3, %g2
   1db98:	84 00 80 02 	add  %g2, %g2, %g2
   1db9c:	c8 33 c0 02 	sth  %g4, [ %o7 + %g2 ]
   1dba0:	82 00 60 06 	add  %g1, 6, %g1
   1dba4:	c8 10 40 00 	lduh  [ %g1 ], %g4
   1dba8:	10 bf ff d5 	b  1dafc <_locale_set_l+0x3b8>
   1dbac:	c8 33 40 02 	sth  %g4, [ %o5 + %g2 ]
   1dbb0:	82 00 60 02 	add  %g1, 2, %g1
   1dbb4:	fa 10 7f fe 	lduh  [ %g1 + -2 ], %i5
   1dbb8:	80 a7 60 00 	cmp  %i5, 0
   1dbbc:	32 bf ff fe 	bne,a   1dbb4 <_locale_set_l+0x470>
   1dbc0:	82 00 60 02 	add  %g1, 2, %g1
   1dbc4:	10 bf ff dd 	b  1db38 <_locale_set_l+0x3f4>
   1dbc8:	ba 00 60 02 	add  %g1, 2, %i5
   1dbcc:	87 28 a0 03 	sll  %g2, 3, %g3
   1dbd0:	09 00 00 1d 	sethi  %hi(0x7400), %g4
   1dbd4:	86 00 c0 02 	add  %g3, %g2, %g3
   1dbd8:	88 11 20 0b 	or  %g4, 0xb, %g4
   1dbdc:	86 00 40 03 	add  %g1, %g3, %g3
   1dbe0:	86 00 c0 14 	add  %g3, %l4, %g3
   1dbe4:	99 2d 20 04 	sll  %l4, 4, %o4
   1dbe8:	fa 08 c0 04 	ldub  [ %g3 + %g4 ], %i5
   1dbec:	86 16 e3 a8 	or  %i3, 0x3a8, %g3
   1dbf0:	86 00 40 03 	add  %g1, %g3, %g3
   1dbf4:	88 00 c0 0c 	add  %g3, %o4, %g4
   1dbf8:	ba 5f 40 0f 	smul  %i5, %o7, %i5
   1dbfc:	c6 00 c0 0c 	ld  [ %g3 + %o4 ], %g3
   1dc00:	da 14 e0 0d 	lduh  [ %l3 + 0xd ], %o5
   1dc04:	d8 01 20 04 	ld  [ %g4 + 4 ], %o4
   1dc08:	d2 01 20 08 	ld  [ %g4 + 8 ], %o1
   1dc0c:	d4 01 20 0c 	ld  [ %g4 + 0xc ], %o2
   1dc10:	ba 07 40 03 	add  %i5, %g3, %i5
   1dc14:	88 10 20 00 	clr  %g4
   1dc18:	9a 06 40 0d 	add  %i1, %o5, %o5
   1dc1c:	ba 00 40 1d 	add  %g1, %i5, %i5
   1dc20:	98 00 40 0c 	add  %g1, %o4, %o4
   1dc24:	c6 0f 40 04 	ldub  [ %i5 + %g4 ], %g3
   1dc28:	97 29 20 02 	sll  %g4, 2, %o3
   1dc2c:	90 01 00 04 	add  %g4, %g4, %o0
   1dc30:	d0 13 00 08 	lduh  [ %o4 + %o0 ], %o0
   1dc34:	86 00 c0 08 	add  %g3, %o0, %g3
   1dc38:	86 00 c0 03 	add  %g3, %g3, %g3
   1dc3c:	86 00 40 03 	add  %g1, %g3, %g3
   1dc40:	c6 10 c0 09 	lduh  [ %g3 + %o1 ], %g3
   1dc44:	86 00 c0 0a 	add  %g3, %o2, %g3
   1dc48:	86 00 40 03 	add  %g1, %g3, %g3
   1dc4c:	88 01 20 01 	inc  %g4
   1dc50:	80 a3 c0 04 	cmp  %o7, %g4
   1dc54:	14 bf ff f4 	bg  1dc24 <_locale_set_l+0x4e0>
   1dc58:	c6 23 40 0b 	st  %g3, [ %o5 + %o3 ]
   1dc5c:	10 bf ff 0c 	b  1d88c <_locale_set_l+0x148>
   1dc60:	80 a5 20 00 	cmp  %l4, 0
   1dc64:	82 18 7f 1c 	xor  %g1, -228, %g1
   1dc68:	82 05 c0 01 	add  %l7, %g1, %g1
   1dc6c:	c2 26 69 a0 	st  %g1, [ %i1 + 0x9a0 ]
   1dc70:	10 bf ff 19 	b  1d8d4 <_locale_set_l+0x190>
   1dc74:	82 10 20 01 	mov  1, %g1
   1dc78:	84 10 a0 79 	or  %g2, 0x79, %g2
   1dc7c:	84 00 40 02 	add  %g1, %g2, %g2
   1dc80:	c8 08 80 03 	ldub  [ %g2 + %g3 ], %g4
   1dc84:	84 00 80 04 	add  %g2, %g4, %g2
   1dc88:	c4 26 69 a0 	st  %g2, [ %i1 + 0x9a0 ]
   1dc8c:	84 10 22 01 	mov  0x201, %g2
   1dc90:	c4 36 69 2c 	sth  %g2, [ %i1 + 0x92c ]
   1dc94:	05 00 00 0d 	sethi  %hi(0x3400), %g2
   1dc98:	84 10 a3 18 	or  %g2, 0x318, %g2	! 3718 <__libc_h_errno+0x3714>
   1dc9c:	82 00 40 02 	add  %g1, %g2, %g1
   1dca0:	86 58 e0 56 	smul  %g3, 0x56, %g3
   1dca4:	ba 00 40 03 	add  %g1, %g3, %i5
   1dca8:	82 07 60 10 	add  %i5, 0x10, %g1
   1dcac:	c2 26 69 40 	st  %g1, [ %i1 + 0x940 ]
   1dcb0:	82 07 60 20 	add  %i5, 0x20, %g1
   1dcb4:	c2 26 69 48 	st  %g1, [ %i1 + 0x948 ]
   1dcb8:	82 07 60 30 	add  %i5, 0x30, %g1
   1dcbc:	c2 26 69 50 	st  %g1, [ %i1 + 0x950 ]
   1dcc0:	03 00 00 00 	sethi  %hi(0), %g1
   1dcc4:	82 18 63 80 	xor  %g1, 0x380, %g1
   1dcc8:	82 05 c0 01 	add  %l7, %g1, %g1
   1dccc:	90 06 60 0c 	add  %i1, 0xc, %o0
   1dcd0:	d2 00 40 00 	ld  [ %g1 ], %o1
   1dcd4:	94 10 23 00 	mov  0x300, %o2
   1dcd8:	92 02 7f 00 	add  %o1, -256, %o1
   1dcdc:	aa 10 00 08 	mov  %o0, %l5
   1dce0:	7f ff d3 d5 	call  12c34 <__GI_memcpy>
   1dce4:	fa 26 69 38 	st  %i5, [ %i1 + 0x938 ]
   1dce8:	03 00 00 00 	sethi  %hi(0), %g1
   1dcec:	82 18 63 84 	xor  %g1, 0x384, %g1
   1dcf0:	82 05 c0 01 	add  %l7, %g1, %g1
   1dcf4:	94 10 23 00 	mov  0x300, %o2
   1dcf8:	d2 00 40 00 	ld  [ %g1 ], %o1
   1dcfc:	90 06 63 0c 	add  %i1, 0x30c, %o0
   1dd00:	7f ff d3 cd 	call  12c34 <__GI_memcpy>
   1dd04:	92 02 7f 00 	add  %o1, -256, %o1
   1dd08:	03 00 00 00 	sethi  %hi(0), %g1
   1dd0c:	82 18 63 88 	xor  %g1, 0x388, %g1
   1dd10:	82 05 c0 01 	add  %l7, %g1, %g1
   1dd14:	94 10 23 00 	mov  0x300, %o2
   1dd18:	d2 00 40 00 	ld  [ %g1 ], %o1
   1dd1c:	90 06 66 0c 	add  %i1, 0x60c, %o0
   1dd20:	7f ff d3 c5 	call  12c34 <__GI_memcpy>
   1dd24:	92 02 7f 00 	add  %o1, -256, %o1
   1dd28:	c6 06 69 3c 	ld  [ %i1 + 0x93c ], %g3
   1dd2c:	c8 06 69 58 	ld  [ %i1 + 0x958 ], %g4
   1dd30:	90 10 00 15 	mov  %l5, %o0
   1dd34:	82 10 20 00 	clr  %g1
   1dd38:	9b 38 60 03 	sra  %g1, 3, %o5
   1dd3c:	c4 0f 40 0d 	ldub  [ %i5 + %o5 ], %g2
   1dd40:	85 28 a0 02 	sll  %g2, 2, %g2
   1dd44:	84 00 c0 02 	add  %g3, %g2, %g2
   1dd48:	9f 38 60 01 	sra  %g1, 1, %o7
   1dd4c:	80 88 60 01 	btst  1, %g1
   1dd50:	9e 0b e0 03 	and  %o7, 3, %o7
   1dd54:	de 08 80 0f 	ldub  [ %g2 + %o7 ], %o7
   1dd58:	02 80 00 04 	be  1dd68 <_locale_set_l+0x624>
   1dd5c:	84 0b e0 0f 	and  %o7, 0xf, %g2
   1dd60:	9e 0b e0 ff 	and  %o7, 0xff, %o7
   1dd64:	85 3b e0 04 	sra  %o7, 4, %g2
   1dd68:	84 00 80 02 	add  %g2, %g2, %g2
   1dd6c:	de 11 00 02 	lduh  [ %g4 + %g2 ], %o7
   1dd70:	80 a0 60 7f 	cmp  %g1, 0x7f
   1dd74:	02 80 00 03 	be  1dd80 <_locale_set_l+0x63c>
   1dd78:	de 32 22 00 	sth  %o7, [ %o0 + 0x200 ]
   1dd7c:	de 32 00 00 	sth  %o7, [ %o0 ]
   1dd80:	84 00 60 80 	add  %g1, 0x80, %g2
   1dd84:	c4 32 25 00 	sth  %g2, [ %o0 + 0x500 ]
   1dd88:	80 8b e0 03 	btst  3, %o7
   1dd8c:	02 80 00 16 	be  1dde4 <_locale_set_l+0x6a0>
   1dd90:	c4 32 28 00 	sth  %g2, [ %o0 + 0x800 ]
   1dd94:	9a 07 40 0d 	add  %i5, %o5, %o5
   1dd98:	84 08 60 07 	and  %g1, 7, %g2
   1dd9c:	d8 0b 60 10 	ldub  [ %o5 + 0x10 ], %o4
   1dda0:	80 8b e0 02 	btst  2, %o7
   1dda4:	99 2b 20 03 	sll  %o4, 3, %o4
   1dda8:	da 06 69 44 	ld  [ %i1 + 0x944 ], %o5
   1ddac:	9a 03 40 0c 	add  %o5, %o4, %o5
   1ddb0:	da 0b 40 02 	ldub  [ %o5 + %g2 ], %o5
   1ddb4:	02 80 00 12 	be  1ddfc <_locale_set_l+0x6b8>
   1ddb8:	84 00 7f 80 	add  %g1, -128, %g2
   1ddbc:	84 00 80 0d 	add  %g2, %o5, %g2
   1ddc0:	84 08 a0 ff 	and  %g2, 0xff, %g2
   1ddc4:	80 a0 60 7f 	cmp  %g1, 0x7f
   1ddc8:	12 80 00 06 	bne  1dde0 <_locale_set_l+0x69c>
   1ddcc:	c4 32 28 00 	sth  %g2, [ %o0 + 0x800 ]
   1ddd0:	e0 26 40 00 	st  %l0, [ %i1 ]
   1ddd4:	e2 26 60 04 	st  %l1, [ %i1 + 4 ]
   1ddd8:	10 bf fe c0 	b  1d8d8 <_locale_set_l+0x194>
   1dddc:	e4 26 60 08 	st  %l2, [ %i1 + 8 ]
   1dde0:	c4 32 26 00 	sth  %g2, [ %o0 + 0x600 ]
   1dde4:	82 00 60 01 	inc  %g1
   1dde8:	80 a0 60 80 	cmp  %g1, 0x80
   1ddec:	12 bf ff d3 	bne  1dd38 <_locale_set_l+0x5f4>
   1ddf0:	90 02 20 02 	add  %o0, 2, %o0
   1ddf4:	10 bf ff f8 	b  1ddd4 <_locale_set_l+0x690>
   1ddf8:	e0 26 40 00 	st  %l0, [ %i1 ]
   1ddfc:	84 20 80 0d 	sub  %g2, %o5, %g2
   1de00:	84 08 a0 ff 	and  %g2, 0xff, %g2
   1de04:	80 a0 60 7f 	cmp  %g1, 0x7f
   1de08:	02 bf ff f2 	be  1ddd0 <_locale_set_l+0x68c>
   1de0c:	c4 32 25 00 	sth  %g2, [ %o0 + 0x500 ]
   1de10:	10 bf ff f5 	b  1dde4 <_locale_set_l+0x6a0>
   1de14:	c4 32 23 00 	sth  %g2, [ %o0 + 0x300 ]
   1de18:	12 bf fe bb 	bne  1d904 <_locale_set_l+0x1c0>
   1de1c:	94 10 00 19 	mov  %i1, %o2
   1de20:	d2 06 69 a4 	ld  [ %i1 + 0x9a4 ], %o1
   1de24:	40 00 00 67 	call  1dfc0 <__locale_mbrtowc_l>
   1de28:	90 06 69 68 	add  %i1, 0x968, %o0
   1de2c:	d0 26 69 70 	st  %o0, [ %i1 + 0x970 ]
   1de30:	c2 06 69 ac 	ld  [ %i1 + 0x9ac ], %g1
   1de34:	c2 08 40 00 	ldub  [ %g1 ], %g1
   1de38:	80 a0 60 00 	cmp  %g1, 0
   1de3c:	22 bf fe b3 	be,a   1d908 <_locale_set_l+0x1c4>
   1de40:	a8 05 20 01 	inc  %l4
   1de44:	94 10 00 19 	mov  %i1, %o2
   1de48:	d2 06 69 a8 	ld  [ %i1 + 0x9a8 ], %o1
   1de4c:	40 00 00 5d 	call  1dfc0 <__locale_mbrtowc_l>
   1de50:	90 06 69 6c 	add  %i1, 0x96c, %o0
   1de54:	80 a2 20 00 	cmp  %o0, 0
   1de58:	12 bf fe ab 	bne  1d904 <_locale_set_l+0x1c0>
   1de5c:	d0 26 69 74 	st  %o0, [ %i1 + 0x974 ]
   1de60:	c2 06 69 a8 	ld  [ %i1 + 0x9a8 ], %g1
   1de64:	10 bf fe a8 	b  1d904 <_locale_set_l+0x1c0>
   1de68:	c2 26 69 ac 	st  %g1, [ %i1 + 0x9ac ]

0001de6c <_locale_init_l>:
   1de6c:	9d e3 bf a0 	save  %sp, -96, %sp
   1de70:	94 10 20 0e 	mov  0xe, %o2
   1de74:	92 10 20 00 	clr  %o1
   1de78:	7f ff d7 99 	call  13cdc <__GI_memset>
   1de7c:	90 06 29 0c 	add  %i0, 0x90c, %o0
   1de80:	82 10 20 23 	mov  0x23, %g1
   1de84:	c2 2e 29 0c 	stb  %g1, [ %i0 + 0x90c ]
   1de88:	03 00 00 00 	sethi  %hi(0), %g1
   1de8c:	82 18 63 7c 	xor  %g1, 0x37c, %g1
   1de90:	2f 00 00 88 	sethi  %hi(0x22000), %l7
   1de94:	7f ff ca 64 	call  10824 <__sparc_get_pc_thunk.l7>
   1de98:	ae 05 e0 38 	add  %l7, 0x38, %l7	! 22038 <locale_mmap+0x18d8>
   1de9c:	ba 05 c0 01 	add  %l7, %g1, %i5
   1dea0:	03 00 00 1c 	sethi  %hi(0x7000), %g1
   1dea4:	82 10 63 a0 	or  %g1, 0x3a0, %g1	! 73a0 <__libc_h_errno+0x739c>
   1dea8:	d2 07 40 00 	ld  [ %i5 ], %o1
   1deac:	90 06 29 26 	add  %i0, 0x926, %o0
   1deb0:	92 02 40 01 	add  %o1, %g1, %o1
   1deb4:	7f ff d3 60 	call  12c34 <__GI_memcpy>
   1deb8:	94 10 20 06 	mov  6, %o2
   1debc:	c2 0e 29 26 	ldub  [ %i0 + 0x926 ], %g1
   1dec0:	82 00 60 01 	inc  %g1
   1dec4:	c2 2e 29 26 	stb  %g1, [ %i0 + 0x926 ]
   1dec8:	82 10 29 78 	mov  0x978, %g1
   1decc:	c2 36 29 1a 	sth  %g1, [ %i0 + 0x91a ]
   1ded0:	03 02 69 02 	sethi  %hi(0x9a40800), %g1
   1ded4:	82 10 61 b0 	or  %g1, 0x1b0, %g1	! 9a409b0 <_end+0x99fd210>
   1ded8:	c2 26 29 1c 	st  %g1, [ %i0 + 0x91c ]
   1dedc:	82 10 2a 08 	mov  0xa08, %g1
   1dee0:	c2 36 29 20 	sth  %g1, [ %i0 + 0x920 ]
   1dee4:	82 10 2a d0 	mov  0xad0, %g1
   1dee8:	c2 36 29 24 	sth  %g1, [ %i0 + 0x924 ]
   1deec:	c2 07 40 00 	ld  [ %i5 ], %g1
   1def0:	84 00 60 28 	add  %g1, 0x28, %g2
   1def4:	c4 26 29 44 	st  %g2, [ %i0 + 0x944 ]
   1def8:	84 00 60 40 	add  %g1, 0x40, %g2
   1defc:	c4 26 29 4c 	st  %g2, [ %i0 + 0x94c ]
   1df00:	84 00 61 50 	add  %g1, 0x150, %g2
   1df04:	c4 26 29 54 	st  %g2, [ %i0 + 0x954 ]
   1df08:	84 00 62 00 	add  %g1, 0x200, %g2
   1df0c:	c4 26 29 5c 	st  %g2, [ %i0 + 0x95c ]
   1df10:	05 00 00 09 	sethi  %hi(0x2400), %g2
   1df14:	84 10 a1 58 	or  %g2, 0x158, %g2	! 2558 <__libc_h_errno+0x2554>
   1df18:	84 00 40 02 	add  %g1, %g2, %g2
   1df1c:	c2 26 29 3c 	st  %g1, [ %i0 + 0x93c ]
   1df20:	c4 26 29 60 	st  %g2, [ %i0 + 0x960 ]
   1df24:	05 00 00 0c 	sethi  %hi(0x3000), %g2
   1df28:	84 10 a0 08 	or  %g2, 8, %g2	! 3008 <__libc_h_errno+0x3004>
   1df2c:	82 00 40 02 	add  %g1, %g2, %g1
   1df30:	c2 26 29 64 	st  %g1, [ %i0 + 0x964 ]
   1df34:	03 00 00 00 	sethi  %hi(0), %g1
   1df38:	82 18 63 80 	xor  %g1, 0x380, %g1
   1df3c:	82 05 c0 01 	add  %l7, %g1, %g1
   1df40:	c2 00 40 00 	ld  [ %g1 ], %g1
   1df44:	c2 26 00 00 	st  %g1, [ %i0 ]
   1df48:	03 00 00 00 	sethi  %hi(0), %g1
   1df4c:	82 18 63 84 	xor  %g1, 0x384, %g1
   1df50:	82 05 c0 01 	add  %l7, %g1, %g1
   1df54:	c2 00 40 00 	ld  [ %g1 ], %g1
   1df58:	c2 26 20 04 	st  %g1, [ %i0 + 4 ]
   1df5c:	03 00 00 00 	sethi  %hi(0), %g1
   1df60:	82 18 63 88 	xor  %g1, 0x388, %g1
   1df64:	82 05 c0 01 	add  %l7, %g1, %g1
   1df68:	c2 00 40 00 	ld  [ %g1 ], %g1
   1df6c:	b2 10 00 18 	mov  %i0, %i1
   1df70:	c2 26 20 08 	st  %g1, [ %i0 + 8 ]
   1df74:	03 00 00 7d 	sethi  %hi(0x1f400), %g1
   1df78:	82 18 7c 72 	xor  %g1, -910, %g1
   1df7c:	82 05 c0 01 	add  %l7, %g1, %g1
   1df80:	c2 26 29 58 	st  %g1, [ %i0 + 0x958 ]
   1df84:	31 00 00 81 	sethi  %hi(0x20400), %i0
   1df88:	b0 1e 3f 0c 	xor  %i0, -244, %i0
   1df8c:	b0 05 c0 18 	add  %l7, %i0, %i0
   1df90:	10 bf fd ed 	b  1d744 <_locale_set_l>
   1df94:	81 e8 00 00 	restore 

0001df98 <_locale_init>:
   1df98:	9d e3 bf a0 	save  %sp, -96, %sp
   1df9c:	2f 00 00 87 	sethi  %hi(0x21c00), %l7
   1dfa0:	7f ff ca 21 	call  10824 <__sparc_get_pc_thunk.l7>
   1dfa4:	ae 05 e3 2c 	add  %l7, 0x32c, %l7	! 21f2c <locale_mmap+0x17cc>
   1dfa8:	03 00 00 00 	sethi  %hi(0), %g1
   1dfac:	82 18 63 78 	xor  %g1, 0x378, %g1
   1dfb0:	ae 05 c0 01 	add  %l7, %g1, %l7
   1dfb4:	f0 05 c0 00 	ld  [ %l7 ], %i0
   1dfb8:	10 bf ff ad 	b  1de6c <_locale_init_l>
   1dfbc:	81 e8 00 00 	restore 

0001dfc0 <__locale_mbrtowc_l>:
   1dfc0:	9d e3 bf 90 	save  %sp, -112, %sp
   1dfc4:	c4 0e a9 2c 	ldub  [ %i2 + 0x92c ], %g2
   1dfc8:	80 a0 a0 01 	cmp  %g2, 1
   1dfcc:	32 80 00 12 	bne,a   1e014 <__locale_mbrtowc_l+0x54>
   1dfd0:	c2 0e 40 00 	ldub  [ %i1 ], %g1
   1dfd4:	90 10 00 18 	mov  %i0, %o0
   1dfd8:	f2 27 bf f4 	st  %i1, [ %fp + -12 ]
   1dfdc:	c0 27 bf f8 	clr  [ %fp + -8 ]
   1dfe0:	9a 10 20 01 	mov  1, %o5
   1dfe4:	98 07 bf f8 	add  %fp, -8, %o4
   1dfe8:	96 10 3f ff 	mov  -1, %o3
   1dfec:	94 07 bf f4 	add  %fp, -12, %o2
   1dff0:	40 00 00 23 	call  1e07c <_wchar_utf8sntowcs>
   1dff4:	92 10 20 01 	mov  1, %o1
   1dff8:	80 a2 20 01 	cmp  %o0, 1
   1dffc:	12 80 00 04 	bne  1e00c <__locale_mbrtowc_l+0x4c>
   1e000:	b0 10 00 08 	mov  %o0, %i0
   1e004:	f0 07 bf f4 	ld  [ %fp + -12 ], %i0
   1e008:	b0 26 00 19 	sub  %i0, %i1, %i0
   1e00c:	81 c7 e0 08 	ret 
   1e010:	81 e8 00 00 	restore 
   1e014:	80 a0 60 7f 	cmp  %g1, 0x7f
   1e018:	14 80 00 06 	bg  1e030 <__locale_mbrtowc_l+0x70>
   1e01c:	c2 26 00 00 	st  %g1, [ %i0 ]
   1e020:	80 a0 00 01 	cmp  %g0, %g1
   1e024:	b0 40 20 00 	addx  %g0, 0, %i0
   1e028:	81 c7 e0 08 	ret 
   1e02c:	81 e8 00 00 	restore 
   1e030:	80 a0 a0 02 	cmp  %g2, 2
   1e034:	12 80 00 0f 	bne  1e070 <__locale_mbrtowc_l+0xb0>
   1e038:	82 00 7f 80 	add  %g1, -128, %g1
   1e03c:	c6 06 a9 48 	ld  [ %i2 + 0x948 ], %g3
   1e040:	85 38 60 03 	sra  %g1, 3, %g2
   1e044:	c4 08 c0 02 	ldub  [ %g3 + %g2 ], %g2
   1e048:	85 28 a0 03 	sll  %g2, 3, %g2
   1e04c:	82 08 60 07 	and  %g1, 7, %g1
   1e050:	82 00 80 01 	add  %g2, %g1, %g1
   1e054:	c4 06 a9 4c 	ld  [ %i2 + 0x94c ], %g2
   1e058:	82 00 40 01 	add  %g1, %g1, %g1
   1e05c:	c2 10 80 01 	lduh  [ %g2 + %g1 ], %g1
   1e060:	c2 26 00 00 	st  %g1, [ %i0 ]
   1e064:	80 a0 60 00 	cmp  %g1, 0
   1e068:	12 bf ff e9 	bne  1e00c <__locale_mbrtowc_l+0x4c>
   1e06c:	b0 10 20 01 	mov  1, %i0
   1e070:	b0 10 3f ff 	mov  -1, %i0
   1e074:	81 c7 e0 08 	ret 
   1e078:	81 e8 00 00 	restore 

0001e07c <_wchar_utf8sntowcs>:
   1e07c:	9d e3 bf 98 	save  %sp, -104, %sp
   1e080:	2f 00 00 87 	sethi  %hi(0x21c00), %l7
   1e084:	7f ff c9 e8 	call  10824 <__sparc_get_pc_thunk.l7>
   1e088:	ae 05 e2 48 	add  %l7, 0x248, %l7	! 21e48 <locale_mmap+0x16e8>
   1e08c:	80 a6 20 00 	cmp  %i0, 0
   1e090:	02 80 00 06 	be  1e0a8 <_wchar_utf8sntowcs+0x2c>
   1e094:	c6 06 80 00 	ld  [ %i2 ], %g3
   1e098:	80 a6 00 1c 	cmp  %i0, %i4
   1e09c:	12 80 00 06 	bne  1e0b4 <_wchar_utf8sntowcs+0x38>
   1e0a0:	9a 10 20 01 	mov  1, %o5
   1e0a4:	80 a6 20 00 	cmp  %i0, 0
   1e0a8:	9a 10 20 00 	clr  %o5
   1e0ac:	02 80 00 07 	be  1e0c8 <_wchar_utf8sntowcs+0x4c>
   1e0b0:	b0 07 bf fc 	add  %fp, -4, %i0
   1e0b4:	80 a6 60 00 	cmp  %i1, 0
   1e0b8:	32 80 00 06 	bne,a   1e0d0 <_wchar_utf8sntowcs+0x54>
   1e0bc:	c2 07 00 00 	ld  [ %i4 ], %g1
   1e0c0:	81 c7 e0 08 	ret 
   1e0c4:	91 e8 20 00 	restore  %g0, 0, %o0
   1e0c8:	b2 10 3f ff 	mov  -1, %i1
   1e0cc:	c2 07 00 00 	ld  [ %i4 ], %g1
   1e0d0:	80 a0 60 00 	cmp  %g1, 0
   1e0d4:	02 80 00 12 	be  1e11c <_wchar_utf8sntowcs+0xa0>
   1e0d8:	88 10 00 19 	mov  %i1, %g4
   1e0dc:	c4 07 20 04 	ld  [ %i4 + 4 ], %g2
   1e0e0:	09 00 00 3f 	sethi  %hi(0xfc00), %g4
   1e0e4:	88 11 23 ff 	or  %g4, 0x3ff, %g4	! ffff <__libc_h_errno+0xfffb>
   1e0e8:	80 a0 80 04 	cmp  %g2, %g4
   1e0ec:	02 80 00 1e 	be  1e164 <_wchar_utf8sntowcs+0xe8>
   1e0f0:	80 a6 e0 00 	cmp  %i3, 0
   1e0f4:	12 80 00 23 	bne  1e180 <_wchar_utf8sntowcs+0x104>
   1e0f8:	88 10 00 19 	mov  %i1, %g4
   1e0fc:	82 07 bf fc 	add  %fp, -4, %g1
   1e100:	80 a6 00 01 	cmp  %i0, %g1
   1e104:	02 80 00 03 	be  1e110 <_wchar_utf8sntowcs+0x94>
   1e108:	c0 27 00 00 	clr  [ %i4 ]
   1e10c:	c6 26 80 00 	st  %g3, [ %i2 ]
   1e110:	b0 26 40 04 	sub  %i1, %g4, %i0
   1e114:	81 c7 e0 08 	ret 
   1e118:	81 e8 00 00 	restore 
   1e11c:	80 a6 e0 00 	cmp  %i3, 0
   1e120:	02 bf ff f7 	be  1e0fc <_wchar_utf8sntowcs+0x80>
   1e124:	98 00 e0 01 	add  %g3, 1, %o4
   1e128:	c6 08 c0 00 	ldub  [ %g3 ], %g3
   1e12c:	84 08 e0 ff 	and  %g3, 0xff, %g2
   1e130:	80 a0 a0 7f 	cmp  %g2, 0x7f
   1e134:	08 80 00 4d 	bleu  1e268 <_wchar_utf8sntowcs+0x1ec>
   1e138:	b6 06 ff ff 	add  %i3, -1, %i3
   1e13c:	86 00 e0 3e 	add  %g3, 0x3e, %g3
   1e140:	82 10 20 40 	mov  0x40, %g1
   1e144:	9e 08 e0 ff 	and  %g3, 0xff, %o7
   1e148:	80 a3 e0 3b 	cmp  %o7, 0x3b
   1e14c:	08 80 00 17 	bleu  1e1a8 <_wchar_utf8sntowcs+0x12c>
   1e150:	86 10 00 0c 	mov  %o4, %g3
   1e154:	c2 27 00 00 	st  %g1, [ %i4 ]
   1e158:	03 00 00 3f 	sethi  %hi(0xfc00), %g1
   1e15c:	82 10 63 ff 	or  %g1, 0x3ff, %g1	! ffff <__libc_h_errno+0xfffb>
   1e160:	c2 27 20 04 	st  %g1, [ %i4 + 4 ]
   1e164:	84 10 20 7a 	mov  0x7a, %g2
   1e168:	03 00 00 00 	sethi  %hi(0), %g1
   1e16c:	82 18 7f f8 	xor  %g1, -8, %g1
   1e170:	01 00 00 00 	nop 
   1e174:	c4 21 c0 01 	st  %g2, [ %g7 + %g1 ]
   1e178:	81 c7 e0 08 	ret 
   1e17c:	91 e8 3f ff 	restore  %g0, -1, %o0
   1e180:	de 08 c0 00 	ldub  [ %g3 ], %o7
   1e184:	98 0b e0 c0 	and  %o7, 0xc0, %o4
   1e188:	80 a3 20 80 	cmp  %o4, 0x80
   1e18c:	12 bf ff f2 	bne  1e154 <_wchar_utf8sntowcs+0xd8>
   1e190:	b6 06 ff ff 	add  %i3, -1, %i3
   1e194:	85 28 a0 06 	sll  %g2, 6, %g2
   1e198:	9e 0b e0 3f 	and  %o7, 0x3f, %o7
   1e19c:	83 28 60 05 	sll  %g1, 5, %g1
   1e1a0:	84 03 c0 02 	add  %o7, %g2, %g2
   1e1a4:	86 00 e0 01 	inc  %g3
   1e1a8:	9e 00 40 01 	add  %g1, %g1, %o7
   1e1ac:	84 28 80 0f 	andn  %g2, %o7, %g2
   1e1b0:	80 88 40 02 	btst  %g1, %g2
   1e1b4:	12 80 00 1c 	bne  1e224 <_wchar_utf8sntowcs+0x1a8>
   1e1b8:	80 a6 e0 00 	cmp  %i3, 0
   1e1bc:	83 30 60 05 	srl  %g1, 5, %g1
   1e1c0:	80 a0 60 40 	cmp  %g1, 0x40
   1e1c4:	22 80 00 02 	be,a   1e1cc <_wchar_utf8sntowcs+0x150>
   1e1c8:	82 10 20 80 	mov  0x80, %g1
   1e1cc:	80 a0 40 02 	cmp  %g1, %g2
   1e1d0:	18 bf ff e1 	bgu  1e154 <_wchar_utf8sntowcs+0xd8>
   1e1d4:	1f 3f ff c0 	sethi  %hi(0xffff0000), %o7
   1e1d8:	9e 13 e0 02 	or  %o7, 2, %o7	! ffff0002 <_end+0xfffac862>
   1e1dc:	9e 00 80 0f 	add  %g2, %o7, %o7
   1e1e0:	80 a3 e0 01 	cmp  %o7, 1
   1e1e4:	08 bf ff dc 	bleu  1e154 <_wchar_utf8sntowcs+0xd8>
   1e1e8:	1f 3f ff ca 	sethi  %hi(0xffff2800), %o7
   1e1ec:	9e 00 80 0f 	add  %g2, %o7, %o7
   1e1f0:	80 a3 e7 ff 	cmp  %o7, 0x7ff
   1e1f4:	28 bf ff d9 	bleu,a   1e158 <_wchar_utf8sntowcs+0xdc>
   1e1f8:	c2 27 00 00 	st  %g1, [ %i4 ]
   1e1fc:	c4 26 00 00 	st  %g2, [ %i0 ]
   1e200:	83 2b 60 02 	sll  %o5, 2, %g1
   1e204:	80 a0 a0 00 	cmp  %g2, 0
   1e208:	02 80 00 1a 	be  1e270 <_wchar_utf8sntowcs+0x1f4>
   1e20c:	b0 06 00 01 	add  %i0, %g1, %i0
   1e210:	88 81 3f ff 	addcc  %g4, -1, %g4
   1e214:	12 bf ff c3 	bne  1e120 <_wchar_utf8sntowcs+0xa4>
   1e218:	80 a6 e0 00 	cmp  %i3, 0
   1e21c:	10 bf ff b9 	b  1e100 <_wchar_utf8sntowcs+0x84>
   1e220:	82 07 bf fc 	add  %fp, -4, %g1
   1e224:	12 bf ff d7 	bne  1e180 <_wchar_utf8sntowcs+0x104>
   1e228:	80 a7 60 00 	cmp  %i5, 0
   1e22c:	12 80 00 0a 	bne  1e254 <_wchar_utf8sntowcs+0x1d8>
   1e230:	80 a1 00 19 	cmp  %g4, %i1
   1e234:	12 bf ff a3 	bne  1e0c0 <_wchar_utf8sntowcs+0x44>
   1e238:	01 00 00 00 	nop 
   1e23c:	83 30 60 05 	srl  %g1, 5, %g1
   1e240:	80 a0 60 3f 	cmp  %g1, 0x3f
   1e244:	18 bf ff fe 	bgu  1e23c <_wchar_utf8sntowcs+0x1c0>
   1e248:	86 00 ff ff 	add  %g3, -1, %g3
   1e24c:	10 bf ff ad 	b  1e100 <_wchar_utf8sntowcs+0x84>
   1e250:	82 07 bf fc 	add  %fp, -4, %g1
   1e254:	c2 27 00 00 	st  %g1, [ %i4 ]
   1e258:	c4 27 20 04 	st  %g2, [ %i4 + 4 ]
   1e25c:	c6 26 80 00 	st  %g3, [ %i2 ]
   1e260:	81 c7 e0 08 	ret 
   1e264:	91 e8 3f fe 	restore  %g0, -2, %o0
   1e268:	10 bf ff e5 	b  1e1fc <_wchar_utf8sntowcs+0x180>
   1e26c:	86 10 00 0c 	mov  %o4, %g3
   1e270:	10 bf ff a3 	b  1e0fc <_wchar_utf8sntowcs+0x80>
   1e274:	86 10 20 00 	clr  %g3

0001e278 <_wchar_wcsntoutf8s>:
   1e278:	9d e3 bf 90 	save  %sp, -112, %sp
   1e27c:	2f 00 00 87 	sethi  %hi(0x21c00), %l7
   1e280:	7f ff c9 69 	call  10824 <__sparc_get_pc_thunk.l7>
   1e284:	ae 05 e0 4c 	add  %l7, 0x4c, %l7	! 21c4c <locale_mmap+0x14ec>
   1e288:	80 a6 20 00 	cmp  %i0, 0
   1e28c:	02 80 00 04 	be  1e29c <_wchar_wcsntoutf8s+0x24>
   1e290:	80 a6 00 1a 	cmp  %i0, %i2
   1e294:	12 80 00 06 	bne  1e2ac <_wchar_wcsntoutf8s+0x34>
   1e298:	ba 10 20 01 	mov  1, %i5
   1e29c:	80 a6 20 00 	cmp  %i0, 0
   1e2a0:	ba 10 20 00 	clr  %i5
   1e2a4:	02 80 00 12 	be  1e2ec <_wchar_wcsntoutf8s+0x74>
   1e2a8:	b0 07 bf f0 	add  %fp, -16, %i0
   1e2ac:	1f 3f ff c0 	sethi  %hi(0xffff0000), %o7
   1e2b0:	c6 06 80 00 	ld  [ %i2 ], %g3
   1e2b4:	88 10 00 19 	mov  %i1, %g4
   1e2b8:	9e 13 e0 02 	or  %o7, 2, %o7
   1e2bc:	17 3f ff ca 	sethi  %hi(0xffff2800), %o3
   1e2c0:	80 a6 e0 00 	cmp  %i3, 0
   1e2c4:	02 80 00 04 	be  1e2d4 <_wchar_wcsntoutf8s+0x5c>
   1e2c8:	80 a1 20 00 	cmp  %g4, 0
   1e2cc:	32 80 00 0a 	bne,a   1e2f4 <_wchar_wcsntoutf8s+0x7c>
   1e2d0:	c2 00 c0 00 	ld  [ %g3 ], %g1
   1e2d4:	80 a7 60 00 	cmp  %i5, 0
   1e2d8:	32 80 00 02 	bne,a   1e2e0 <_wchar_wcsntoutf8s+0x68>
   1e2dc:	c6 26 80 00 	st  %g3, [ %i2 ]
   1e2e0:	b0 26 40 04 	sub  %i1, %g4, %i0
   1e2e4:	81 c7 e0 08 	ret 
   1e2e8:	81 e8 00 00 	restore 
   1e2ec:	10 bf ff f0 	b  1e2ac <_wchar_wcsntoutf8s+0x34>
   1e2f0:	b2 10 3f ff 	mov  -1, %i1
   1e2f4:	80 a0 60 7f 	cmp  %g1, 0x7f
   1e2f8:	08 80 00 31 	bleu  1e3bc <_wchar_wcsntoutf8s+0x144>
   1e2fc:	c2 2e 00 00 	stb  %g1, [ %i0 ]
   1e300:	84 00 40 0f 	add  %g1, %o7, %g2
   1e304:	80 a0 a0 01 	cmp  %g2, 1
   1e308:	08 80 00 04 	bleu  1e318 <_wchar_wcsntoutf8s+0xa0>
   1e30c:	80 a0 60 00 	cmp  %g1, 0
   1e310:	16 80 00 09 	bge  1e334 <_wchar_wcsntoutf8s+0xbc>
   1e314:	84 00 40 0b 	add  %g1, %o3, %g2
   1e318:	84 10 20 7a 	mov  0x7a, %g2
   1e31c:	03 00 00 00 	sethi  %hi(0), %g1
   1e320:	82 18 7f f8 	xor  %g1, -8, %g1
   1e324:	01 00 00 00 	nop 
   1e328:	c4 21 c0 01 	st  %g2, [ %g7 + %g1 ]
   1e32c:	81 c7 e0 08 	ret 
   1e330:	91 e8 3f ff 	restore  %g0, -1, %o0
   1e334:	80 a0 a7 ff 	cmp  %g2, 0x7ff
   1e338:	08 bf ff f8 	bleu  1e318 <_wchar_wcsntoutf8s+0xa0>
   1e33c:	83 30 60 01 	srl  %g1, 1, %g1
   1e340:	84 10 00 18 	mov  %i0, %g2
   1e344:	83 30 60 05 	srl  %g1, 5, %g1
   1e348:	80 a0 60 00 	cmp  %g1, 0
   1e34c:	12 bf ff fe 	bne  1e344 <_wchar_wcsntoutf8s+0xcc>
   1e350:	84 00 a0 01 	inc  %g2
   1e354:	b8 20 80 18 	sub  %g2, %i0, %i4
   1e358:	80 a1 00 1c 	cmp  %g4, %i4
   1e35c:	0a bf ff de 	bcs  1e2d4 <_wchar_wcsntoutf8s+0x5c>
   1e360:	da 00 c0 00 	ld  [ %g3 ], %o5
   1e364:	82 10 3f 80 	mov  -128, %g1
   1e368:	80 a6 00 02 	cmp  %i0, %g2
   1e36c:	0a 80 00 0d 	bcs  1e3a0 <_wchar_wcsntoutf8s+0x128>
   1e370:	98 0b 60 3f 	and  %o5, 0x3f, %o4
   1e374:	c4 0e 00 00 	ldub  [ %i0 ], %g2
   1e378:	82 00 40 01 	add  %g1, %g1, %g1
   1e37c:	82 10 40 02 	or  %g1, %g2, %g1
   1e380:	c2 2e 00 00 	stb  %g1, [ %i0 ]
   1e384:	86 00 e0 04 	add  %g3, 4, %g3
   1e388:	b6 06 ff ff 	add  %i3, -1, %i3
   1e38c:	80 a7 60 00 	cmp  %i5, 0
   1e390:	02 bf ff cc 	be  1e2c0 <_wchar_wcsntoutf8s+0x48>
   1e394:	88 21 00 1c 	sub  %g4, %i4, %g4
   1e398:	10 bf ff ca 	b  1e2c0 <_wchar_wcsntoutf8s+0x48>
   1e39c:	b0 06 00 1c 	add  %i0, %i4, %i0
   1e3a0:	83 30 60 01 	srl  %g1, 1, %g1
   1e3a4:	84 00 bf ff 	add  %g2, -1, %g2
   1e3a8:	98 13 3f 80 	or  %o4, -128, %o4
   1e3ac:	82 10 7f 80 	or  %g1, -128, %g1
   1e3b0:	d8 28 80 00 	stb  %o4, [ %g2 ]
   1e3b4:	10 bf ff ed 	b  1e368 <_wchar_wcsntoutf8s+0xf0>
   1e3b8:	9b 33 60 06 	srl  %o5, 6, %o5
   1e3bc:	80 a0 60 00 	cmp  %g1, 0
   1e3c0:	12 bf ff f1 	bne  1e384 <_wchar_wcsntoutf8s+0x10c>
   1e3c4:	b8 10 20 01 	mov  1, %i4
   1e3c8:	10 bf ff c3 	b  1e2d4 <_wchar_wcsntoutf8s+0x5c>
   1e3cc:	86 10 20 00 	clr  %g3

0001e3d0 <__GI_fclose>:
   1e3d0:	9d e3 bf a0 	save  %sp, -96, %sp
   1e3d4:	2f 00 00 86 	sethi  %hi(0x21800), %l7
   1e3d8:	7f ff c9 13 	call  10824 <__sparc_get_pc_thunk.l7>
   1e3dc:	ae 05 e2 f4 	add  %l7, 0x2f4, %l7	! 21af4 <locale_mmap+0x1394>
   1e3e0:	f6 06 20 38 	ld  [ %i0 + 0x38 ], %i3
   1e3e4:	80 a6 e0 00 	cmp  %i3, 0
   1e3e8:	12 80 00 21 	bne  1e46c <__GI_fclose+0x9c>
   1e3ec:	b8 10 00 18 	mov  %i0, %i4
   1e3f0:	c2 06 20 44 	ld  [ %i0 + 0x44 ], %g1
   1e3f4:	80 a0 40 07 	cmp  %g1, %g7
   1e3f8:	02 80 00 1a 	be  1e460 <__GI_fclose+0x90>
   1e3fc:	ba 10 00 07 	mov  %g7, %i5
   1e400:	90 06 20 3c 	add  %i0, 0x3c, %o0
   1e404:	83 3a 20 02 	sra  %o0, 2, %g1
   1e408:	85 3a 20 0c 	sra  %o0, 0xc, %g2
   1e40c:	82 18 40 02 	xor  %g1, %g2, %g1
   1e410:	82 08 60 3f 	and  %g1, 0x3f, %g1
   1e414:	05 00 00 00 	sethi  %hi(0), %g2
   1e418:	84 18 a3 ac 	xor  %g2, 0x3ac, %g2
   1e41c:	84 05 c0 02 	add  %l7, %g2, %g2
   1e420:	c6 68 80 01 	ldstub  [ %g2 + %g1 ], %g3
   1e424:	80 a0 e0 00 	cmp  %g3, 0
   1e428:	32 bf ff fc 	bne,a   1e418 <__GI_fclose+0x48>
   1e42c:	05 00 00 00 	sethi  %hi(0), %g2
   1e430:	c6 07 20 3c 	ld  [ %i4 + 0x3c ], %g3
   1e434:	80 a0 e0 00 	cmp  %g3, 0
   1e438:	12 80 00 03 	bne  1e444 <__GI_fclose+0x74>
   1e43c:	88 10 20 01 	mov  1, %g4
   1e440:	c8 27 20 3c 	st  %g4, [ %i4 + 0x3c ]
   1e444:	c0 28 80 01 	clrb  [ %g2 + %g1 ]
   1e448:	80 a0 e0 00 	cmp  %g3, 0
   1e44c:	22 80 00 05 	be,a   1e460 <__GI_fclose+0x90>
   1e450:	fa 27 20 44 	st  %i5, [ %i4 + 0x44 ]
   1e454:	7f ff df 61 	call  161d8 <__lll_lock_wait_private>
   1e458:	01 00 00 00 	nop 
   1e45c:	fa 27 20 44 	st  %i5, [ %i4 + 0x44 ]
   1e460:	c2 07 20 40 	ld  [ %i4 + 0x40 ], %g1
   1e464:	82 00 60 01 	inc  %g1
   1e468:	c2 27 20 40 	st  %g1, [ %i4 + 0x40 ]
   1e46c:	c2 17 00 00 	lduh  [ %i4 ], %g1
   1e470:	80 88 60 40 	btst  0x40, %g1
   1e474:	02 80 00 05 	be  1e488 <__GI_fclose+0xb8>
   1e478:	b0 10 20 00 	clr  %i0
   1e47c:	7f ff cf 20 	call  120fc <__GI_fflush_unlocked>
   1e480:	90 10 00 1c 	mov  %i4, %o0
   1e484:	b0 10 00 08 	mov  %o0, %i0
   1e488:	d0 07 20 04 	ld  [ %i4 + 4 ], %o0
   1e48c:	80 a2 3f fe 	cmp  %o0, -2
   1e490:	12 80 00 c0 	bne  1e790 <__GI_fclose+0x3c0>
   1e494:	01 00 00 00 	nop 
   1e498:	c2 07 20 58 	ld  [ %i4 + 0x58 ], %g1
   1e49c:	80 a0 60 00 	cmp  %g1, 0
   1e4a0:	22 80 00 08 	be,a   1e4c0 <__GI_fclose+0xf0>
   1e4a4:	82 10 3f ff 	mov  -1, %g1
   1e4a8:	9f c0 40 00 	call  %g1
   1e4ac:	d0 07 20 48 	ld  [ %i4 + 0x48 ], %o0
   1e4b0:	80 a2 20 00 	cmp  %o0, 0
   1e4b4:	26 80 00 02 	bl,a   1e4bc <__GI_fclose+0xec>
   1e4b8:	b0 10 3f ff 	mov  -1, %i0
   1e4bc:	82 10 3f ff 	mov  -1, %g1
   1e4c0:	c2 27 20 04 	st  %g1, [ %i4 + 4 ]
   1e4c4:	3b 00 00 01 	sethi  %hi(0x400), %i5
   1e4c8:	ba 1f 63 8c 	xor  %i5, 0x38c, %i5
   1e4cc:	ba 05 c0 1d 	add  %l7, %i5, %i5
   1e4d0:	c2 07 60 08 	ld  [ %i5 + 8 ], %g1
   1e4d4:	80 a0 40 07 	cmp  %g1, %g7
   1e4d8:	02 80 00 19 	be  1e53c <__GI_fclose+0x16c>
   1e4dc:	b4 10 00 07 	mov  %g7, %i2
   1e4e0:	83 3f 60 02 	sra  %i5, 2, %g1
   1e4e4:	85 3f 60 0c 	sra  %i5, 0xc, %g2
   1e4e8:	82 18 40 02 	xor  %g1, %g2, %g1
   1e4ec:	82 08 60 3f 	and  %g1, 0x3f, %g1
   1e4f0:	05 00 00 00 	sethi  %hi(0), %g2
   1e4f4:	84 18 a3 ac 	xor  %g2, 0x3ac, %g2
   1e4f8:	84 05 c0 02 	add  %l7, %g2, %g2
   1e4fc:	c6 68 80 01 	ldstub  [ %g2 + %g1 ], %g3
   1e500:	80 a0 e0 00 	cmp  %g3, 0
   1e504:	32 bf ff fc 	bne,a   1e4f4 <__GI_fclose+0x124>
   1e508:	05 00 00 00 	sethi  %hi(0), %g2
   1e50c:	c6 07 40 00 	ld  [ %i5 ], %g3
   1e510:	80 a0 e0 00 	cmp  %g3, 0
   1e514:	12 80 00 03 	bne  1e520 <__GI_fclose+0x150>
   1e518:	88 10 20 01 	mov  1, %g4
   1e51c:	c8 27 40 00 	st  %g4, [ %i5 ]
   1e520:	c0 28 80 01 	clrb  [ %g2 + %g1 ]
   1e524:	80 a0 e0 00 	cmp  %g3, 0
   1e528:	22 80 00 05 	be,a   1e53c <__GI_fclose+0x16c>
   1e52c:	f4 27 60 08 	st  %i2, [ %i5 + 8 ]
   1e530:	7f ff df 2a 	call  161d8 <__lll_lock_wait_private>
   1e534:	90 10 00 1d 	mov  %i5, %o0
   1e538:	f4 27 60 08 	st  %i2, [ %i5 + 8 ]
   1e53c:	03 00 00 01 	sethi  %hi(0x400), %g1
   1e540:	82 18 63 88 	xor  %g1, 0x388, %g1
   1e544:	82 05 c0 01 	add  %l7, %g1, %g1
   1e548:	c4 00 40 00 	ld  [ %g1 ], %g2
   1e54c:	84 00 a0 01 	inc  %g2
   1e550:	c4 20 40 00 	st  %g2, [ %g1 ]
   1e554:	c6 07 60 04 	ld  [ %i5 + 4 ], %g3
   1e558:	80 a0 e0 00 	cmp  %g3, 0
   1e55c:	32 80 00 1e 	bne,a   1e5d4 <__GI_fclose+0x204>
   1e560:	c2 17 00 00 	lduh  [ %i4 ], %g1
   1e564:	83 3f 60 02 	sra  %i5, 2, %g1
   1e568:	85 3f 60 0c 	sra  %i5, 0xc, %g2
   1e56c:	c0 27 60 08 	clr  [ %i5 + 8 ]
   1e570:	82 18 40 02 	xor  %g1, %g2, %g1
   1e574:	82 08 60 3f 	and  %g1, 0x3f, %g1
   1e578:	05 00 00 00 	sethi  %hi(0), %g2
   1e57c:	84 18 a3 ac 	xor  %g2, 0x3ac, %g2
   1e580:	84 05 c0 02 	add  %l7, %g2, %g2
   1e584:	c6 68 80 01 	ldstub  [ %g2 + %g1 ], %g3
   1e588:	80 a0 e0 00 	cmp  %g3, 0
   1e58c:	32 bf ff fc 	bne,a   1e57c <__GI_fclose+0x1ac>
   1e590:	05 00 00 00 	sethi  %hi(0), %g2
   1e594:	c6 07 40 00 	ld  [ %i5 ], %g3
   1e598:	c0 28 80 01 	clrb  [ %g2 + %g1 ]
   1e59c:	c0 27 40 00 	clr  [ %i5 ]
   1e5a0:	80 a0 e0 01 	cmp  %g3, 1
   1e5a4:	24 80 00 0c 	ble,a   1e5d4 <__GI_fclose+0x204>
   1e5a8:	c2 17 00 00 	lduh  [ %i4 ], %g1
   1e5ac:	82 10 20 8e 	mov  0x8e, %g1
   1e5b0:	96 10 20 00 	clr  %o3
   1e5b4:	94 10 20 01 	mov  1, %o2
   1e5b8:	92 10 20 81 	mov  0x81, %o1
   1e5bc:	90 10 00 1d 	mov  %i5, %o0
   1e5c0:	91 d0 20 10 	ta  0x10
   1e5c4:	1a 80 00 03 	bcc  1e5d0 <__GI_fclose+0x200>
   1e5c8:	82 10 00 08 	mov  %o0, %g1
   1e5cc:	82 20 00 08 	neg  %o0, %g1
   1e5d0:	c2 17 00 00 	lduh  [ %i4 ], %g1
   1e5d4:	05 00 00 18 	sethi  %hi(0x6000), %g2
   1e5d8:	82 08 40 02 	and  %g1, %g2, %g1
   1e5dc:	82 10 60 30 	or  %g1, 0x30, %g1
   1e5e0:	80 a6 e0 00 	cmp  %i3, 0
   1e5e4:	12 80 00 22 	bne  1e66c <__GI_fclose+0x29c>
   1e5e8:	c2 37 00 00 	sth  %g1, [ %i4 ]
   1e5ec:	c2 07 20 40 	ld  [ %i4 + 0x40 ], %g1
   1e5f0:	82 00 7f ff 	add  %g1, -1, %g1
   1e5f4:	80 a0 60 00 	cmp  %g1, 0
   1e5f8:	12 80 00 1d 	bne  1e66c <__GI_fclose+0x29c>
   1e5fc:	c2 27 20 40 	st  %g1, [ %i4 + 0x40 ]
   1e600:	90 07 20 3c 	add  %i4, 0x3c, %o0
   1e604:	c0 27 20 44 	clr  [ %i4 + 0x44 ]
   1e608:	83 3a 20 02 	sra  %o0, 2, %g1
   1e60c:	85 3a 20 0c 	sra  %o0, 0xc, %g2
   1e610:	82 18 40 02 	xor  %g1, %g2, %g1
   1e614:	82 08 60 3f 	and  %g1, 0x3f, %g1
   1e618:	05 00 00 00 	sethi  %hi(0), %g2
   1e61c:	84 18 a3 ac 	xor  %g2, 0x3ac, %g2
   1e620:	84 05 c0 02 	add  %l7, %g2, %g2
   1e624:	c6 68 80 01 	ldstub  [ %g2 + %g1 ], %g3
   1e628:	80 a0 e0 00 	cmp  %g3, 0
   1e62c:	32 bf ff fc 	bne,a   1e61c <__GI_fclose+0x24c>
   1e630:	05 00 00 00 	sethi  %hi(0), %g2
   1e634:	c6 07 20 3c 	ld  [ %i4 + 0x3c ], %g3
   1e638:	c0 27 20 3c 	clr  [ %i4 + 0x3c ]
   1e63c:	c0 28 80 01 	clrb  [ %g2 + %g1 ]
   1e640:	80 a0 e0 01 	cmp  %g3, 1
   1e644:	24 80 00 0b 	ble,a   1e670 <__GI_fclose+0x2a0>
   1e648:	c2 17 00 00 	lduh  [ %i4 ], %g1
   1e64c:	82 10 20 8e 	mov  0x8e, %g1
   1e650:	96 10 20 00 	clr  %o3
   1e654:	94 10 20 01 	mov  1, %o2
   1e658:	92 10 20 81 	mov  0x81, %o1
   1e65c:	91 d0 20 10 	ta  0x10
   1e660:	1a 80 00 03 	bcc  1e66c <__GI_fclose+0x29c>
   1e664:	82 10 00 08 	mov  %o0, %g1
   1e668:	82 20 00 08 	neg  %o0, %g1
   1e66c:	c2 17 00 00 	lduh  [ %i4 ], %g1
   1e670:	05 00 00 10 	sethi  %hi(0x4000), %g2
   1e674:	80 88 80 01 	btst  %g2, %g1
   1e678:	22 80 00 05 	be,a   1e68c <__GI_fclose+0x2bc>
   1e67c:	c2 07 60 08 	ld  [ %i5 + 8 ], %g1
   1e680:	7f ff d8 47 	call  1479c <free>
   1e684:	d0 07 20 08 	ld  [ %i4 + 8 ], %o0
   1e688:	c2 07 60 08 	ld  [ %i5 + 8 ], %g1
   1e68c:	80 a0 40 07 	cmp  %g1, %g7
   1e690:	02 80 00 19 	be  1e6f4 <__GI_fclose+0x324>
   1e694:	b8 10 00 07 	mov  %g7, %i4
   1e698:	83 3f 60 02 	sra  %i5, 2, %g1
   1e69c:	85 3f 60 0c 	sra  %i5, 0xc, %g2
   1e6a0:	82 18 40 02 	xor  %g1, %g2, %g1
   1e6a4:	82 08 60 3f 	and  %g1, 0x3f, %g1
   1e6a8:	05 00 00 00 	sethi  %hi(0), %g2
   1e6ac:	84 18 a3 ac 	xor  %g2, 0x3ac, %g2
   1e6b0:	84 05 c0 02 	add  %l7, %g2, %g2
   1e6b4:	c6 68 80 01 	ldstub  [ %g2 + %g1 ], %g3
   1e6b8:	80 a0 e0 00 	cmp  %g3, 0
   1e6bc:	32 bf ff fc 	bne,a   1e6ac <__GI_fclose+0x2dc>
   1e6c0:	05 00 00 00 	sethi  %hi(0), %g2
   1e6c4:	c6 07 40 00 	ld  [ %i5 ], %g3
   1e6c8:	80 a0 e0 00 	cmp  %g3, 0
   1e6cc:	12 80 00 03 	bne  1e6d8 <__GI_fclose+0x308>
   1e6d0:	88 10 20 01 	mov  1, %g4
   1e6d4:	c8 27 40 00 	st  %g4, [ %i5 ]
   1e6d8:	c0 28 80 01 	clrb  [ %g2 + %g1 ]
   1e6dc:	80 a0 e0 00 	cmp  %g3, 0
   1e6e0:	22 80 00 05 	be,a   1e6f4 <__GI_fclose+0x324>
   1e6e4:	f8 27 60 08 	st  %i4, [ %i5 + 8 ]
   1e6e8:	7f ff de bc 	call  161d8 <__lll_lock_wait_private>
   1e6ec:	90 10 00 1d 	mov  %i5, %o0
   1e6f0:	f8 27 60 08 	st  %i4, [ %i5 + 8 ]
   1e6f4:	03 00 00 01 	sethi  %hi(0x400), %g1
   1e6f8:	82 18 63 84 	xor  %g1, 0x384, %g1
   1e6fc:	82 05 c0 01 	add  %l7, %g1, %g1
   1e700:	c4 00 40 00 	ld  [ %g1 ], %g2
   1e704:	84 00 a0 01 	inc  %g2
   1e708:	c4 20 40 00 	st  %g2, [ %g1 ]
   1e70c:	c6 07 60 04 	ld  [ %i5 + 4 ], %g3
   1e710:	80 a0 e0 00 	cmp  %g3, 0
   1e714:	12 80 00 1b 	bne  1e780 <__GI_fclose+0x3b0>
   1e718:	83 3f 60 02 	sra  %i5, 2, %g1
   1e71c:	85 3f 60 0c 	sra  %i5, 0xc, %g2
   1e720:	c0 27 60 08 	clr  [ %i5 + 8 ]
   1e724:	82 18 40 02 	xor  %g1, %g2, %g1
   1e728:	82 08 60 3f 	and  %g1, 0x3f, %g1
   1e72c:	05 00 00 00 	sethi  %hi(0), %g2
   1e730:	84 18 a3 ac 	xor  %g2, 0x3ac, %g2
   1e734:	84 05 c0 02 	add  %l7, %g2, %g2
   1e738:	c6 68 80 01 	ldstub  [ %g2 + %g1 ], %g3
   1e73c:	80 a0 e0 00 	cmp  %g3, 0
   1e740:	32 bf ff fc 	bne,a   1e730 <__GI_fclose+0x360>
   1e744:	05 00 00 00 	sethi  %hi(0), %g2
   1e748:	c6 07 40 00 	ld  [ %i5 ], %g3
   1e74c:	c0 28 80 01 	clrb  [ %g2 + %g1 ]
   1e750:	c0 27 40 00 	clr  [ %i5 ]
   1e754:	80 a0 e0 01 	cmp  %g3, 1
   1e758:	04 80 00 0a 	ble  1e780 <__GI_fclose+0x3b0>
   1e75c:	82 10 20 8e 	mov  0x8e, %g1
   1e760:	96 10 20 00 	clr  %o3
   1e764:	94 10 20 01 	mov  1, %o2
   1e768:	92 10 20 81 	mov  0x81, %o1
   1e76c:	90 10 00 1d 	mov  %i5, %o0
   1e770:	91 d0 20 10 	ta  0x10
   1e774:	1a 80 00 03 	bcc  1e780 <__GI_fclose+0x3b0>
   1e778:	82 10 00 08 	mov  %o0, %g1
   1e77c:	82 20 00 08 	neg  %o0, %g1
   1e780:	7f ff cd a8 	call  11e20 <_stdio_openlist_dec_use>
   1e784:	01 00 00 00 	nop 
   1e788:	81 c7 e0 08 	ret 
   1e78c:	81 e8 00 00 	restore 
   1e790:	7f ff c8 14 	call  107e0 <close>
   1e794:	01 00 00 00 	nop 
   1e798:	10 bf ff 47 	b  1e4b4 <__GI_fclose+0xe4>
   1e79c:	80 a2 20 00 	cmp  %o0, 0

0001e7a0 <__GI_fseek>:
   1e7a0:	9d e3 bf a0 	save  %sp, -96, %sp
   1e7a4:	82 10 00 19 	mov  %i1, %g1
   1e7a8:	b6 10 00 1a 	mov  %i2, %i3
   1e7ac:	b3 3e 60 1f 	sra  %i1, 0x1f, %i1
   1e7b0:	10 80 00 0e 	b  1e7e8 <__GI_fseeko64>
   1e7b4:	95 e8 00 01 	restore  %g0, %g1, %o2

0001e7b8 <__GI_fprintf>:
   1e7b8:	9d e3 bf 98 	save  %sp, -104, %sp
   1e7bc:	94 07 a0 4c 	add  %fp, 0x4c, %o2
   1e7c0:	f4 27 a0 4c 	st  %i2, [ %fp + 0x4c ]
   1e7c4:	f6 27 a0 50 	st  %i3, [ %fp + 0x50 ]
   1e7c8:	f8 27 a0 54 	st  %i4, [ %fp + 0x54 ]
   1e7cc:	fa 27 a0 58 	st  %i5, [ %fp + 0x58 ]
   1e7d0:	d4 27 bf fc 	st  %o2, [ %fp + -4 ]
   1e7d4:	92 10 00 19 	mov  %i1, %o1
   1e7d8:	7f ff f4 2a 	call  1b880 <__GI_vfprintf>
   1e7dc:	90 10 00 18 	mov  %i0, %o0
   1e7e0:	81 c7 e0 08 	ret 
   1e7e4:	91 e8 00 08 	restore  %g0, %o0, %o0

0001e7e8 <__GI_fseeko64>:
   1e7e8:	9d e3 bf 98 	save  %sp, -104, %sp
   1e7ec:	84 10 00 19 	mov  %i1, %g2
   1e7f0:	86 10 00 1a 	mov  %i2, %g3
   1e7f4:	c4 3f bf f8 	std  %g2, [ %fp + -8 ]
   1e7f8:	2f 00 00 85 	sethi  %hi(0x21400), %l7
   1e7fc:	7f ff c8 0a 	call  10824 <__sparc_get_pc_thunk.l7>
   1e800:	ae 05 e2 d0 	add  %l7, 0x2d0, %l7	! 216d0 <locale_mmap+0xf70>
   1e804:	80 a6 e0 02 	cmp  %i3, 2
   1e808:	08 80 00 09 	bleu  1e82c <__GI_fseeko64+0x44>
   1e80c:	ba 10 00 18 	mov  %i0, %i5
   1e810:	84 10 20 16 	mov  0x16, %g2
   1e814:	03 00 00 00 	sethi  %hi(0), %g1
   1e818:	82 18 7f f8 	xor  %g1, -8, %g1
   1e81c:	01 00 00 00 	nop 
   1e820:	c4 21 c0 01 	st  %g2, [ %g7 + %g1 ]
   1e824:	81 c7 e0 08 	ret 
   1e828:	91 e8 3f ff 	restore  %g0, -1, %o0
   1e82c:	f8 06 20 38 	ld  [ %i0 + 0x38 ], %i4
   1e830:	80 a7 20 00 	cmp  %i4, 0
   1e834:	32 80 00 22 	bne,a   1e8bc <__GI_fseeko64+0xd4>
   1e838:	c2 17 40 00 	lduh  [ %i5 ], %g1
   1e83c:	c2 06 20 44 	ld  [ %i0 + 0x44 ], %g1
   1e840:	80 a0 40 07 	cmp  %g1, %g7
   1e844:	02 80 00 1a 	be  1e8ac <__GI_fseeko64+0xc4>
   1e848:	b4 10 00 07 	mov  %g7, %i2
   1e84c:	90 06 20 3c 	add  %i0, 0x3c, %o0
   1e850:	83 3a 20 02 	sra  %o0, 2, %g1
   1e854:	85 3a 20 0c 	sra  %o0, 0xc, %g2
   1e858:	82 18 40 02 	xor  %g1, %g2, %g1
   1e85c:	82 08 60 3f 	and  %g1, 0x3f, %g1
   1e860:	05 00 00 00 	sethi  %hi(0), %g2
   1e864:	84 18 a3 ac 	xor  %g2, 0x3ac, %g2
   1e868:	84 05 c0 02 	add  %l7, %g2, %g2
   1e86c:	c6 68 80 01 	ldstub  [ %g2 + %g1 ], %g3
   1e870:	80 a0 e0 00 	cmp  %g3, 0
   1e874:	32 bf ff fc 	bne,a   1e864 <__GI_fseeko64+0x7c>
   1e878:	05 00 00 00 	sethi  %hi(0), %g2
   1e87c:	c6 07 60 3c 	ld  [ %i5 + 0x3c ], %g3
   1e880:	80 a0 e0 00 	cmp  %g3, 0
   1e884:	12 80 00 03 	bne  1e890 <__GI_fseeko64+0xa8>
   1e888:	88 10 20 01 	mov  1, %g4
   1e88c:	c8 27 60 3c 	st  %g4, [ %i5 + 0x3c ]
   1e890:	c0 28 80 01 	clrb  [ %g2 + %g1 ]
   1e894:	80 a0 e0 00 	cmp  %g3, 0
   1e898:	22 80 00 05 	be,a   1e8ac <__GI_fseeko64+0xc4>
   1e89c:	f4 27 60 44 	st  %i2, [ %i5 + 0x44 ]
   1e8a0:	7f ff de 4e 	call  161d8 <__lll_lock_wait_private>
   1e8a4:	01 00 00 00 	nop 
   1e8a8:	f4 27 60 44 	st  %i2, [ %i5 + 0x44 ]
   1e8ac:	c2 07 60 40 	ld  [ %i5 + 0x40 ], %g1
   1e8b0:	82 00 60 01 	inc  %g1
   1e8b4:	c2 27 60 40 	st  %g1, [ %i5 + 0x40 ]
   1e8b8:	c2 17 40 00 	lduh  [ %i5 ], %g1
   1e8bc:	80 88 60 40 	btst  0x40, %g1
   1e8c0:	12 80 00 22 	bne  1e948 <__GI_fseeko64+0x160>
   1e8c4:	80 a6 e0 01 	cmp  %i3, 1
   1e8c8:	32 80 00 09 	bne,a   1e8ec <__GI_fseeko64+0x104>
   1e8cc:	c2 07 60 04 	ld  [ %i5 + 4 ], %g1
   1e8d0:	92 07 bf f8 	add  %fp, -8, %o1
   1e8d4:	40 00 00 a5 	call  1eb68 <__stdio_adjust_position>
   1e8d8:	90 10 00 1d 	mov  %i5, %o0
   1e8dc:	80 a2 20 00 	cmp  %o0, 0
   1e8e0:	06 80 00 20 	bl  1e960 <__GI_fseeko64+0x178>
   1e8e4:	b0 10 3f ff 	mov  -1, %i0
   1e8e8:	c2 07 60 04 	ld  [ %i5 + 4 ], %g1
   1e8ec:	80 a0 7f fe 	cmp  %g1, -2
   1e8f0:	12 80 00 40 	bne  1e9f0 <__GI_fseeko64+0x208>
   1e8f4:	94 10 00 1b 	mov  %i3, %o2
   1e8f8:	c2 07 60 54 	ld  [ %i5 + 0x54 ], %g1
   1e8fc:	80 a0 60 00 	cmp  %g1, 0
   1e900:	02 80 00 17 	be  1e95c <__GI_fseeko64+0x174>
   1e904:	92 07 bf f8 	add  %fp, -8, %o1
   1e908:	9f c0 40 00 	call  %g1
   1e90c:	d0 07 60 48 	ld  [ %i5 + 0x48 ], %o0
   1e910:	80 a2 20 00 	cmp  %o0, 0
   1e914:	06 80 00 12 	bl  1e95c <__GI_fseeko64+0x174>
   1e918:	b0 10 20 00 	clr  %i0
   1e91c:	c2 17 40 00 	lduh  [ %i5 ], %g1
   1e920:	82 08 7f b8 	and  %g1, -72, %g1
   1e924:	c0 27 60 2c 	clr  [ %i5 + 0x2c ]
   1e928:	c2 37 40 00 	sth  %g1, [ %i5 ]
   1e92c:	c0 2f 60 02 	clrb  [ %i5 + 2 ]
   1e930:	c2 07 60 08 	ld  [ %i5 + 8 ], %g1
   1e934:	c2 27 60 10 	st  %g1, [ %i5 + 0x10 ]
   1e938:	c2 27 60 14 	st  %g1, [ %i5 + 0x14 ]
   1e93c:	c2 27 60 18 	st  %g1, [ %i5 + 0x18 ]
   1e940:	10 80 00 08 	b  1e960 <__GI_fseeko64+0x178>
   1e944:	c2 27 60 1c 	st  %g1, [ %i5 + 0x1c ]
   1e948:	7f ff f0 27 	call  1a9e4 <__stdio_wcommit>
   1e94c:	90 10 00 1d 	mov  %i5, %o0
   1e950:	80 a2 20 00 	cmp  %o0, 0
   1e954:	02 bf ff dd 	be  1e8c8 <__GI_fseeko64+0xe0>
   1e958:	80 a6 e0 01 	cmp  %i3, 1
   1e95c:	b0 10 3f ff 	mov  -1, %i0
   1e960:	80 a7 20 00 	cmp  %i4, 0
   1e964:	12 80 00 21 	bne  1e9e8 <__GI_fseeko64+0x200>
   1e968:	01 00 00 00 	nop 
   1e96c:	c2 07 60 40 	ld  [ %i5 + 0x40 ], %g1
   1e970:	82 00 7f ff 	add  %g1, -1, %g1
   1e974:	80 a0 60 00 	cmp  %g1, 0
   1e978:	12 80 00 1c 	bne  1e9e8 <__GI_fseeko64+0x200>
   1e97c:	c2 27 60 40 	st  %g1, [ %i5 + 0x40 ]
   1e980:	90 07 60 3c 	add  %i5, 0x3c, %o0
   1e984:	c0 27 60 44 	clr  [ %i5 + 0x44 ]
   1e988:	83 3a 20 02 	sra  %o0, 2, %g1
   1e98c:	85 3a 20 0c 	sra  %o0, 0xc, %g2
   1e990:	82 18 40 02 	xor  %g1, %g2, %g1
   1e994:	82 08 60 3f 	and  %g1, 0x3f, %g1
   1e998:	05 00 00 00 	sethi  %hi(0), %g2
   1e99c:	84 18 a3 ac 	xor  %g2, 0x3ac, %g2
   1e9a0:	84 05 c0 02 	add  %l7, %g2, %g2
   1e9a4:	c6 68 80 01 	ldstub  [ %g2 + %g1 ], %g3
   1e9a8:	80 a0 e0 00 	cmp  %g3, 0
   1e9ac:	32 bf ff fc 	bne,a   1e99c <__GI_fseeko64+0x1b4>
   1e9b0:	05 00 00 00 	sethi  %hi(0), %g2
   1e9b4:	c6 07 60 3c 	ld  [ %i5 + 0x3c ], %g3
   1e9b8:	c0 27 60 3c 	clr  [ %i5 + 0x3c ]
   1e9bc:	c0 28 80 01 	clrb  [ %g2 + %g1 ]
   1e9c0:	80 a0 e0 01 	cmp  %g3, 1
   1e9c4:	04 80 00 09 	ble  1e9e8 <__GI_fseeko64+0x200>
   1e9c8:	82 10 20 8e 	mov  0x8e, %g1
   1e9cc:	96 10 20 00 	clr  %o3
   1e9d0:	94 10 20 01 	mov  1, %o2
   1e9d4:	92 10 20 81 	mov  0x81, %o1
   1e9d8:	91 d0 20 10 	ta  0x10
   1e9dc:	1a 80 00 03 	bcc  1e9e8 <__GI_fseeko64+0x200>
   1e9e0:	82 10 00 08 	mov  %o0, %g1
   1e9e4:	82 20 00 08 	neg  %o0, %g1
   1e9e8:	81 c7 e0 08 	ret 
   1e9ec:	81 e8 00 00 	restore 
   1e9f0:	92 07 bf f8 	add  %fp, -8, %o1
   1e9f4:	40 00 00 98 	call  1ec54 <__stdio_seek>
   1e9f8:	90 10 00 1d 	mov  %i5, %o0
   1e9fc:	10 bf ff c6 	b  1e914 <__GI_fseeko64+0x12c>
   1ea00:	80 a2 20 00 	cmp  %o0, 0

0001ea04 <__stdio_WRITE>:
   1ea04:	9d e3 bf a0 	save  %sp, -96, %sp
   1ea08:	2f 00 00 85 	sethi  %hi(0x21400), %l7
   1ea0c:	7f ff c7 86 	call  10824 <__sparc_get_pc_thunk.l7>
   1ea10:	ae 05 e0 c0 	add  %l7, 0xc0, %l7	! 214c0 <locale_mmap+0xd60>
   1ea14:	21 1f ff ff 	sethi  %hi(0x7ffffc00), %l0
   1ea18:	37 00 00 00 	sethi  %hi(0), %i3
   1ea1c:	b8 10 00 18 	mov  %i0, %i4
   1ea20:	a2 1e ff f8 	xor  %i3, -8, %l1
   1ea24:	ba 10 00 1a 	mov  %i2, %i5
   1ea28:	a0 14 23 ff 	or  %l0, 0x3ff, %l0
   1ea2c:	01 00 00 00 	nop 
   1ea30:	a4 10 20 0b 	mov  0xb, %l2	! b <__libc_h_errno+0x7>
   1ea34:	80 a7 60 00 	cmp  %i5, 0
   1ea38:	02 80 00 1f 	be  1eab4 <__stdio_WRITE+0xb0>
   1ea3c:	01 00 00 00 	nop 
   1ea40:	b0 10 00 1d 	mov  %i5, %i0
   1ea44:	16 80 00 03 	bge  1ea50 <__stdio_WRITE+0x4c>
   1ea48:	94 10 00 1d 	mov  %i5, %o2
   1ea4c:	94 10 00 10 	mov  %l0, %o2
   1ea50:	d0 07 20 04 	ld  [ %i4 + 4 ], %o0
   1ea54:	80 a2 3f fe 	cmp  %o0, -2
   1ea58:	12 80 00 25 	bne  1eaec <__stdio_WRITE+0xe8>
   1ea5c:	01 00 00 00 	nop 
   1ea60:	c2 07 20 50 	ld  [ %i4 + 0x50 ], %g1
   1ea64:	80 a0 60 00 	cmp  %g1, 0
   1ea68:	32 80 00 15 	bne,a   1eabc <__stdio_WRITE+0xb8>
   1ea6c:	e4 21 c0 11 	st  %l2, [ %g7 + %l1 ]
   1ea70:	b6 1e ff f8 	xor  %i3, -8, %i3
   1ea74:	82 10 20 16 	mov  0x16, %g1
   1ea78:	01 00 00 00 	nop 
   1ea7c:	c2 21 c0 1b 	st  %g1, [ %g7 + %i3 ]
   1ea80:	c2 17 00 00 	lduh  [ %i4 ], %g1
   1ea84:	82 10 60 08 	or  %g1, 8, %g1
   1ea88:	c2 37 00 00 	sth  %g1, [ %i4 ]
   1ea8c:	03 00 00 00 	sethi  %hi(0), %g1
   1ea90:	82 18 7f f8 	xor  %g1, -8, %g1
   1ea94:	01 00 00 00 	nop 
   1ea98:	c2 01 c0 01 	ld  [ %g7 + %g1 ], %g1
   1ea9c:	80 a0 60 04 	cmp  %g1, 4
   1eaa0:	02 80 00 17 	be  1eafc <__stdio_WRITE+0xf8>
   1eaa4:	80 a0 60 0b 	cmp  %g1, 0xb
   1eaa8:	22 80 00 16 	be,a   1eb00 <__stdio_WRITE+0xfc>
   1eaac:	c2 07 20 08 	ld  [ %i4 + 8 ], %g1
   1eab0:	b4 26 80 1d 	sub  %i2, %i5, %i2
   1eab4:	81 c7 e0 08 	ret 
   1eab8:	91 e8 00 1a 	restore  %g0, %i2, %o0
   1eabc:	92 10 00 19 	mov  %i1, %o1
   1eac0:	9f c0 40 00 	call  %g1
   1eac4:	d0 07 20 48 	ld  [ %i4 + 0x48 ], %o0
   1eac8:	80 a2 20 00 	cmp  %o0, 0
   1eacc:	22 bf ff ee 	be,a   1ea84 <__stdio_WRITE+0x80>
   1ead0:	c2 17 00 00 	lduh  [ %i4 ], %g1
   1ead4:	80 a2 20 00 	cmp  %o0, 0
   1ead8:	26 bf ff eb 	bl,a   1ea84 <__stdio_WRITE+0x80>
   1eadc:	c2 17 00 00 	lduh  [ %i4 ], %g1
   1eae0:	ba 27 40 08 	sub  %i5, %o0, %i5
   1eae4:	10 bf ff d4 	b  1ea34 <__stdio_WRITE+0x30>
   1eae8:	b2 06 40 08 	add  %i1, %o0, %i1
   1eaec:	7f ff c8 11 	call  10b30 <write>
   1eaf0:	92 10 00 19 	mov  %i1, %o1
   1eaf4:	10 bf ff f9 	b  1ead8 <__stdio_WRITE+0xd4>
   1eaf8:	80 a2 20 00 	cmp  %o0, 0
   1eafc:	c2 07 20 08 	ld  [ %i4 + 8 ], %g1
   1eb00:	c4 07 20 0c 	ld  [ %i4 + 0xc ], %g2
   1eb04:	84 a0 80 01 	subcc  %g2, %g1, %g2
   1eb08:	22 bf ff eb 	be,a   1eab4 <__stdio_WRITE+0xb0>
   1eb0c:	b4 26 80 1d 	sub  %i2, %i5, %i2
   1eb10:	80 a0 80 1d 	cmp  %g2, %i5
   1eb14:	28 80 00 02 	bleu,a   1eb1c <__stdio_WRITE+0x118>
   1eb18:	b0 10 00 02 	mov  %g2, %i0
   1eb1c:	84 10 20 00 	clr  %g2
   1eb20:	c6 0e 40 02 	ldub  [ %i1 + %g2 ], %g3
   1eb24:	c6 28 40 00 	stb  %g3, [ %g1 ]
   1eb28:	86 08 e0 ff 	and  %g3, 0xff, %g3
   1eb2c:	80 a0 e0 0a 	cmp  %g3, 0xa
   1eb30:	12 80 00 06 	bne  1eb48 <__stdio_WRITE+0x144>
   1eb34:	84 00 a0 01 	inc  %g2
   1eb38:	c6 17 00 00 	lduh  [ %i4 ], %g3
   1eb3c:	80 88 e1 00 	btst  0x100, %g3
   1eb40:	32 80 00 06 	bne,a   1eb58 <__stdio_WRITE+0x154>
   1eb44:	c2 27 20 10 	st  %g1, [ %i4 + 0x10 ]
   1eb48:	80 a0 80 18 	cmp  %g2, %i0
   1eb4c:	12 bf ff f5 	bne  1eb20 <__stdio_WRITE+0x11c>
   1eb50:	82 00 60 01 	inc  %g1
   1eb54:	c2 27 20 10 	st  %g1, [ %i4 + 0x10 ]
   1eb58:	c4 07 20 08 	ld  [ %i4 + 8 ], %g2
   1eb5c:	82 20 40 02 	sub  %g1, %g2, %g1
   1eb60:	10 bf ff d4 	b  1eab0 <__stdio_WRITE+0xac>
   1eb64:	ba 27 40 01 	sub  %i5, %g1, %i5

0001eb68 <__stdio_adjust_position>:
   1eb68:	9d e3 bf a0 	save  %sp, -96, %sp
   1eb6c:	2f 00 00 84 	sethi  %hi(0x21000), %l7
   1eb70:	7f ff c7 2d 	call  10824 <__sparc_get_pc_thunk.l7>
   1eb74:	ae 05 e3 5c 	add  %l7, 0x35c, %l7	! 2135c <locale_mmap+0xbfc>
   1eb78:	c6 16 00 00 	lduh  [ %i0 ], %g3
   1eb7c:	84 88 e0 03 	andcc  %g3, 3, %g2
   1eb80:	22 80 00 16 	be,a   1ebd8 <__stdio_adjust_position+0x70>
   1eb84:	84 10 20 00 	clr  %g2
   1eb88:	84 80 bf ff 	addcc  %g2, -1, %g2
   1eb8c:	02 80 00 14 	be  1ebdc <__stdio_adjust_position+0x74>
   1eb90:	80 88 e0 40 	btst  0x40, %g3
   1eb94:	80 88 e8 00 	btst  0x800, %g3
   1eb98:	02 80 00 11 	be  1ebdc <__stdio_adjust_position+0x74>
   1eb9c:	80 88 e0 40 	btst  0x40, %g3
   1eba0:	80 a0 a0 02 	cmp  %g2, 2
   1eba4:	02 80 00 28 	be  1ec44 <__stdio_adjust_position+0xdc>
   1eba8:	82 10 3f ff 	mov  -1, %g1
   1ebac:	c4 06 20 28 	ld  [ %i0 + 0x28 ], %g2
   1ebb0:	80 a0 a0 00 	cmp  %g2, 0
   1ebb4:	12 80 00 24 	bne  1ec44 <__stdio_adjust_position+0xdc>
   1ebb8:	01 00 00 00 	nop 
   1ebbc:	c4 0e 20 03 	ldub  [ %i0 + 3 ], %g2
   1ebc0:	c2 06 20 2c 	ld  [ %i0 + 0x2c ], %g1
   1ebc4:	80 a0 60 00 	cmp  %g1, 0
   1ebc8:	04 80 00 04 	ble  1ebd8 <__stdio_adjust_position+0x70>
   1ebcc:	84 20 00 02 	neg  %g2
   1ebd0:	c2 0e 20 02 	ldub  [ %i0 + 2 ], %g1
   1ebd4:	84 20 80 01 	sub  %g2, %g1, %g2
   1ebd8:	80 88 e0 40 	btst  0x40, %g3
   1ebdc:	22 80 00 03 	be,a   1ebe8 <__stdio_adjust_position+0x80>
   1ebe0:	c2 06 20 14 	ld  [ %i0 + 0x14 ], %g1
   1ebe4:	c2 06 20 08 	ld  [ %i0 + 8 ], %g1
   1ebe8:	c6 06 20 10 	ld  [ %i0 + 0x10 ], %g3
   1ebec:	82 20 40 03 	sub  %g1, %g3, %g1
   1ebf0:	82 00 40 02 	add  %g1, %g2, %g1
   1ebf4:	c4 1e 40 00 	ldd  [ %i1 ], %g2
   1ebf8:	b5 38 60 1f 	sra  %g1, 0x1f, %i2
   1ebfc:	ba a0 c0 01 	subcc  %g3, %g1, %i5
   1ec00:	b8 60 80 1a 	subx  %g2, %i2, %i4
   1ec04:	80 a7 00 02 	cmp  %i4, %g2
   1ec08:	14 80 00 07 	bg  1ec24 <__stdio_adjust_position+0xbc>
   1ec0c:	f8 3e 40 00 	std  %i4, [ %i1 ]
   1ec10:	12 80 00 07 	bne  1ec2c <__stdio_adjust_position+0xc4>
   1ec14:	80 a0 60 00 	cmp  %g1, 0
   1ec18:	80 a7 40 03 	cmp  %i5, %g3
   1ec1c:	08 80 00 04 	bleu  1ec2c <__stdio_adjust_position+0xc4>
   1ec20:	80 a0 60 00 	cmp  %g1, 0
   1ec24:	82 20 00 01 	neg  %g1
   1ec28:	80 a0 60 00 	cmp  %g1, 0
   1ec2c:	16 80 00 06 	bge  1ec44 <__stdio_adjust_position+0xdc>
   1ec30:	05 00 00 00 	sethi  %hi(0), %g2
   1ec34:	84 18 bf f8 	xor  %g2, -8, %g2
   1ec38:	ae 10 00 02 	mov  %g2, %l7
   1ec3c:	84 10 20 5c 	mov  0x5c, %g2
   1ec40:	c4 21 c0 17 	st  %g2, [ %g7 + %l7 ]
   1ec44:	81 c7 e0 08 	ret 
   1ec48:	91 e8 00 01 	restore  %g0, %g1, %o0
   1ec4c:	10 bf ff e7 	b  1ebe8 <__stdio_adjust_position+0x80>
   1ec50:	c2 06 20 14 	ld  [ %i0 + 0x14 ], %g1

0001ec54 <__stdio_seek>:
   1ec54:	9d e3 bf a0 	save  %sp, -96, %sp
   1ec58:	d0 06 20 04 	ld  [ %i0 + 4 ], %o0
   1ec5c:	96 10 00 1a 	mov  %i2, %o3
   1ec60:	d2 06 40 00 	ld  [ %i1 ], %o1
   1ec64:	40 00 00 cc 	call  1ef94 <lseek64>
   1ec68:	d4 06 60 04 	ld  [ %i1 + 4 ], %o2
   1ec6c:	80 a2 20 00 	cmp  %o0, 0
   1ec70:	06 80 00 05 	bl  1ec84 <__stdio_seek+0x30>
   1ec74:	b0 10 00 09 	mov  %o1, %i0
   1ec78:	d0 26 40 00 	st  %o0, [ %i1 ]
   1ec7c:	d2 26 60 04 	st  %o1, [ %i1 + 4 ]
   1ec80:	b0 10 20 00 	clr  %i0
   1ec84:	81 c7 e0 08 	ret 
   1ec88:	81 e8 00 00 	restore 

0001ec8c <__GI_fopencookie>:
   1ec8c:	9d e3 bf a0 	save  %sp, -96, %sp
   1ec90:	7f ff d7 6b 	call  14a3c <malloc>
   1ec94:	90 10 20 5c 	mov  0x5c, %o0
   1ec98:	b8 92 20 00 	orcc  %o0, 0, %i4
   1ec9c:	02 80 00 17 	be  1ecf8 <__GI_fopencookie+0x6c>
   1eca0:	ba 10 00 08 	mov  %o0, %i5
   1eca4:	03 00 00 08 	sethi  %hi(0x2000), %g1
   1eca8:	c0 22 20 08 	clr  [ %o0 + 8 ]
   1ecac:	c2 32 00 00 	sth  %g1, [ %o0 ]
   1ecb0:	c0 22 20 3c 	clr  [ %o0 + 0x3c ]
   1ecb4:	c0 22 20 40 	clr  [ %o0 + 0x40 ]
   1ecb8:	c0 22 20 44 	clr  [ %o0 + 0x44 ]
   1ecbc:	94 10 00 1d 	mov  %i5, %o2
   1ecc0:	11 1f ff ff 	sethi  %hi(0x7ffffc00), %o0
   1ecc4:	92 10 00 19 	mov  %i1, %o1
   1ecc8:	96 12 23 ff 	or  %o0, 0x3ff, %o3
   1eccc:	40 00 00 c7 	call  1efe8 <_stdio_fopen>
   1ecd0:	90 12 23 fe 	or  %o0, 0x3fe, %o0
   1ecd4:	b8 92 20 00 	orcc  %o0, 0, %i4
   1ecd8:	02 80 00 08 	be  1ecf8 <__GI_fopencookie+0x6c>
   1ecdc:	82 10 3f fe 	mov  -2, %g1
   1ece0:	94 10 20 10 	mov  0x10, %o2
   1ece4:	c2 27 20 04 	st  %g1, [ %i4 + 4 ]
   1ece8:	92 10 00 1a 	mov  %i2, %o1
   1ecec:	7f ff cf d2 	call  12c34 <__GI_memcpy>
   1ecf0:	90 07 60 4c 	add  %i5, 0x4c, %o0
   1ecf4:	f0 27 60 48 	st  %i0, [ %i5 + 0x48 ]
   1ecf8:	81 c7 e0 08 	ret 
   1ecfc:	91 e8 00 1c 	restore  %g0, %i4, %o0

0001ed00 <__GI_strncmp>:
   1ed00:	9d e3 bf a0 	save  %sp, -96, %sp
   1ed04:	80 a6 a0 03 	cmp  %i2, 3
   1ed08:	28 80 00 33 	bleu,a   1edd4 <__GI_strncmp+0xd4>
   1ed0c:	84 10 20 00 	clr  %g2
   1ed10:	87 36 a0 02 	srl  %i2, 2, %g3
   1ed14:	c2 0e 00 00 	ldub  [ %i0 ], %g1
   1ed18:	80 a0 60 00 	cmp  %g1, 0
   1ed1c:	02 80 00 05 	be  1ed30 <__GI_strncmp+0x30>
   1ed20:	c4 0e 40 00 	ldub  [ %i1 ], %g2
   1ed24:	80 a0 40 02 	cmp  %g1, %g2
   1ed28:	22 80 00 05 	be,a   1ed3c <__GI_strncmp+0x3c>
   1ed2c:	c2 0e 20 01 	ldub  [ %i0 + 1 ], %g1
   1ed30:	b0 20 40 02 	sub  %g1, %g2, %i0
   1ed34:	81 c7 e0 08 	ret 
   1ed38:	81 e8 00 00 	restore 
   1ed3c:	80 a0 60 00 	cmp  %g1, 0
   1ed40:	02 bf ff fc 	be  1ed30 <__GI_strncmp+0x30>
   1ed44:	c4 0e 60 01 	ldub  [ %i1 + 1 ], %g2
   1ed48:	80 a0 40 02 	cmp  %g1, %g2
   1ed4c:	32 bf ff fa 	bne,a   1ed34 <__GI_strncmp+0x34>
   1ed50:	b0 20 40 02 	sub  %g1, %g2, %i0
   1ed54:	c2 0e 20 02 	ldub  [ %i0 + 2 ], %g1
   1ed58:	80 a0 60 00 	cmp  %g1, 0
   1ed5c:	02 bf ff f5 	be  1ed30 <__GI_strncmp+0x30>
   1ed60:	c4 0e 60 02 	ldub  [ %i1 + 2 ], %g2
   1ed64:	80 a0 40 02 	cmp  %g1, %g2
   1ed68:	32 bf ff f3 	bne,a   1ed34 <__GI_strncmp+0x34>
   1ed6c:	b0 20 40 02 	sub  %g1, %g2, %i0
   1ed70:	b0 06 20 04 	add  %i0, 4, %i0
   1ed74:	b2 06 60 04 	add  %i1, 4, %i1
   1ed78:	c2 0e 3f ff 	ldub  [ %i0 + -1 ], %g1
   1ed7c:	c4 0e 7f ff 	ldub  [ %i1 + -1 ], %g2
   1ed80:	ba 88 60 ff 	andcc  %g1, 0xff, %i5
   1ed84:	02 80 00 05 	be  1ed98 <__GI_strncmp+0x98>
   1ed88:	88 08 a0 ff 	and  %g2, 0xff, %g4
   1ed8c:	80 a7 40 04 	cmp  %i5, %g4
   1ed90:	22 80 00 05 	be,a   1eda4 <__GI_strncmp+0xa4>
   1ed94:	86 80 ff ff 	addcc  %g3, -1, %g3
   1ed98:	b0 27 40 04 	sub  %i5, %g4, %i0
   1ed9c:	81 c7 e0 08 	ret 
   1eda0:	81 e8 00 00 	restore 
   1eda4:	32 bf ff dd 	bne,a   1ed18 <__GI_strncmp+0x18>
   1eda8:	c2 0e 00 00 	ldub  [ %i0 ], %g1
   1edac:	b4 0e a0 03 	and  %i2, 3, %i2
   1edb0:	86 10 20 00 	clr  %g3
   1edb4:	80 a6 80 03 	cmp  %i2, %g3
   1edb8:	32 80 00 09 	bne,a   1eddc <__GI_strncmp+0xdc>
   1edbc:	c2 0e 00 03 	ldub  [ %i0 + %g3 ], %g1
   1edc0:	b0 08 60 ff 	and  %g1, 0xff, %i0
   1edc4:	84 08 a0 ff 	and  %g2, 0xff, %g2
   1edc8:	b0 26 00 02 	sub  %i0, %g2, %i0
   1edcc:	81 c7 e0 08 	ret 
   1edd0:	81 e8 00 00 	restore 
   1edd4:	10 bf ff f7 	b  1edb0 <__GI_strncmp+0xb0>
   1edd8:	82 10 20 00 	clr  %g1
   1eddc:	c4 0e 40 03 	ldub  [ %i1 + %g3 ], %g2
   1ede0:	ba 88 60 ff 	andcc  %g1, 0xff, %i5
   1ede4:	86 00 e0 01 	inc  %g3
   1ede8:	02 bf ff ec 	be  1ed98 <__GI_strncmp+0x98>
   1edec:	88 08 a0 ff 	and  %g2, 0xff, %g4
   1edf0:	80 a7 40 04 	cmp  %i5, %g4
   1edf4:	02 bf ff f1 	be  1edb8 <__GI_strncmp+0xb8>
   1edf8:	80 a6 80 03 	cmp  %i2, %g3
   1edfc:	b0 27 40 04 	sub  %i5, %g4, %i0
   1ee00:	81 c7 e0 08 	ret 
   1ee04:	81 e8 00 00 	restore 

0001ee08 <calloc>:
   1ee08:	9d e3 bf 90 	save  %sp, -112, %sp
   1ee0c:	2f 00 00 84 	sethi  %hi(0x21000), %l7
   1ee10:	7f ff c6 85 	call  10824 <__sparc_get_pc_thunk.l7>
   1ee14:	ae 05 e0 bc 	add  %l7, 0xbc, %l7	! 210bc <locale_mmap+0x95c>
   1ee18:	80 a6 20 00 	cmp  %i0, 0
   1ee1c:	02 80 00 11 	be  1ee60 <calloc+0x58>
   1ee20:	b6 5e 00 19 	smul  %i0, %i1, %i3
   1ee24:	81 80 20 00 	wr  %g0, %y
   1ee28:	01 00 00 00 	nop 
   1ee2c:	01 00 00 00 	nop 
   1ee30:	01 00 00 00 	nop 
   1ee34:	b0 76 c0 18 	udiv  %i3, %i0, %i0
   1ee38:	80 a6 00 19 	cmp  %i0, %i1
   1ee3c:	02 80 00 0a 	be  1ee64 <calloc+0x5c>
   1ee40:	15 00 00 00 	sethi  %hi(0), %o2
   1ee44:	03 00 00 00 	sethi  %hi(0), %g1
   1ee48:	82 18 7f f8 	xor  %g1, -8, %g1
   1ee4c:	ae 10 00 01 	mov  %g1, %l7
   1ee50:	82 10 20 0c 	mov  0xc, %g1
   1ee54:	c2 21 c0 17 	st  %g1, [ %g7 + %l7 ]
   1ee58:	81 c7 e0 08 	ret 
   1ee5c:	91 e8 20 00 	restore  %g0, 0, %o0
   1ee60:	15 00 00 00 	sethi  %hi(0), %o2
   1ee64:	94 1a a1 58 	xor  %o2, 0x158, %o2
   1ee68:	b8 07 bf f0 	add  %fp, -16, %i4
   1ee6c:	ba 05 c0 0a 	add  %l7, %o2, %i5
   1ee70:	90 10 00 1c 	mov  %i4, %o0
   1ee74:	94 10 00 1d 	mov  %i5, %o2
   1ee78:	13 00 00 a8 	sethi  %hi(0x2a000), %o1
   1ee7c:	92 1a 7c bc 	xor  %o1, -836, %o1
   1ee80:	7f ff db 48 	call  15ba0 <_pthread_cleanup_push_defer>
   1ee84:	92 05 c0 09 	add  %l7, %o1, %o1
   1ee88:	7f ff db 40 	call  15b88 <__pthread_mutex_lock>
   1ee8c:	90 10 00 1d 	mov  %i5, %o0
   1ee90:	7f ff d6 eb 	call  14a3c <malloc>
   1ee94:	90 10 00 1b 	mov  %i3, %o0
   1ee98:	b0 92 20 00 	orcc  %o0, 0, %i0
   1ee9c:	02 80 00 0d 	be  1eed0 <calloc+0xc8>
   1eea0:	92 10 20 01 	mov  1, %o1
   1eea4:	d4 06 3f fc 	ld  [ %i0 + -4 ], %o2
   1eea8:	80 8a a0 02 	btst  2, %o2
   1eeac:	12 80 00 09 	bne  1eed0 <calloc+0xc8>
   1eeb0:	94 0a bf fc 	and  %o2, -4, %o2
   1eeb4:	94 02 bf fc 	add  %o2, -4, %o2
   1eeb8:	80 a2 a0 27 	cmp  %o2, 0x27
   1eebc:	28 80 00 09 	bleu,a   1eee0 <calloc+0xd8>
   1eec0:	c0 26 00 00 	clr  [ %i0 ]
   1eec4:	7f ff d3 86 	call  13cdc <__GI_memset>
   1eec8:	92 10 20 00 	clr  %o1
   1eecc:	92 10 20 01 	mov  1, %o1
   1eed0:	7f ff db 39 	call  15bb4 <_pthread_cleanup_pop_restore>
   1eed4:	90 10 00 1c 	mov  %i4, %o0
   1eed8:	81 c7 e0 08 	ret 
   1eedc:	81 e8 00 00 	restore 
   1eee0:	c0 26 20 04 	clr  [ %i0 + 4 ]
   1eee4:	80 a2 a0 13 	cmp  %o2, 0x13
   1eee8:	08 bf ff f9 	bleu  1eecc <calloc+0xc4>
   1eeec:	c0 26 20 08 	clr  [ %i0 + 8 ]
   1eef0:	c0 26 20 0c 	clr  [ %i0 + 0xc ]
   1eef4:	80 a2 a0 1b 	cmp  %o2, 0x1b
   1eef8:	08 bf ff f5 	bleu  1eecc <calloc+0xc4>
   1eefc:	c0 26 20 10 	clr  [ %i0 + 0x10 ]
   1ef00:	c0 26 20 14 	clr  [ %i0 + 0x14 ]
   1ef04:	80 a2 a0 23 	cmp  %o2, 0x23
   1ef08:	08 bf ff f1 	bleu  1eecc <calloc+0xc4>
   1ef0c:	c0 26 20 18 	clr  [ %i0 + 0x18 ]
   1ef10:	c0 26 20 1c 	clr  [ %i0 + 0x1c ]
   1ef14:	10 bf ff ee 	b  1eecc <calloc+0xc4>
   1ef18:	c0 26 20 20 	clr  [ %i0 + 0x20 ]

0001ef1c <__lseek64_nocancel>:
   1ef1c:	9d e3 bf 98 	save  %sp, -104, %sp
   1ef20:	2f 00 00 83 	sethi  %hi(0x20c00), %l7
   1ef24:	7f ff c6 40 	call  10824 <__sparc_get_pc_thunk.l7>
   1ef28:	ae 05 e3 a8 	add  %l7, 0x3a8, %l7	! 20fa8 <locale_mmap+0x848>
   1ef2c:	82 10 20 ec 	mov  0xec, %g1
   1ef30:	98 10 00 1b 	mov  %i3, %o4
   1ef34:	96 07 bf f8 	add  %fp, -8, %o3
   1ef38:	94 10 00 1a 	mov  %i2, %o2
   1ef3c:	92 10 00 19 	mov  %i1, %o1
   1ef40:	90 10 00 18 	mov  %i0, %o0
   1ef44:	91 d0 20 10 	ta  0x10
   1ef48:	1a 80 00 03 	bcc  1ef54 <__lseek64_nocancel+0x38>
   1ef4c:	b2 10 00 08 	mov  %o0, %i1
   1ef50:	b2 20 00 08 	neg  %o0, %i1
   1ef54:	80 a6 70 00 	cmp  %i1, -4096
   1ef58:	28 80 00 0a 	bleu,a   1ef80 <__lseek64_nocancel+0x64>
   1ef5c:	b1 3e 60 1f 	sra  %i1, 0x1f, %i0
   1ef60:	b2 20 00 19 	neg  %i1
   1ef64:	03 00 00 00 	sethi  %hi(0), %g1
   1ef68:	b0 10 3f ff 	mov  -1, %i0
   1ef6c:	82 18 7f f8 	xor  %g1, -8, %g1
   1ef70:	ae 10 00 01 	mov  %g1, %l7
   1ef74:	f2 21 c0 17 	st  %i1, [ %g7 + %l7 ]
   1ef78:	81 c7 e0 08 	ret 
   1ef7c:	93 e8 3f ff 	restore  %g0, -1, %o1
   1ef80:	80 96 00 19 	orcc  %i0, %i1, %g0
   1ef84:	22 80 00 02 	be,a   1ef8c <__lseek64_nocancel+0x70>
   1ef88:	f0 1f bf f8 	ldd  [ %fp + -8 ], %i0
   1ef8c:	81 c7 e0 08 	ret 
   1ef90:	81 e8 00 00 	restore 

0001ef94 <lseek64>:
   1ef94:	9d e3 bf a0 	save  %sp, -96, %sp
   1ef98:	c2 01 e0 0c 	ld  [ %g7 + 0xc ], %g1
   1ef9c:	80 a0 60 00 	cmp  %g1, 0
   1efa0:	12 80 00 04 	bne  1efb0 <lseek64+0x1c>
   1efa4:	01 00 00 00 	nop 
   1efa8:	10 bf ff dd 	b  1ef1c <__lseek64_nocancel>
   1efac:	81 e8 00 00 	restore 
   1efb0:	7f ff dc f2 	call  16378 <__libc_enable_asynccancel>
   1efb4:	01 00 00 00 	nop 
   1efb8:	96 10 00 1b 	mov  %i3, %o3
   1efbc:	ba 10 00 08 	mov  %o0, %i5
   1efc0:	92 10 00 19 	mov  %i1, %o1
   1efc4:	94 10 00 1a 	mov  %i2, %o2
   1efc8:	7f ff ff d5 	call  1ef1c <__lseek64_nocancel>
   1efcc:	90 10 00 18 	mov  %i0, %o0
   1efd0:	b0 10 00 08 	mov  %o0, %i0
   1efd4:	b2 10 00 09 	mov  %o1, %i1
   1efd8:	7f ff dd 25 	call  1646c <__libc_disable_asynccancel>
   1efdc:	90 10 00 1d 	mov  %i5, %o0
   1efe0:	81 c7 e0 08 	ret 
   1efe4:	81 e8 00 00 	restore 

0001efe8 <_stdio_fopen>:
   1efe8:	9d e3 bf a0 	save  %sp, -96, %sp
   1efec:	2f 00 00 83 	sethi  %hi(0x20c00), %l7
   1eff0:	7f ff c6 0d 	call  10824 <__sparc_get_pc_thunk.l7>
   1eff4:	ae 05 e2 dc 	add  %l7, 0x2dc, %l7	! 20edc <locale_mmap+0x77c>
   1eff8:	c2 0e 40 00 	ldub  [ %i1 ], %g1
   1effc:	80 a0 60 72 	cmp  %g1, 0x72
   1f000:	02 80 00 10 	be  1f040 <_stdio_fopen+0x58>
   1f004:	80 a0 60 77 	cmp  %g1, 0x77
   1f008:	02 80 00 44 	be  1f118 <_stdio_fopen+0x130>
   1f00c:	80 a0 60 61 	cmp  %g1, 0x61
   1f010:	02 80 00 0d 	be  1f044 <_stdio_fopen+0x5c>
   1f014:	ba 10 22 09 	mov  0x209, %i5
   1f018:	03 00 00 00 	sethi  %hi(0), %g1
   1f01c:	84 10 20 16 	mov  0x16, %g2
   1f020:	82 18 7f f8 	xor  %g1, -8, %g1
   1f024:	01 00 00 00 	nop 
   1f028:	80 a6 a0 00 	cmp  %i2, 0
   1f02c:	12 80 00 32 	bne  1f0f4 <_stdio_fopen+0x10c>
   1f030:	c4 21 c0 01 	st  %g2, [ %g7 + %g1 ]
   1f034:	b4 10 20 00 	clr  %i2
   1f038:	81 c7 e0 08 	ret 
   1f03c:	91 e8 00 1a 	restore  %g0, %i2, %o0
   1f040:	ba 10 20 00 	clr  %i5
   1f044:	c2 0e 60 01 	ldub  [ %i1 + 1 ], %g1
   1f048:	80 a0 60 62 	cmp  %g1, 0x62
   1f04c:	22 80 00 02 	be,a   1f054 <_stdio_fopen+0x6c>
   1f050:	b2 06 60 01 	inc  %i1
   1f054:	c2 0e 60 01 	ldub  [ %i1 + 1 ], %g1
   1f058:	80 a0 60 2b 	cmp  %g1, 0x2b
   1f05c:	12 80 00 05 	bne  1f070 <_stdio_fopen+0x88>
   1f060:	b2 06 60 01 	inc  %i1
   1f064:	ba 17 60 01 	or  %i5, 1, %i5
   1f068:	ba 07 60 01 	inc  %i5
   1f06c:	b2 06 60 01 	inc  %i1
   1f070:	c2 0e 40 00 	ldub  [ %i1 ], %g1
   1f074:	80 a0 60 00 	cmp  %g1, 0
   1f078:	12 80 00 2a 	bne  1f120 <_stdio_fopen+0x138>
   1f07c:	80 a0 60 78 	cmp  %g1, 0x78
   1f080:	80 a6 a0 00 	cmp  %i2, 0
   1f084:	12 80 00 0d 	bne  1f0b8 <_stdio_fopen+0xd0>
   1f088:	80 a6 e0 00 	cmp  %i3, 0
   1f08c:	7f ff d6 6c 	call  14a3c <malloc>
   1f090:	90 10 20 48 	mov  0x48, %o0
   1f094:	b4 92 20 00 	orcc  %o0, 0, %i2
   1f098:	02 bf ff e7 	be  1f034 <_stdio_fopen+0x4c>
   1f09c:	80 a6 e0 00 	cmp  %i3, 0
   1f0a0:	03 00 00 08 	sethi  %hi(0x2000), %g1
   1f0a4:	c0 26 a0 08 	clr  [ %i2 + 8 ]
   1f0a8:	c2 36 80 00 	sth  %g1, [ %i2 ]
   1f0ac:	c0 26 a0 3c 	clr  [ %i2 + 0x3c ]
   1f0b0:	c0 26 a0 40 	clr  [ %i2 + 0x40 ]
   1f0b4:	c0 26 a0 44 	clr  [ %i2 + 0x44 ]
   1f0b8:	06 80 00 f3 	bl  1f484 <_stdio_fopen+0x49c>
   1f0bc:	03 00 01 00 	sethi  %hi(0x40000), %g1
   1f0c0:	84 06 20 01 	add  %i0, 1, %g2
   1f0c4:	82 10 60 03 	or  %g1, 3, %g1
   1f0c8:	82 0f 40 01 	and  %i5, %g1, %g1
   1f0cc:	82 00 60 01 	inc  %g1
   1f0d0:	84 08 80 01 	and  %g2, %g1, %g2
   1f0d4:	80 a0 80 01 	cmp  %g2, %g1
   1f0d8:	02 80 00 16 	be  1f130 <_stdio_fopen+0x148>
   1f0dc:	f6 26 a0 04 	st  %i3, [ %i2 + 4 ]
   1f0e0:	03 00 00 00 	sethi  %hi(0), %g1
   1f0e4:	84 10 20 16 	mov  0x16, %g2
   1f0e8:	82 18 7f f8 	xor  %g1, -8, %g1
   1f0ec:	01 00 00 00 	nop 
   1f0f0:	c4 21 c0 01 	st  %g2, [ %g7 + %g1 ]
   1f0f4:	c2 16 80 00 	lduh  [ %i2 ], %g1
   1f0f8:	05 00 00 08 	sethi  %hi(0x2000), %g2
   1f0fc:	80 88 80 01 	btst  %g2, %g1
   1f100:	22 bf ff ce 	be,a   1f038 <_stdio_fopen+0x50>
   1f104:	b4 10 20 00 	clr  %i2
   1f108:	7f ff d5 a5 	call  1479c <free>
   1f10c:	90 10 00 1a 	mov  %i2, %o0
   1f110:	10 bf ff ca 	b  1f038 <_stdio_fopen+0x50>
   1f114:	b4 10 20 00 	clr  %i2
   1f118:	10 bf ff cb 	b  1f044 <_stdio_fopen+0x5c>
   1f11c:	ba 10 26 01 	mov  0x601, %i5
   1f120:	22 bf ff d3 	be,a   1f06c <_stdio_fopen+0x84>
   1f124:	ba 17 68 00 	or  %i5, 0x800, %i5
   1f128:	10 bf ff d2 	b  1f070 <_stdio_fopen+0x88>
   1f12c:	b2 06 60 01 	inc  %i1
   1f130:	82 2f 40 18 	andn  %i5, %i0, %g1
   1f134:	80 88 60 08 	btst  8, %g1
   1f138:	12 80 00 cb 	bne  1f464 <_stdio_fopen+0x47c>
   1f13c:	94 10 20 08 	mov  8, %o2
   1f140:	03 00 01 00 	sethi  %hi(0x40000), %g1
   1f144:	82 0e 00 01 	and  %i0, %g1, %g1
   1f148:	ba 17 40 01 	or  %i5, %g1, %i5
   1f14c:	85 37 60 03 	srl  %i5, 3, %g2
   1f150:	07 3f ff e0 	sethi  %hi(0xffff8000), %g3
   1f154:	84 08 80 03 	and  %g2, %g3, %g2
   1f158:	83 2f 60 07 	sll  %i5, 7, %g1
   1f15c:	07 00 00 08 	sethi  %hi(0x2000), %g3
   1f160:	82 08 64 00 	and  %g1, 0x400, %g1
   1f164:	ba 0f 60 03 	and  %i5, 3, %i5
   1f168:	82 10 40 02 	or  %g1, %g2, %g1
   1f16c:	ba 07 60 01 	inc  %i5
   1f170:	c4 16 80 00 	lduh  [ %i2 ], %g2
   1f174:	ba 1f 60 03 	xor  %i5, 3, %i5
   1f178:	84 08 80 03 	and  %g2, %g3, %g2
   1f17c:	bb 2f 60 04 	sll  %i5, 4, %i5
   1f180:	82 10 40 02 	or  %g1, %g2, %g1
   1f184:	82 10 40 1d 	or  %g1, %i5, %g1
   1f188:	c2 36 80 00 	sth  %g1, [ %i2 ]
   1f18c:	d0 06 a0 04 	ld  [ %i2 + 4 ], %o0
   1f190:	03 1f ff ff 	sethi  %hi(0x7ffffc00), %g1
   1f194:	82 10 63 ff 	or  %g1, 0x3ff, %g1	! 7fffffff <_end+0x7ffbc85f>
   1f198:	80 a2 00 01 	cmp  %o0, %g1
   1f19c:	22 80 00 10 	be,a   1f1dc <_stdio_fopen+0x1f4>
   1f1a0:	c2 06 a0 08 	ld  [ %i2 + 8 ], %g1
   1f1a4:	3b 00 00 00 	sethi  %hi(0), %i5
   1f1a8:	82 1f 7f f8 	xor  %i5, -8, %g1
   1f1ac:	01 00 00 00 	nop 
   1f1b0:	7f ff f6 3b 	call  1ca9c <__GI_isatty>
   1f1b4:	f8 01 c0 01 	ld  [ %g7 + %g1 ], %i4
   1f1b8:	80 a2 20 00 	cmp  %o0, 0
   1f1bc:	02 80 00 05 	be  1f1d0 <_stdio_fopen+0x1e8>
   1f1c0:	ba 1f 7f f8 	xor  %i5, -8, %i5
   1f1c4:	c2 16 80 00 	lduh  [ %i2 ], %g1
   1f1c8:	82 10 61 00 	or  %g1, 0x100, %g1
   1f1cc:	c2 36 80 00 	sth  %g1, [ %i2 ]
   1f1d0:	01 00 00 00 	nop 
   1f1d4:	f8 21 c0 1d 	st  %i4, [ %g7 + %i5 ]
   1f1d8:	c2 06 a0 08 	ld  [ %i2 + 8 ], %g1
   1f1dc:	80 a0 60 00 	cmp  %g1, 0
   1f1e0:	32 80 00 0e 	bne,a   1f218 <_stdio_fopen+0x230>
   1f1e4:	c2 06 a0 08 	ld  [ %i2 + 8 ], %g1
   1f1e8:	7f ff d6 15 	call  14a3c <malloc>
   1f1ec:	11 00 00 04 	sethi  %hi(0x1000), %o0
   1f1f0:	80 a2 20 00 	cmp  %o0, 0
   1f1f4:	02 80 00 b0 	be  1f4b4 <_stdio_fopen+0x4cc>
   1f1f8:	d0 26 a0 08 	st  %o0, [ %i2 + 8 ]
   1f1fc:	c2 16 80 00 	lduh  [ %i2 ], %g1
   1f200:	90 22 30 00 	sub  %o0, -4096, %o0
   1f204:	05 00 00 10 	sethi  %hi(0x4000), %g2
   1f208:	d0 26 a0 0c 	st  %o0, [ %i2 + 0xc ]
   1f20c:	82 10 40 02 	or  %g1, %g2, %g1
   1f210:	c2 36 80 00 	sth  %g1, [ %i2 ]
   1f214:	c2 06 a0 08 	ld  [ %i2 + 8 ], %g1
   1f218:	c0 2e a0 02 	clrb  [ %i2 + 2 ]
   1f21c:	c2 26 a0 18 	st  %g1, [ %i2 + 0x18 ]
   1f220:	c2 26 a0 1c 	st  %g1, [ %i2 + 0x1c ]
   1f224:	c2 26 a0 10 	st  %g1, [ %i2 + 0x10 ]
   1f228:	c2 26 a0 14 	st  %g1, [ %i2 + 0x14 ]
   1f22c:	c0 26 a0 2c 	clr  [ %i2 + 0x2c ]
   1f230:	03 00 00 00 	sethi  %hi(0), %g1
   1f234:	82 18 62 68 	xor  %g1, 0x268, %g1
   1f238:	82 05 c0 01 	add  %l7, %g1, %g1
   1f23c:	c2 00 40 00 	ld  [ %g1 ], %g1
   1f240:	c2 26 a0 38 	st  %g1, [ %i2 + 0x38 ]
   1f244:	05 00 00 08 	sethi  %hi(0x2000), %g2
   1f248:	c2 16 80 00 	lduh  [ %i2 ], %g1
   1f24c:	80 88 80 01 	btst  %g2, %g1
   1f250:	02 bf ff 7a 	be  1f038 <_stdio_fopen+0x50>
   1f254:	3b 00 00 01 	sethi  %hi(0x400), %i5
   1f258:	ba 1f 63 8c 	xor  %i5, 0x38c, %i5
   1f25c:	ba 05 c0 1d 	add  %l7, %i5, %i5
   1f260:	c2 07 60 08 	ld  [ %i5 + 8 ], %g1
   1f264:	80 a0 40 07 	cmp  %g1, %g7
   1f268:	02 80 00 19 	be  1f2cc <_stdio_fopen+0x2e4>
   1f26c:	b8 10 00 07 	mov  %g7, %i4
   1f270:	83 3f 60 02 	sra  %i5, 2, %g1
   1f274:	85 3f 60 0c 	sra  %i5, 0xc, %g2
   1f278:	82 18 40 02 	xor  %g1, %g2, %g1
   1f27c:	82 08 60 3f 	and  %g1, 0x3f, %g1
   1f280:	05 00 00 00 	sethi  %hi(0), %g2
   1f284:	84 18 a3 ac 	xor  %g2, 0x3ac, %g2
   1f288:	84 05 c0 02 	add  %l7, %g2, %g2
   1f28c:	c6 68 80 01 	ldstub  [ %g2 + %g1 ], %g3
   1f290:	80 a0 e0 00 	cmp  %g3, 0
   1f294:	32 bf ff fc 	bne,a   1f284 <_stdio_fopen+0x29c>
   1f298:	05 00 00 00 	sethi  %hi(0), %g2
   1f29c:	c6 07 40 00 	ld  [ %i5 ], %g3
   1f2a0:	80 a0 e0 00 	cmp  %g3, 0
   1f2a4:	12 80 00 03 	bne  1f2b0 <_stdio_fopen+0x2c8>
   1f2a8:	88 10 20 01 	mov  1, %g4
   1f2ac:	c8 27 40 00 	st  %g4, [ %i5 ]
   1f2b0:	c0 28 80 01 	clrb  [ %g2 + %g1 ]
   1f2b4:	80 a0 e0 00 	cmp  %g3, 0
   1f2b8:	22 80 00 05 	be,a   1f2cc <_stdio_fopen+0x2e4>
   1f2bc:	f8 27 60 08 	st  %i4, [ %i5 + 8 ]
   1f2c0:	7f ff db c6 	call  161d8 <__lll_lock_wait_private>
   1f2c4:	90 10 00 1d 	mov  %i5, %o0
   1f2c8:	f8 27 60 08 	st  %i4, [ %i5 + 8 ]
   1f2cc:	c2 07 60 04 	ld  [ %i5 + 4 ], %g1
   1f2d0:	82 00 60 01 	inc  %g1
   1f2d4:	c2 27 60 04 	st  %g1, [ %i5 + 4 ]
   1f2d8:	39 00 00 01 	sethi  %hi(0x400), %i4
   1f2dc:	b8 1f 23 98 	xor  %i4, 0x398, %i4
   1f2e0:	b8 05 c0 1c 	add  %l7, %i4, %i4
   1f2e4:	c2 07 20 08 	ld  [ %i4 + 8 ], %g1
   1f2e8:	80 a0 40 07 	cmp  %g1, %g7
   1f2ec:	02 80 00 19 	be  1f350 <_stdio_fopen+0x368>
   1f2f0:	b6 10 00 07 	mov  %g7, %i3
   1f2f4:	83 3f 20 02 	sra  %i4, 2, %g1
   1f2f8:	85 3f 20 0c 	sra  %i4, 0xc, %g2
   1f2fc:	82 18 40 02 	xor  %g1, %g2, %g1
   1f300:	82 08 60 3f 	and  %g1, 0x3f, %g1
   1f304:	05 00 00 00 	sethi  %hi(0), %g2
   1f308:	84 18 a3 ac 	xor  %g2, 0x3ac, %g2
   1f30c:	84 05 c0 02 	add  %l7, %g2, %g2
   1f310:	c6 68 80 01 	ldstub  [ %g2 + %g1 ], %g3
   1f314:	80 a0 e0 00 	cmp  %g3, 0
   1f318:	32 bf ff fc 	bne,a   1f308 <_stdio_fopen+0x320>
   1f31c:	05 00 00 00 	sethi  %hi(0), %g2
   1f320:	c6 07 00 00 	ld  [ %i4 ], %g3
   1f324:	80 a0 e0 00 	cmp  %g3, 0
   1f328:	12 80 00 03 	bne  1f334 <_stdio_fopen+0x34c>
   1f32c:	88 10 20 01 	mov  1, %g4
   1f330:	c8 27 00 00 	st  %g4, [ %i4 ]
   1f334:	c0 28 80 01 	clrb  [ %g2 + %g1 ]
   1f338:	80 a0 e0 00 	cmp  %g3, 0
   1f33c:	22 80 00 05 	be,a   1f350 <_stdio_fopen+0x368>
   1f340:	f6 27 20 08 	st  %i3, [ %i4 + 8 ]
   1f344:	7f ff db a5 	call  161d8 <__lll_lock_wait_private>
   1f348:	90 10 00 1c 	mov  %i4, %o0
   1f34c:	f6 27 20 08 	st  %i3, [ %i4 + 8 ]
   1f350:	03 00 00 00 	sethi  %hi(0), %g1
   1f354:	82 18 62 6c 	xor  %g1, 0x26c, %g1
   1f358:	82 05 c0 01 	add  %l7, %g1, %g1
   1f35c:	c6 00 40 00 	ld  [ %g1 ], %g3
   1f360:	f4 20 40 00 	st  %i2, [ %g1 ]
   1f364:	c6 26 a0 20 	st  %g3, [ %i2 + 0x20 ]
   1f368:	c4 07 20 04 	ld  [ %i4 + 4 ], %g2
   1f36c:	80 a0 a0 00 	cmp  %g2, 0
   1f370:	32 80 00 1e 	bne,a   1f3e8 <_stdio_fopen+0x400>
   1f374:	c2 07 60 04 	ld  [ %i5 + 4 ], %g1
   1f378:	83 3f 20 02 	sra  %i4, 2, %g1
   1f37c:	85 3f 20 0c 	sra  %i4, 0xc, %g2
   1f380:	c0 27 20 08 	clr  [ %i4 + 8 ]
   1f384:	82 18 40 02 	xor  %g1, %g2, %g1
   1f388:	82 08 60 3f 	and  %g1, 0x3f, %g1
   1f38c:	05 00 00 00 	sethi  %hi(0), %g2
   1f390:	84 18 a3 ac 	xor  %g2, 0x3ac, %g2
   1f394:	84 05 c0 02 	add  %l7, %g2, %g2
   1f398:	c6 68 80 01 	ldstub  [ %g2 + %g1 ], %g3
   1f39c:	80 a0 e0 00 	cmp  %g3, 0
   1f3a0:	32 bf ff fc 	bne,a   1f390 <_stdio_fopen+0x3a8>
   1f3a4:	05 00 00 00 	sethi  %hi(0), %g2
   1f3a8:	c6 07 00 00 	ld  [ %i4 ], %g3
   1f3ac:	c0 28 80 01 	clrb  [ %g2 + %g1 ]
   1f3b0:	c0 27 00 00 	clr  [ %i4 ]
   1f3b4:	80 a0 e0 01 	cmp  %g3, 1
   1f3b8:	24 80 00 0c 	ble,a   1f3e8 <_stdio_fopen+0x400>
   1f3bc:	c2 07 60 04 	ld  [ %i5 + 4 ], %g1
   1f3c0:	82 10 20 8e 	mov  0x8e, %g1
   1f3c4:	96 10 20 00 	clr  %o3
   1f3c8:	94 10 20 01 	mov  1, %o2
   1f3cc:	92 10 20 81 	mov  0x81, %o1
   1f3d0:	90 10 00 1c 	mov  %i4, %o0
   1f3d4:	91 d0 20 10 	ta  0x10
   1f3d8:	1a 80 00 03 	bcc  1f3e4 <_stdio_fopen+0x3fc>
   1f3dc:	82 10 00 08 	mov  %o0, %g1
   1f3e0:	82 20 00 08 	neg  %o0, %g1
   1f3e4:	c2 07 60 04 	ld  [ %i5 + 4 ], %g1
   1f3e8:	82 00 7f ff 	add  %g1, -1, %g1
   1f3ec:	80 a0 60 00 	cmp  %g1, 0
   1f3f0:	12 bf ff 12 	bne  1f038 <_stdio_fopen+0x50>
   1f3f4:	c2 27 60 04 	st  %g1, [ %i5 + 4 ]
   1f3f8:	83 3f 60 02 	sra  %i5, 2, %g1
   1f3fc:	85 3f 60 0c 	sra  %i5, 0xc, %g2
   1f400:	c0 27 60 08 	clr  [ %i5 + 8 ]
   1f404:	82 18 40 02 	xor  %g1, %g2, %g1
   1f408:	82 08 60 3f 	and  %g1, 0x3f, %g1
   1f40c:	05 00 00 00 	sethi  %hi(0), %g2
   1f410:	84 18 a3 ac 	xor  %g2, 0x3ac, %g2
   1f414:	84 05 c0 02 	add  %l7, %g2, %g2
   1f418:	c6 68 80 01 	ldstub  [ %g2 + %g1 ], %g3
   1f41c:	80 a0 e0 00 	cmp  %g3, 0
   1f420:	32 bf ff fc 	bne,a   1f410 <_stdio_fopen+0x428>
   1f424:	05 00 00 00 	sethi  %hi(0), %g2
   1f428:	c6 07 40 00 	ld  [ %i5 ], %g3
   1f42c:	c0 28 80 01 	clrb  [ %g2 + %g1 ]
   1f430:	c0 27 40 00 	clr  [ %i5 ]
   1f434:	80 a0 e0 01 	cmp  %g3, 1
   1f438:	04 bf ff 00 	ble  1f038 <_stdio_fopen+0x50>
   1f43c:	82 10 20 8e 	mov  0x8e, %g1
   1f440:	96 10 20 00 	clr  %o3
   1f444:	94 10 20 01 	mov  1, %o2
   1f448:	92 10 20 81 	mov  0x81, %o1
   1f44c:	90 10 00 1d 	mov  %i5, %o0
   1f450:	91 d0 20 10 	ta  0x10
   1f454:	1a 80 00 03 	bcc  1f460 <_stdio_fopen+0x478>
   1f458:	82 10 00 08 	mov  %o0, %g1
   1f45c:	82 20 00 08 	neg  %o0, %g1
   1f460:	30 bf fe f6 	b,a   1f038 <_stdio_fopen+0x50>
   1f464:	92 10 20 04 	mov  4, %o1
   1f468:	7f ff ea dd 	call  19fdc <__GI_fcntl>
   1f46c:	90 10 00 1b 	mov  %i3, %o0
   1f470:	80 a2 20 00 	cmp  %o0, 0
   1f474:	22 bf ff 34 	be,a   1f144 <_stdio_fopen+0x15c>
   1f478:	03 00 01 00 	sethi  %hi(0x40000), %g1
   1f47c:	10 bf ff 1a 	b  1f0e4 <_stdio_fopen+0xfc>
   1f480:	03 00 00 00 	sethi  %hi(0), %g1
   1f484:	80 a6 ff ff 	cmp  %i3, -1
   1f488:	02 80 00 03 	be  1f494 <_stdio_fopen+0x4ac>
   1f48c:	94 10 21 b6 	mov  0x1b6, %o2
   1f490:	ba 17 40 01 	or  %i5, %g1, %i5
   1f494:	92 10 00 1d 	mov  %i5, %o1
   1f498:	7f ff c5 53 	call  109e4 <__GI_open>
   1f49c:	90 10 00 18 	mov  %i0, %o0
   1f4a0:	80 a2 20 00 	cmp  %o0, 0
   1f4a4:	16 bf ff 2a 	bge  1f14c <_stdio_fopen+0x164>
   1f4a8:	d0 26 a0 04 	st  %o0, [ %i2 + 4 ]
   1f4ac:	10 bf ff 13 	b  1f0f8 <_stdio_fopen+0x110>
   1f4b0:	c2 16 80 00 	lduh  [ %i2 ], %g1
   1f4b4:	10 bf ff 58 	b  1f214 <_stdio_fopen+0x22c>
   1f4b8:	c0 26 a0 0c 	clr  [ %i2 + 0xc ]

0001f4bc <__do_global_ctors_aux>:
   1f4bc:	9d e3 bf a0 	save  %sp, -96, %sp
   1f4c0:	3b 00 00 ff 	sethi  %hi(0x3fc00), %i5
   1f4c4:	ba 17 62 80 	or  %i5, 0x280, %i5	! 3fe80 <__CTOR_END__>
   1f4c8:	c2 07 7f fc 	ld  [ %i5 + -4 ], %g1
   1f4cc:	80 a0 7f ff 	cmp  %g1, -1
   1f4d0:	02 80 00 08 	be  1f4f0 <__do_global_ctors_aux+0x34>
   1f4d4:	ba 07 7f fc 	add  %i5, -4, %i5
   1f4d8:	9f c0 40 00 	call  %g1
   1f4dc:	ba 07 7f fc 	add  %i5, -4, %i5
   1f4e0:	c2 07 40 00 	ld  [ %i5 ], %g1
   1f4e4:	80 a0 7f ff 	cmp  %g1, -1
   1f4e8:	12 bf ff fc 	bne  1f4d8 <__do_global_ctors_aux+0x1c>
   1f4ec:	01 00 00 00 	nop 
   1f4f0:	81 c7 e0 08 	ret 
   1f4f4:	81 e8 00 00 	restore 

0001f4f8 <call___do_global_ctors_aux>:
   1f4f8:	9d e3 bf a0 	save  %sp, -96, %sp
   1f4fc:	81 c7 e0 08 	ret 
   1f500:	81 e8 00 00 	restore 

Disassembly of section .fini:

0001f504 <_fini>:
   1f504:	9d e3 bf 98 	save  %sp, -104, %sp
   1f508:	7f ff c3 6e 	call  102c0 <__do_global_dtors_aux>
   1f50c:	01 00 00 00 	nop 
   1f510:	81 c7 e0 08 	ret 
   1f514:	81 e8 00 00 	restore 
